###############################################################################
#
# IAR ELF Linker V7.40.5.9725/W32 for ARM                 20/Oct/2015  12:35:19
# Copyright 2007-2015 IAR Systems AB.
#
#    Output file  =  
#        F:\PATH_EN\Code\STM32F746G-RadioYuN\Projects\STM32F746G-DISCO\RadioYuN\IAR\STM32F7-DISCO\Exe\STM32F746G-RadioYuN.out
#    Map file     =  
#        F:\PATH_EN\Code\STM32F746G-RadioYuN\Projects\STM32F746G-DISCO\RadioYuN\IAR\STM32F7-DISCO\List\STM32F746G-RadioYuN.map
#    Command line =  
#        F:\PATH_EN\Code\STM32F746G-RadioYuN\Projects\STM32F746G-DISCO\RadioYuN\IAR\STM32F7-DISCO\Obj\api_lib.o
#        F:\PATH_EN\Code\STM32F746G-RadioYuN\Projects\STM32F746G-DISCO\RadioYuN\IAR\STM32F7-DISCO\Obj\api_msg.o
#        F:\PATH_EN\Code\STM32F746G-RadioYuN\Projects\STM32F746G-DISCO\RadioYuN\IAR\STM32F7-DISCO\Obj\audio_if.o
#        F:\PATH_EN\Code\STM32F746G-RadioYuN\Projects\STM32F746G-DISCO\RadioYuN\IAR\STM32F7-DISCO\Obj\audio_player_app.o
#        F:\PATH_EN\Code\STM32F746G-RadioYuN\Projects\STM32F746G-DISCO\RadioYuN\IAR\STM32F7-DISCO\Obj\audio_player_win.o
#        F:\PATH_EN\Code\STM32F746G-RadioYuN\Projects\STM32F746G-DISCO\RadioYuN\IAR\STM32F7-DISCO\Obj\audio_recorder_app.o
#        F:\PATH_EN\Code\STM32F746G-RadioYuN\Projects\STM32F746G-DISCO\RadioYuN\IAR\STM32F7-DISCO\Obj\audio_recorder_win.o
#        F:\PATH_EN\Code\STM32F746G-RadioYuN\Projects\STM32F746G-DISCO\RadioYuN\IAR\STM32F7-DISCO\Obj\autoip.o
#        F:\PATH_EN\Code\STM32F746G-RadioYuN\Projects\STM32F746G-DISCO\RadioYuN\IAR\STM32F7-DISCO\Obj\cmsis_os.o
#        F:\PATH_EN\Code\STM32F746G-RadioYuN\Projects\STM32F746G-DISCO\RadioYuN\IAR\STM32F7-DISCO\Obj\cpu_utils.o
#        F:\PATH_EN\Code\STM32F746G-RadioYuN\Projects\STM32F746G-DISCO\RadioYuN\IAR\STM32F7-DISCO\Obj\croutine.o
#        F:\PATH_EN\Code\STM32F746G-RadioYuN\Projects\STM32F746G-DISCO\RadioYuN\IAR\STM32F7-DISCO\Obj\def.o
#        F:\PATH_EN\Code\STM32F746G-RadioYuN\Projects\STM32F746G-DISCO\RadioYuN\IAR\STM32F7-DISCO\Obj\dhcp.o
#        F:\PATH_EN\Code\STM32F746G-RadioYuN\Projects\STM32F746G-DISCO\RadioYuN\IAR\STM32F7-DISCO\Obj\diskio.o
#        F:\PATH_EN\Code\STM32F746G-RadioYuN\Projects\STM32F746G-DISCO\RadioYuN\IAR\STM32F7-DISCO\Obj\dns.o
#        F:\PATH_EN\Code\STM32F746G-RadioYuN\Projects\STM32F746G-DISCO\RadioYuN\IAR\STM32F7-DISCO\Obj\err.o
#        F:\PATH_EN\Code\STM32F746G-RadioYuN\Projects\STM32F746G-DISCO\RadioYuN\IAR\STM32F7-DISCO\Obj\etharp.o
#        F:\PATH_EN\Code\STM32F746G-RadioYuN\Projects\STM32F746G-DISCO\RadioYuN\IAR\STM32F7-DISCO\Obj\ethernetif.o
#        F:\PATH_EN\Code\STM32F746G-RadioYuN\Projects\STM32F746G-DISCO\RadioYuN\IAR\STM32F7-DISCO\Obj\event_groups.o
#        F:\PATH_EN\Code\STM32F746G-RadioYuN\Projects\STM32F746G-DISCO\RadioYuN\IAR\STM32F7-DISCO\Obj\ff.o
#        F:\PATH_EN\Code\STM32F746G-RadioYuN\Projects\STM32F746G-DISCO\RadioYuN\IAR\STM32F7-DISCO\Obj\ff_gen_drv.o
#        F:\PATH_EN\Code\STM32F746G-RadioYuN\Projects\STM32F746G-DISCO\RadioYuN\IAR\STM32F7-DISCO\Obj\ft5336.o
#        F:\PATH_EN\Code\STM32F746G-RadioYuN\Projects\STM32F746G-DISCO\RadioYuN\IAR\STM32F7-DISCO\Obj\games_win.o
#        F:\PATH_EN\Code\STM32F746G-RadioYuN\Projects\STM32F746G-DISCO\RadioYuN\IAR\STM32F7-DISCO\Obj\gardening_control_win.o
#        F:\PATH_EN\Code\STM32F746G-RadioYuN\Projects\STM32F746G-DISCO\RadioYuN\IAR\STM32F7-DISCO\Obj\GUI_X_OS.o
#        F:\PATH_EN\Code\STM32F746G-RadioYuN\Projects\STM32F746G-DISCO\RadioYuN\IAR\STM32F7-DISCO\Obj\GUIConf.o
#        F:\PATH_EN\Code\STM32F746G-RadioYuN\Projects\STM32F746G-DISCO\RadioYuN\IAR\STM32F7-DISCO\Obj\heap_4.o
#        F:\PATH_EN\Code\STM32F746G-RadioYuN\Projects\STM32F746G-DISCO\RadioYuN\IAR\STM32F7-DISCO\Obj\home_alarm_win.o
#        F:\PATH_EN\Code\STM32F746G-RadioYuN\Projects\STM32F746G-DISCO\RadioYuN\IAR\STM32F7-DISCO\Obj\icmp.o
#        F:\PATH_EN\Code\STM32F746G-RadioYuN\Projects\STM32F746G-DISCO\RadioYuN\IAR\STM32F7-DISCO\Obj\igmp.o
#        F:\PATH_EN\Code\STM32F746G-RadioYuN\Projects\STM32F746G-DISCO\RadioYuN\IAR\STM32F7-DISCO\Obj\inet.o
#        F:\PATH_EN\Code\STM32F746G-RadioYuN\Projects\STM32F746G-DISCO\RadioYuN\IAR\STM32F7-DISCO\Obj\inet_chksum.o
#        F:\PATH_EN\Code\STM32F746G-RadioYuN\Projects\STM32F746G-DISCO\RadioYuN\IAR\STM32F7-DISCO\Obj\init.o
#        F:\PATH_EN\Code\STM32F746G-RadioYuN\Projects\STM32F746G-DISCO\RadioYuN\IAR\STM32F7-DISCO\Obj\ip.o
#        F:\PATH_EN\Code\STM32F746G-RadioYuN\Projects\STM32F746G-DISCO\RadioYuN\IAR\STM32F7-DISCO\Obj\ip_addr.o
#        F:\PATH_EN\Code\STM32F746G-RadioYuN\Projects\STM32F746G-DISCO\RadioYuN\IAR\STM32F7-DISCO\Obj\ip_frag.o
#        F:\PATH_EN\Code\STM32F746G-RadioYuN\Projects\STM32F746G-DISCO\RadioYuN\IAR\STM32F7-DISCO\Obj\k_bsp.o
#        F:\PATH_EN\Code\STM32F746G-RadioYuN\Projects\STM32F746G-DISCO\RadioYuN\IAR\STM32F7-DISCO\Obj\k_menu.o
#        F:\PATH_EN\Code\STM32F746G-RadioYuN\Projects\STM32F746G-DISCO\RadioYuN\IAR\STM32F7-DISCO\Obj\k_module.o
#        F:\PATH_EN\Code\STM32F746G-RadioYuN\Projects\STM32F746G-DISCO\RadioYuN\IAR\STM32F7-DISCO\Obj\k_rtc.o
#        F:\PATH_EN\Code\STM32F746G-RadioYuN\Projects\STM32F746G-DISCO\RadioYuN\IAR\STM32F7-DISCO\Obj\k_startup.o
#        F:\PATH_EN\Code\STM32F746G-RadioYuN\Projects\STM32F746G-DISCO\RadioYuN\IAR\STM32F7-DISCO\Obj\k_storage.o
#        F:\PATH_EN\Code\STM32F746G-RadioYuN\Projects\STM32F746G-DISCO\RadioYuN\IAR\STM32F7-DISCO\Obj\LCDConf.o
#        F:\PATH_EN\Code\STM32F746G-RadioYuN\Projects\STM32F746G-DISCO\RadioYuN\Modules\Audio_Player\Addons\SpiritDSP_Equalizer\lib_equalizer_cortex_m4.a
#        F:\PATH_EN\Code\STM32F746G-RadioYuN\Projects\STM32F746G-DISCO\RadioYuN\Modules\Audio_Player\Addons\SpiritDSP_LoudnessControl\lib_loudness_cortex_m4.a
#        F:\PATH_EN\Code\STM32F746G-RadioYuN\Projects\STM32F746G-DISCO\RadioYuN\IAR\STM32F7-DISCO\Obj\list.o
#        F:\PATH_EN\Code\STM32F746G-RadioYuN\Projects\STM32F746G-DISCO\RadioYuN\IAR\STM32F7-DISCO\Obj\lwip_timers.o
#        F:\PATH_EN\Code\STM32F746G-RadioYuN\Projects\STM32F746G-DISCO\RadioYuN\IAR\STM32F7-DISCO\Obj\main.o
#        F:\PATH_EN\Code\STM32F746G-RadioYuN\Projects\STM32F746G-DISCO\RadioYuN\IAR\STM32F7-DISCO\Obj\mem.o
#        F:\PATH_EN\Code\STM32F746G-RadioYuN\Projects\STM32F746G-DISCO\RadioYuN\IAR\STM32F7-DISCO\Obj\memp.o
#        F:\PATH_EN\Code\STM32F746G-RadioYuN\Projects\STM32F746G-DISCO\RadioYuN\IAR\STM32F7-DISCO\Obj\netbuf.o
#        F:\PATH_EN\Code\STM32F746G-RadioYuN\Projects\STM32F746G-DISCO\RadioYuN\IAR\STM32F7-DISCO\Obj\netdb.o
#        F:\PATH_EN\Code\STM32F746G-RadioYuN\Projects\STM32F746G-DISCO\RadioYuN\IAR\STM32F7-DISCO\Obj\netif.o
#        F:\PATH_EN\Code\STM32F746G-RadioYuN\Projects\STM32F746G-DISCO\RadioYuN\IAR\STM32F7-DISCO\Obj\netifapi.o
#        F:\PATH_EN\Code\STM32F746G-RadioYuN\Projects\STM32F746G-DISCO\RadioYuN\IAR\STM32F7-DISCO\Obj\pbuf.o
#        F:\PATH_EN\Code\STM32F746G-RadioYuN\Projects\STM32F746G-DISCO\RadioYuN\IAR\STM32F7-DISCO\Obj\port.o
#        F:\PATH_EN\Code\STM32F746G-RadioYuN\Projects\STM32F746G-DISCO\RadioYuN\IAR\STM32F7-DISCO\Obj\portasm.o
#        F:\PATH_EN\Code\STM32F746G-RadioYuN\Projects\STM32F746G-DISCO\RadioYuN\IAR\STM32F7-DISCO\Obj\queue.o
#        F:\PATH_EN\Code\STM32F746G-RadioYuN\Projects\STM32F746G-DISCO\RadioYuN\IAR\STM32F7-DISCO\Obj\raw.o
#        F:\PATH_EN\Code\STM32F746G-RadioYuN\Projects\STM32F746G-DISCO\RadioYuN\IAR\STM32F7-DISCO\Obj\settings_win.o
#        F:\PATH_EN\Code\STM32F746G-RadioYuN\Projects\STM32F746G-DISCO\RadioYuN\IAR\STM32F7-DISCO\Obj\sockets.o
#        F:\PATH_EN\Code\STM32F746G-RadioYuN\Projects\STM32F746G-DISCO\RadioYuN\IAR\STM32F7-DISCO\Obj\startup_stm32f746xx.o
#        F:\PATH_EN\Code\STM32F746G-RadioYuN\Projects\STM32F746G-DISCO\RadioYuN\IAR\STM32F7-DISCO\Obj\stats.o
#        F:\PATH_EN\Code\STM32F746G-RadioYuN\Middlewares\ST\STemWin\Lib\STemWin528_CM7_OS_IAR_ot.a
#        F:\PATH_EN\Code\STM32F746G-RadioYuN\Projects\STM32F746G-DISCO\RadioYuN\IAR\STM32F7-DISCO\Obj\stm32746g_discovery.o
#        F:\PATH_EN\Code\STM32F746G-RadioYuN\Projects\STM32F746G-DISCO\RadioYuN\IAR\STM32F7-DISCO\Obj\stm32746g_discovery_audio.o
#        F:\PATH_EN\Code\STM32F746G-RadioYuN\Projects\STM32F746G-DISCO\RadioYuN\IAR\STM32F7-DISCO\Obj\stm32746g_discovery_camera.o
#        F:\PATH_EN\Code\STM32F746G-RadioYuN\Projects\STM32F746G-DISCO\RadioYuN\IAR\STM32F7-DISCO\Obj\stm32746g_discovery_eeprom.o
#        F:\PATH_EN\Code\STM32F746G-RadioYuN\Projects\STM32F746G-DISCO\RadioYuN\IAR\STM32F7-DISCO\Obj\stm32746g_discovery_lcd.o
#        F:\PATH_EN\Code\STM32F746G-RadioYuN\Projects\STM32F746G-DISCO\RadioYuN\IAR\STM32F7-DISCO\Obj\stm32746g_discovery_qspi.o
#        F:\PATH_EN\Code\STM32F746G-RadioYuN\Projects\STM32F746G-DISCO\RadioYuN\IAR\STM32F7-DISCO\Obj\stm32746g_discovery_sd.o
#        F:\PATH_EN\Code\STM32F746G-RadioYuN\Projects\STM32F746G-DISCO\RadioYuN\IAR\STM32F7-DISCO\Obj\stm32746g_discovery_sdram.o
#        F:\PATH_EN\Code\STM32F746G-RadioYuN\Projects\STM32F746G-DISCO\RadioYuN\STemWin_Addons\STM32746G_Discovery_STemWin_Addons_IAR.a
#        F:\PATH_EN\Code\STM32F746G-RadioYuN\Projects\STM32F746G-DISCO\RadioYuN\IAR\STM32F7-DISCO\Obj\stm32746g_discovery_ts.o
#        F:\PATH_EN\Code\STM32F746G-RadioYuN\Projects\STM32F746G-DISCO\RadioYuN\IAR\STM32F7-DISCO\Obj\stm32f7xx_hal.o
#        F:\PATH_EN\Code\STM32F746G-RadioYuN\Projects\STM32F746G-DISCO\RadioYuN\IAR\STM32F7-DISCO\Obj\stm32f7xx_hal_adc.o
#        F:\PATH_EN\Code\STM32F746G-RadioYuN\Projects\STM32F746G-DISCO\RadioYuN\IAR\STM32F7-DISCO\Obj\stm32f7xx_hal_adc_ex.o
#        F:\PATH_EN\Code\STM32F746G-RadioYuN\Projects\STM32F746G-DISCO\RadioYuN\IAR\STM32F7-DISCO\Obj\stm32f7xx_hal_can.o
#        F:\PATH_EN\Code\STM32F746G-RadioYuN\Projects\STM32F746G-DISCO\RadioYuN\IAR\STM32F7-DISCO\Obj\stm32f7xx_hal_cec.o
#        F:\PATH_EN\Code\STM32F746G-RadioYuN\Projects\STM32F746G-DISCO\RadioYuN\IAR\STM32F7-DISCO\Obj\stm32f7xx_hal_cortex.o
#        F:\PATH_EN\Code\STM32F746G-RadioYuN\Projects\STM32F746G-DISCO\RadioYuN\IAR\STM32F7-DISCO\Obj\stm32f7xx_hal_crc.o
#        F:\PATH_EN\Code\STM32F746G-RadioYuN\Projects\STM32F746G-DISCO\RadioYuN\IAR\STM32F7-DISCO\Obj\stm32f7xx_hal_crc_ex.o
#        F:\PATH_EN\Code\STM32F746G-RadioYuN\Projects\STM32F746G-DISCO\RadioYuN\IAR\STM32F7-DISCO\Obj\stm32f7xx_hal_cryp.o
#        F:\PATH_EN\Code\STM32F746G-RadioYuN\Projects\STM32F746G-DISCO\RadioYuN\IAR\STM32F7-DISCO\Obj\stm32f7xx_hal_cryp_ex.o
#        F:\PATH_EN\Code\STM32F746G-RadioYuN\Projects\STM32F746G-DISCO\RadioYuN\IAR\STM32F7-DISCO\Obj\stm32f7xx_hal_dac.o
#        F:\PATH_EN\Code\STM32F746G-RadioYuN\Projects\STM32F746G-DISCO\RadioYuN\IAR\STM32F7-DISCO\Obj\stm32f7xx_hal_dac_ex.o
#        F:\PATH_EN\Code\STM32F746G-RadioYuN\Projects\STM32F746G-DISCO\RadioYuN\IAR\STM32F7-DISCO\Obj\stm32f7xx_hal_dcmi.o
#        F:\PATH_EN\Code\STM32F746G-RadioYuN\Projects\STM32F746G-DISCO\RadioYuN\IAR\STM32F7-DISCO\Obj\stm32f7xx_hal_dma.o
#        F:\PATH_EN\Code\STM32F746G-RadioYuN\Projects\STM32F746G-DISCO\RadioYuN\IAR\STM32F7-DISCO\Obj\stm32f7xx_hal_dma2d.o
#        F:\PATH_EN\Code\STM32F746G-RadioYuN\Projects\STM32F746G-DISCO\RadioYuN\IAR\STM32F7-DISCO\Obj\stm32f7xx_hal_dma_ex.o
#        F:\PATH_EN\Code\STM32F746G-RadioYuN\Projects\STM32F746G-DISCO\RadioYuN\IAR\STM32F7-DISCO\Obj\stm32f7xx_hal_eth.o
#        F:\PATH_EN\Code\STM32F746G-RadioYuN\Projects\STM32F746G-DISCO\RadioYuN\IAR\STM32F7-DISCO\Obj\stm32f7xx_hal_flash.o
#        F:\PATH_EN\Code\STM32F746G-RadioYuN\Projects\STM32F746G-DISCO\RadioYuN\IAR\STM32F7-DISCO\Obj\stm32f7xx_hal_flash_ex.o
#        F:\PATH_EN\Code\STM32F746G-RadioYuN\Projects\STM32F746G-DISCO\RadioYuN\IAR\STM32F7-DISCO\Obj\stm32f7xx_hal_gpio.o
#        F:\PATH_EN\Code\STM32F746G-RadioYuN\Projects\STM32F746G-DISCO\RadioYuN\IAR\STM32F7-DISCO\Obj\stm32f7xx_hal_hash.o
#        F:\PATH_EN\Code\STM32F746G-RadioYuN\Projects\STM32F746G-DISCO\RadioYuN\IAR\STM32F7-DISCO\Obj\stm32f7xx_hal_hash_ex.o
#        F:\PATH_EN\Code\STM32F746G-RadioYuN\Projects\STM32F746G-DISCO\RadioYuN\IAR\STM32F7-DISCO\Obj\stm32f7xx_hal_hcd.o
#        F:\PATH_EN\Code\STM32F746G-RadioYuN\Projects\STM32F746G-DISCO\RadioYuN\IAR\STM32F7-DISCO\Obj\stm32f7xx_hal_i2c.o
#        F:\PATH_EN\Code\STM32F746G-RadioYuN\Projects\STM32F746G-DISCO\RadioYuN\IAR\STM32F7-DISCO\Obj\stm32f7xx_hal_i2c_ex.o
#        F:\PATH_EN\Code\STM32F746G-RadioYuN\Projects\STM32F746G-DISCO\RadioYuN\IAR\STM32F7-DISCO\Obj\stm32f7xx_hal_i2s.o
#        F:\PATH_EN\Code\STM32F746G-RadioYuN\Projects\STM32F746G-DISCO\RadioYuN\IAR\STM32F7-DISCO\Obj\stm32f7xx_hal_irda.o
#        F:\PATH_EN\Code\STM32F746G-RadioYuN\Projects\STM32F746G-DISCO\RadioYuN\IAR\STM32F7-DISCO\Obj\stm32f7xx_hal_iwdg.o
#        F:\PATH_EN\Code\STM32F746G-RadioYuN\Projects\STM32F746G-DISCO\RadioYuN\IAR\STM32F7-DISCO\Obj\stm32f7xx_hal_lptim.o
#        F:\PATH_EN\Code\STM32F746G-RadioYuN\Projects\STM32F746G-DISCO\RadioYuN\IAR\STM32F7-DISCO\Obj\stm32f7xx_hal_ltdc.o
#        F:\PATH_EN\Code\STM32F746G-RadioYuN\Projects\STM32F746G-DISCO\RadioYuN\IAR\STM32F7-DISCO\Obj\stm32f7xx_hal_msp_template.o
#        F:\PATH_EN\Code\STM32F746G-RadioYuN\Projects\STM32F746G-DISCO\RadioYuN\IAR\STM32F7-DISCO\Obj\stm32f7xx_hal_nor.o
#        F:\PATH_EN\Code\STM32F746G-RadioYuN\Projects\STM32F746G-DISCO\RadioYuN\IAR\STM32F7-DISCO\Obj\stm32f7xx_hal_pcd.o
#        F:\PATH_EN\Code\STM32F746G-RadioYuN\Projects\STM32F746G-DISCO\RadioYuN\IAR\STM32F7-DISCO\Obj\stm32f7xx_hal_pcd_ex.o
#        F:\PATH_EN\Code\STM32F746G-RadioYuN\Projects\STM32F746G-DISCO\RadioYuN\IAR\STM32F7-DISCO\Obj\stm32f7xx_hal_pwr.o
#        F:\PATH_EN\Code\STM32F746G-RadioYuN\Projects\STM32F746G-DISCO\RadioYuN\IAR\STM32F7-DISCO\Obj\stm32f7xx_hal_pwr_ex.o
#        F:\PATH_EN\Code\STM32F746G-RadioYuN\Projects\STM32F746G-DISCO\RadioYuN\IAR\STM32F7-DISCO\Obj\stm32f7xx_hal_qspi.o
#        F:\PATH_EN\Code\STM32F746G-RadioYuN\Projects\STM32F746G-DISCO\RadioYuN\IAR\STM32F7-DISCO\Obj\stm32f7xx_hal_rcc.o
#        F:\PATH_EN\Code\STM32F746G-RadioYuN\Projects\STM32F746G-DISCO\RadioYuN\IAR\STM32F7-DISCO\Obj\stm32f7xx_hal_rcc_ex.o
#        F:\PATH_EN\Code\STM32F746G-RadioYuN\Projects\STM32F746G-DISCO\RadioYuN\IAR\STM32F7-DISCO\Obj\stm32f7xx_hal_rng.o
#        F:\PATH_EN\Code\STM32F746G-RadioYuN\Projects\STM32F746G-DISCO\RadioYuN\IAR\STM32F7-DISCO\Obj\stm32f7xx_hal_rtc.o
#        F:\PATH_EN\Code\STM32F746G-RadioYuN\Projects\STM32F746G-DISCO\RadioYuN\IAR\STM32F7-DISCO\Obj\stm32f7xx_hal_rtc_ex.o
#        F:\PATH_EN\Code\STM32F746G-RadioYuN\Projects\STM32F746G-DISCO\RadioYuN\IAR\STM32F7-DISCO\Obj\stm32f7xx_hal_sai.o
#        F:\PATH_EN\Code\STM32F746G-RadioYuN\Projects\STM32F746G-DISCO\RadioYuN\IAR\STM32F7-DISCO\Obj\stm32f7xx_hal_sai_ex.o
#        F:\PATH_EN\Code\STM32F746G-RadioYuN\Projects\STM32F746G-DISCO\RadioYuN\IAR\STM32F7-DISCO\Obj\stm32f7xx_hal_sd.o
#        F:\PATH_EN\Code\STM32F746G-RadioYuN\Projects\STM32F746G-DISCO\RadioYuN\IAR\STM32F7-DISCO\Obj\stm32f7xx_hal_sdram.o
#        F:\PATH_EN\Code\STM32F746G-RadioYuN\Projects\STM32F746G-DISCO\RadioYuN\IAR\STM32F7-DISCO\Obj\stm32f7xx_hal_smartcard.o
#        F:\PATH_EN\Code\STM32F746G-RadioYuN\Projects\STM32F746G-DISCO\RadioYuN\IAR\STM32F7-DISCO\Obj\stm32f7xx_hal_smartcard_ex.o
#        F:\PATH_EN\Code\STM32F746G-RadioYuN\Projects\STM32F746G-DISCO\RadioYuN\IAR\STM32F7-DISCO\Obj\stm32f7xx_hal_spdifrx.o
#        F:\PATH_EN\Code\STM32F746G-RadioYuN\Projects\STM32F746G-DISCO\RadioYuN\IAR\STM32F7-DISCO\Obj\stm32f7xx_hal_spi.o
#        F:\PATH_EN\Code\STM32F746G-RadioYuN\Projects\STM32F746G-DISCO\RadioYuN\IAR\STM32F7-DISCO\Obj\stm32f7xx_hal_sram.o
#        F:\PATH_EN\Code\STM32F746G-RadioYuN\Projects\STM32F746G-DISCO\RadioYuN\IAR\STM32F7-DISCO\Obj\stm32f7xx_hal_tim.o
#        F:\PATH_EN\Code\STM32F746G-RadioYuN\Projects\STM32F746G-DISCO\RadioYuN\IAR\STM32F7-DISCO\Obj\stm32f7xx_hal_tim_ex.o
#        F:\PATH_EN\Code\STM32F746G-RadioYuN\Projects\STM32F746G-DISCO\RadioYuN\IAR\STM32F7-DISCO\Obj\stm32f7xx_hal_uart.o
#        F:\PATH_EN\Code\STM32F746G-RadioYuN\Projects\STM32F746G-DISCO\RadioYuN\IAR\STM32F7-DISCO\Obj\stm32f7xx_hal_usart.o
#        F:\PATH_EN\Code\STM32F746G-RadioYuN\Projects\STM32F746G-DISCO\RadioYuN\IAR\STM32F7-DISCO\Obj\stm32f7xx_hal_wwdg.o
#        F:\PATH_EN\Code\STM32F746G-RadioYuN\Projects\STM32F746G-DISCO\RadioYuN\IAR\STM32F7-DISCO\Obj\stm32f7xx_it.o
#        F:\PATH_EN\Code\STM32F746G-RadioYuN\Projects\STM32F746G-DISCO\RadioYuN\IAR\STM32F7-DISCO\Obj\stm32f7xx_ll_fmc.o
#        F:\PATH_EN\Code\STM32F746G-RadioYuN\Projects\STM32F746G-DISCO\RadioYuN\IAR\STM32F7-DISCO\Obj\stm32f7xx_ll_sdmmc.o
#        F:\PATH_EN\Code\STM32F746G-RadioYuN\Projects\STM32F746G-DISCO\RadioYuN\IAR\STM32F7-DISCO\Obj\stm32f7xx_ll_usb.o
#        F:\PATH_EN\Code\STM32F746G-RadioYuN\Projects\STM32F746G-DISCO\RadioYuN\IAR\STM32F7-DISCO\Obj\sys.o
#        F:\PATH_EN\Code\STM32F746G-RadioYuN\Projects\STM32F746G-DISCO\RadioYuN\IAR\STM32F7-DISCO\Obj\sys_arch.o
#        F:\PATH_EN\Code\STM32F746G-RadioYuN\Projects\STM32F746G-DISCO\RadioYuN\IAR\STM32F7-DISCO\Obj\syscall.o
#        F:\PATH_EN\Code\STM32F746G-RadioYuN\Projects\STM32F746G-DISCO\RadioYuN\IAR\STM32F7-DISCO\Obj\system_stm32f7xx.o
#        F:\PATH_EN\Code\STM32F746G-RadioYuN\Projects\STM32F746G-DISCO\RadioYuN\IAR\STM32F7-DISCO\Obj\tasks.o
#        F:\PATH_EN\Code\STM32F746G-RadioYuN\Projects\STM32F746G-DISCO\RadioYuN\IAR\STM32F7-DISCO\Obj\tcp.o
#        F:\PATH_EN\Code\STM32F746G-RadioYuN\Projects\STM32F746G-DISCO\RadioYuN\IAR\STM32F7-DISCO\Obj\tcp_in.o
#        F:\PATH_EN\Code\STM32F746G-RadioYuN\Projects\STM32F746G-DISCO\RadioYuN\IAR\STM32F7-DISCO\Obj\tcp_out.o
#        F:\PATH_EN\Code\STM32F746G-RadioYuN\Projects\STM32F746G-DISCO\RadioYuN\IAR\STM32F7-DISCO\Obj\tcpip.o
#        F:\PATH_EN\Code\STM32F746G-RadioYuN\Projects\STM32F746G-DISCO\RadioYuN\IAR\STM32F7-DISCO\Obj\timers.o
#        F:\PATH_EN\Code\STM32F746G-RadioYuN\Projects\STM32F746G-DISCO\RadioYuN\IAR\STM32F7-DISCO\Obj\udp.o
#        F:\PATH_EN\Code\STM32F746G-RadioYuN\Projects\STM32F746G-DISCO\RadioYuN\IAR\STM32F7-DISCO\Obj\unicode.o
#        F:\PATH_EN\Code\STM32F746G-RadioYuN\Projects\STM32F746G-DISCO\RadioYuN\IAR\STM32F7-DISCO\Obj\usbh_conf.o
#        F:\PATH_EN\Code\STM32F746G-RadioYuN\Projects\STM32F746G-DISCO\RadioYuN\IAR\STM32F7-DISCO\Obj\usbh_core.o
#        F:\PATH_EN\Code\STM32F746G-RadioYuN\Projects\STM32F746G-DISCO\RadioYuN\IAR\STM32F7-DISCO\Obj\usbh_ctlreq.o
#        F:\PATH_EN\Code\STM32F746G-RadioYuN\Projects\STM32F746G-DISCO\RadioYuN\IAR\STM32F7-DISCO\Obj\usbh_diskio.o
#        F:\PATH_EN\Code\STM32F746G-RadioYuN\Projects\STM32F746G-DISCO\RadioYuN\IAR\STM32F7-DISCO\Obj\usbh_ioreq.o
#        F:\PATH_EN\Code\STM32F746G-RadioYuN\Projects\STM32F746G-DISCO\RadioYuN\IAR\STM32F7-DISCO\Obj\usbh_msc.o
#        F:\PATH_EN\Code\STM32F746G-RadioYuN\Projects\STM32F746G-DISCO\RadioYuN\IAR\STM32F7-DISCO\Obj\usbh_msc_bot.o
#        F:\PATH_EN\Code\STM32F746G-RadioYuN\Projects\STM32F746G-DISCO\RadioYuN\IAR\STM32F7-DISCO\Obj\usbh_msc_scsi.o
#        F:\PATH_EN\Code\STM32F746G-RadioYuN\Projects\STM32F746G-DISCO\RadioYuN\IAR\STM32F7-DISCO\Obj\usbh_pipes.o
#        F:\PATH_EN\Code\STM32F746G-RadioYuN\Projects\STM32F746G-DISCO\RadioYuN\IAR\STM32F7-DISCO\Obj\video_player_win.o
#        F:\PATH_EN\Code\STM32F746G-RadioYuN\Projects\STM32F746G-DISCO\RadioYuN\IAR\STM32F7-DISCO\Obj\vnc_app.o
#        F:\PATH_EN\Code\STM32F746G-RadioYuN\Projects\STM32F746G-DISCO\RadioYuN\IAR\STM32F7-DISCO\Obj\vnc_server_win.o
#        F:\PATH_EN\Code\STM32F746G-RadioYuN\Projects\STM32F746G-DISCO\RadioYuN\IAR\STM32F7-DISCO\Obj\wm8994.o
#        --redirect _Printf=_PrintfFull -o
#        F:\PATH_EN\Code\STM32F746G-RadioYuN\Projects\STM32F746G-DISCO\RadioYuN\IAR\STM32F7-DISCO\Exe\STM32F746G-RadioYuN.out
#        --map
#        F:\PATH_EN\Code\STM32F746G-RadioYuN\Projects\STM32F746G-DISCO\RadioYuN\IAR\STM32F7-DISCO\List\STM32F746G-RadioYuN.map
#        --config
#        F:\PATH_EN\Code\STM32F746G-RadioYuN\Projects\STM32F746G-DISCO\RadioYuN\IAR\stm32f746g.icf
#        --entry __iar_program_start --vfe
#
###############################################################################

*******************************************************************************
*** RUNTIME MODEL ATTRIBUTES
***

CppFlavor                     = *
__Heap_Handler                = DLMalloc
__SystemLibrary               = DLib
__dlib_dynamic_initialization = normal


*******************************************************************************
*** PLACEMENT SUMMARY
***

"A1":  place at 0x08000000 { ro section .intvec };
"P1":  place in [from 0x08000000 to 0x080fffff] { ro };
"P2":  place in [from 0x20010000 to 0x2004c000] { rw, block CSTACK, block HEAP };
"P3":  place in [from 0x90000000 to 0x9fffffff] { section ExtQSPIFlashSection };

  Section              Kind        Address      Size  Object
  -------              ----        -------      ----  ------
"A1":                                          0x1c8
  .intvec              ro code  0x08000000     0x1c8  startup_stm32f746xx.o [1]
                              - 0x080001c8     0x1c8

"P1":                                        0x93ac8
  .rodata              const    0x080001c8   0x1d73c  audio_player_win.o [1]
  .rodata              const    0x0801d904   0x1a820  ST_Fonts.o [3]
  .text                ro code  0x08038124    0x5f50  GUI_JPEG.o [4]
  .text                ro code  0x0803e074     0x106  GUI__memset.o [4]
  .text                ro code  0x0803e17a       0xa  WIDGET_Effect_None.o [4]
  .text                ro code  0x0803e184     0xa60  GUI_Alloc.o [4]
  .text                ro code  0x0803ebe4      0x32  GUI_ALLOC_AllocZero.o [4]
  .text                ro code  0x0803ec16       0xa  xsprout.o [5]
  .text                ro code  0x0803ec20      0x48  GUI_SetPixelIndex.o [4]
  .text                ro code  0x0803ec68      0x76  ABImemcpy_unaligned.o [9]
  .text                ro code  0x0803ecde       0x2  GUICC_888_Index2Color.o [4]
  .text                ro code  0x0803ece0      0x18  LCD_GetColorIndex.o [4]
  .text                ro code  0x0803ecf8    0x1de0  WM.o [4]
  .text                ro code  0x08040ad8     0x28c  LCD_GetEx.o [4]
  .text                ro code  0x08040d64     0x7b4  LCD.o [4]
  .text                ro code  0x08041518     0x1b4  GUI_Task.o [4]
  .text                ro code  0x080416cc       0x6  ABImemclr.o [9]
  .text                ro code  0x080416d2       0x2  GUICC_8888_Index2Color.o [4]
  .text                ro code  0x080416d4     0x210  GUI_Core.o [4]
  .text                ro code  0x080418e4      0x78  ABImemmove_unaligned.o [9]
  .text                ro code  0x0804195c      0x34  LCD_SetClipRectEx.o [4]
  .text                ro code  0x08041990      0x1c  GUI_MoveRect.o [4]
  .text                ro code  0x080419ac      0x40  GUI__IntersectRect.o [4]
  .text                ro code  0x080419ec      0x60  GUI__IntersectRects.o [4]
  .text                ro code  0x08041a4c      0x5e  GUI_MergeRect.o [4]
  .text                ro code  0x08041aac      0x14  GUI_WaitEvent.o [4]
  .text                ro code  0x08041ac0      0x1a  WM_GetFirstChild.o [4]
  .text                ro code  0x08041adc     0x344  GUIDEV.o [4]
  .text                ro code  0x08041e20      0x38  GUI_RectsIntersect.o [4]
  .text                ro code  0x08041e58      0x40  WM__SendMessage.o [4]
  .text                ro code  0x08041e98      0x90  WM_BringToBottom.o [4]
  .text                ro code  0x08041f28     0x1b0  WM_Timer.o [4]
  .text                ro code  0x080420d8      0x14  WM_NotifyParent.o [4]
  .text                ro code  0x080420ec      0xc8  GUI_SelectLayer.o [4]
  .text                ro code  0x080421b4      0x1e  WM_SendMessageNoPara.o [4]
  .text                ro code  0x080421d4      0x44  GUI_SetDefault.o [4]
  .text                ro code  0x08042218     0x124  GUIDEV_Banding.o [4]
  .text                ro code  0x0804233c      0x8c  GUI_OnKey.o [4]
  .text                ro code  0x080423c8      0xd4  GUI__ManageCache.o [4]
  .text                ro code  0x0804249c      0x1c  GUI_SaveContext.o [4]
  .text                ro code  0x080424b8      0x2c  GUI_SetColor.o [4]
  .text                ro code  0x080424e4      0xa0  WM_GetClientRect.o [4]
  .text                ro code  0x08042584      0x2c  WM_SendToParent.o [4]
  .text                ro code  0x080425b0     0x2cc  GUI_Device.o [4]
  .text                ro code  0x0804287c      0x50  WM_CriticalHandle.o [4]
  .text                ro code  0x080428cc     0x1a8  LCD_Color.o [4]
  .text                ro code  0x08042a74      0x58  GUI_X_OS.o [1]
  .text                ro code  0x08042acc      0x66  ABImemset.o [9]
  .text                ro code  0x08042b34      0x24  GUI_Goto.o [4]
  .text                ro code  0x08042b58      0x10  GUIConf.o [1]
  .text                ro code  0x08042b68     0x6f8  LCDConf.o [1]
  .text                ro code  0x08043260      0x18  WM_GetDesktopWindow.o [4]
  .text                ro code  0x08043278      0x44  GUI_SetOrg.o [4]
  .text                ro code  0x080432bc     0x204  GUIDEV_UsageBM.o [4]
  .text                ro code  0x080434c0      0x1e  GUI_SelectLCD.o [4]
  .text                ro code  0x080434e0      0x60  GUIDEV_Usage.o [4]
  .text                ro code  0x08043540      0x24  LCD_UpdateColorIndices.o [4]
  .text                ro code  0x08043564      0x18  GUI_SetDrawMode.o [4]
  .text                ro code  0x0804357c     0x76c  GUIDEV_WriteToActiveOpaque.o [4]
  .text                ro code  0x08043ce8      0x2a  WM__GetPrevSibling.o [4]
  .text                ro code  0x08043d12      0x1a  WM_GetParent.o [4]
  .text                ro code  0x08043d2c     0x358  GUI_Timer.o [4]
  .text                ro code  0x08044084      0x68  GUI_Time.o [4]
  .text                ro code  0x080440ec     0x188  LCD_Set.o [4]
  .text                ro code  0x08044274      0x3c  WM__SendMessageNoPara.o [4]
  .text                ro code  0x080442b0      0x34  GUI_Pen.o [4]
  .text                ro code  0x080442e4      0x24  GUI_SetTextAlign.o [4]
  .text                ro code  0x08044308      0x24  GUI_SetTextMode.o [4]
  .text                ro code  0x0804432c      0x24  GUI_SetFont.o [4]
  .text                ro code  0x08044350      0x20  GUI_SetLineStyle.o [4]
  .text                ro code  0x08044370      0x30  GUI_GetOrg.o [4]
  .text                ro code  0x080443a0      0x38  GUIDEV_GetYSize.o [4]
  .text                ro code  0x080443d8      0x3c  GUIDEV_ReduceYSize.o [4]
  .text                ro code  0x08044414      0x74  GUIDEV_SetOrg.o [4]
  .text                ro code  0x08044488      0x48  GUIDEV_Clear.o [4]
  .text                ro code  0x080444d0      0x40  WM_OnKey.o [4]
  .text                ro code  0x08044510      0x1c  LCD_GetNumDisplays.o [4]
  .text                ro code  0x0804452c     0x9c0  tasks.o [1]
  .text                ro code  0x08044eec     0x3ac  cmsis_os.o [1]
  .text                ro code  0x08045298     0x634  stm32f7xx_hal_rcc_ex.o [1]
  .text                ro code  0x080458cc     0x33a  stm32f7xx_hal_gpio.o [1]
  .text                ro code  0x08045c08     0x120  stm32f7xx_hal_cortex.o [1]
  .text                ro code  0x08045d28     0x110  GUI_MULTIBUF.o [4]
  .text                ro code  0x08045e38     0x500  stm32f7xx_hal_ltdc.o [1]
  .text                ro code  0x08046338      0x18  GUI_GetDrawMode.o [4]
  .text                ro code  0x08046350      0x44  LCD_SelectLCD.o [4]
  .text                ro code  0x08046394      0x2e  GUIDEV_GetDataPtr.o [4]
  .text                ro code  0x080463c4     0x28c  GUI__CompactPixelIndices.o [4]
  .text                ro code  0x08046650      0x14  WM__GetFirstSibling.o [4]
  .text                ro code  0x08046664      0x44  GUI_Exec.o [4]
  .text                ro code  0x080466a8     0x1d8  port.o [1]
  .text                ro code  0x08046880      0x8e  list.o [1]
  .text                ro code  0x08046910     0x358  timers.o [1]
  .text                ro code  0x08046c68      0x88  cpu_utils.o [1]
  .text                ro code  0x08046cf0     0x1b4  heap_4.o [1]
  .text                ro code  0x08046ea4      0x3a  ABImemset48.o [9]
  .text                ro code  0x08046ee0     0x724  queue.o [1]
  .text                ro code  0x08047604      0x5c  stm32f7xx_hal.o [1]
  CODE                 ro code  0x08047660      0xac  portasm.o [1]
  .text                ro code  0x0804770c       0x2  stm32f7xx_hal_msp_template.o [1]
  .text                ro code  0x08047710     0x528  stm32f7xx_hal_rcc.o [1]
  .rodata              const    0x08047c38    0x46a8  video_player_win.o [1]
  .text                ro code  0x0804c2e0    0x2288  audio_player_win.o [1]
  .text                ro code  0x0804e568     0x134  DIALOG.o [4]
  .text                ro code  0x0804e69c     0x480  WIDGET.o [4]
  .text                ro code  0x0804eb1c     0x104  GUI_DrawBitmap.o [4]
  .text                ro code  0x0804ec20     0x354  BUTTON.o [4]
  .text                ro code  0x0804ef74      0x38  FRAMEWIN_Default.o [4]
  .text                ro code  0x0804efac      0x28  GUI_DispStringAt.o [4]
  .text                ro code  0x0804efd4     0x310  GUIAA_Circle.o [4]
  .text                ro code  0x0804f2e4     0x554  audio_player_app.o [1]
  .text                ro code  0x0804f838      0x34  sprintf.o [5]
  .text                ro code  0x0804f86c      0x5a  TEXT_SetText.o [4]
  .text                ro code  0x0804f8c8     0x346  SLIDER.o [4]
  .text                ro code  0x0804fc0e      0x68  WM_Paint.o [4]
  .text                ro code  0x0804fc76      0x64  WM_GetDialogItem.o [4]
  .text                ro code  0x0804fcdc    0x1e44  ff.o [1]
  .text                ro code  0x08051b20      0x2c  strstr.o [5]
  .text                ro code  0x08051b4c      0x44  strcpy_unaligned.o [9]
  .text                ro code  0x08051b90      0x1c  strcat.o [5]
  .text                ro code  0x08051bac      0x6c  strncpy_unaligned.o [9]
  .text                ro code  0x08051c18    0x1688  LISTVIEW.o [4]
  .text                ro code  0x080532a0     0x1b2  LISTVIEW_SetItemColor.o [4]
  .text                ro code  0x08053452      0x24  LISTVIEW_SetSel.o [4]
  .text                ro code  0x08053478     0x340  k_storage.o [1]
  .text                ro code  0x080537b8      0x34  LISTVIEW_GetNumRows.o [4]
  .text                ro code  0x080537ec     0x13c  LISTVIEW_DeleteRow.o [4]
  .text                ro code  0x08053928      0xa2  LISTVIEW_SetItemText.o [4]
  .text                ro code  0x080539cc      0x38  GUI_DispStringHCenter.o [4]
  .text                ro code  0x08053a04      0x90  WM_EnableWindow.o [4]
  .text                ro code  0x08053a94     0x1f8  TEXT.o [4]
  .text                ro code  0x08053c8c      0x34  TEXT_SetTextColor.o [4]
  .text                ro code  0x08053cc0      0x34  TEXT_SetFont.o [4]
  .text                ro code  0x08053cf4      0x78  k_rtc.o [1]
  .text                ro code  0x08053d6c      0x7a  SLIDER_Color.o [4]
  .text                ro code  0x08053de8     0x148  STSLIDER_SKIN.o [3]
  .text                ro code  0x08053f30      0x32  WM_SetCallback.o [4]
  .text                ro code  0x08053f64      0x8c  GUI_2DLib.o [4]
  .text                ro code  0x08053ff0      0x58  GUI_FillRect.o [4]
  .text                ro code  0x08054048      0x34  WM_GetId.o [4]
  .text                ro code  0x0805407c      0x40  LISTVIEW_SetGridVis.o [4]
  .text                ro code  0x080540bc      0x90  LISTVIEW_SetAutoScroll.o [4]
  .text                ro code  0x0805414c      0x3c  LISTVIEW_SetBkColor.o [4]
  .text                ro code  0x08054188      0x3c  LISTVIEW_SetTextColor.o [4]
  .text                ro code  0x080541c4      0x3a  LISTVIEW_SetFont.o [4]
  .text                ro code  0x080541fe      0x48  LISTVIEW_SetRowHeight.o [4]
  .text                ro code  0x08054246      0x1a  WIDGET_SetEffect.o [4]
  .text                ro code  0x08054260      0x18  WM_GetClientWindow.o [4]
  .text                ro code  0x08054278     0x104  GUI_PID.o [4]
  .text                ro code  0x0805437c      0x2a  LISTVIEW_GetSel.o [4]
  .text                ro code  0x080543a8      0x7c  WM_MakeModal.o [4]
  .text                ro code  0x08054424    0x10e4  CHOOSEFILE.o [4]
  .text                ro code  0x08055508     0x334  stm32746g_discovery_qspi.o [1]
  .text                ro code  0x0805583c      0x3a  WM_Hide.o [4]
  .text                ro code  0x08055878    0x1034  ST_AnimatedIconView.o [3]
  .text                ro code  0x080568ac      0x8e  WM_Show.o [4]
  .text                ro code  0x0805693c      0x74  k_module.o [1]
  .text                ro code  0x080569b0      0x18  strrchr.o [5]
  .text                ro code  0x080569c8      0x20  WM_GetFocussedWindow.o [4]
  .text                ro code  0x080569e8      0x90  WM_SetFocusOnNextChild.o [4]
  .text                ro code  0x08056a78      0x8c  WM_GetWindowSize.o [4]
  .text                ro code  0x08056b04      0xea  WM__UpdateChildPositions.o [4]
  .text                ro code  0x08056bf0      0xbc  WM_SetFocus.o [4]
  .text                ro code  0x08056cac      0x80  WM_BringToTop.o [4]
  .text                ro code  0x08056d2c      0x1a  GUI__ReduceRect.o [4]
  .text                ro code  0x08056d46      0x1a  WM_SetScrollState.o [4]
  .text                ro code  0x08056d60      0x5c  GUI_DrawHLine.o [4]
  .text                ro code  0x08056dbc      0x58  GUI_DrawVLine.o [4]
  .text                ro code  0x08056e14      0x14  GUI_FillRectEx.o [4]
  .text                ro code  0x08056e28      0x14  WM__Screen2Client.o [4]
  .text                ro code  0x08056e3c      0x70  GUI__SetText.o [4]
  .text                ro code  0x08056eac     0x108  GUI_DispString.o [4]
  .text                ro code  0x08056fb4      0x1a  GUI__sqrt32.o [4]
  .text                ro code  0x08056fd0      0x2c  WM__GetOrg_AA.o [4]
  .text                ro code  0x08056ffc     0x388  GUIAA_Lib.o [4]
  .text                ro code  0x08057384     0x712  stm32746g_discovery_audio.o [1]
  .text                ro code  0x08057a98     0x724  flt.o [6]
  .text                ro code  0x080581bc     0x780  filter.o [7]
  .text                ro code  0x0805893c      0x34  audio_if.o [1]
  .text                ro code  0x08058970    0x1152  xprintffull.o [5]
  .text                ro code  0x08059ac2      0x20  WM_IsFocussable.o [4]
  .text                ro code  0x08059ae4      0x7c  WM_SetCapture.o [4]
  .text                ro code  0x08059b60      0x4c  syscall.o [1]
  .text                ro code  0x08059bac      0x78  diskio.o [1]
  .text                ro code  0x08059c24     0x514  unicode.o [1]
  .text                ro code  0x0805a138      0x16  strchr.o [9]
  .text                ro code  0x0805a14e      0x1c  LISTVIEW_DisableRow.o [4]
  .text                ro code  0x0805a16a      0x34  LISTVIEW_GetNumColumns.o [4]
  .text                ro code  0x0805a19e      0x80  WM_CheckScrollPos.o [4]
  .text                ro code  0x0805a220     0x98c  HEADER.o [4]
  .text                ro code  0x0805abac      0xa8  WM_GetInsideRectExScrollbar.o [4]
  .text                ro code  0x0805ac54      0x14  GUI_GetYSizeOfFont.o [4]
  .text                ro code  0x0805ac68      0x2a  LISTVIEW_GetWrapMode.o [4]
  .text                ro code  0x0805ac92      0x62  LISTVIEW_SetLBorder.o [4]
  .text                ro code  0x0805acf4      0x2a  LISTVIEW_SetRBorder.o [4]
  .text                ro code  0x0805ad20      0x20  WM_HasFocus.o [4]
  .text                ro code  0x0805ad40     0x274  GUI_ARRAY.o [4]
  .text                ro code  0x0805afb4      0xa0  WM_SetScrollbar.o [4]
  .text                ro code  0x0805b054     0x168  GUI_DispStringInRectWrap.o [4]
  .text                ro code  0x0805b1bc      0x14  GUI_ClearRectEx.o [4]
  .text                ro code  0x0805b1d0      0x96  WM_GetScrollbar.o [4]
  .text                ro code  0x0805b266      0x14  WM_GetScrollState.o [4]
  .text                ro code  0x0805b27a      0x28  HEADER_GetSel.o [4]
  .text                ro code  0x0805b2a4      0x16  GUI__strlen.o [4]
  .text                ro code  0x0805b2ba      0x64  GUI_ARRAY_DeleteItem.o [4]
  .text                ro code  0x0805b320      0x44  ff_gen_drv.o [1]
  .text                ro code  0x0805b364     0x46c  usbh_core.o [1]
  .text                ro code  0x0805b7d0       0x6  ABImemclr4.o [9]
  .text                ro code  0x0805b7d8      0x36  strlen.o [9]
  .text                ro code  0x0805b80e      0x28  LISTVIEW_GetHeader.o [4]
  .text                ro code  0x0805b836      0x6a  GUI_ARRAY_ResizeItem.o [4]
  .text                ro code  0x0805b8a0      0xb2  WM_SetTrans.o [4]
  .text                ro code  0x0805b954      0xd4  stm32f7xx_hal_rtc.o [1]
  .text                ro code  0x0805ba28      0x14  stm32f7xx_hal_rtc_ex.o [1]
  .text                ro code  0x0805ba3c      0x14  GUI_DrawRectEx.o [4]
  .text                ro code  0x0805ba50     0x4fc  WM_Touch.o [4]
  .text                ro code  0x0805bf4c      0x20  LISTVIEW_DeleteAllRows.o [4]
  .text                ro code  0x0805bf6c      0x42  strcmp_unaligned.o [9]
  .text                ro code  0x0805bfae      0x86  LISTVIEW_UserData.o [4]
  .text                ro code  0x0805c034     0xb28  FRAMEWIN.o [4]
  .text                ro code  0x0805cb5c     0x554  LISTVIEW_SetSort.o [4]
  .text                ro code  0x0805d0b0      0x86  LISTVIEW_GetItemText.o [4]
  .text                ro code  0x0805d138     0x76c  DROPDOWN.o [4]
  .text                ro code  0x0805d8a4      0x48  DROPDOWN_DeleteItem.o [4]
  .text                ro code  0x0805d8ec      0x8a  DROPDOWN_InsertString.o [4]
  .text                ro code  0x0805d976      0x7e  BUTTON_Get.o [4]
  .text                ro code  0x0805d9f4      0x14  GUI_GetStringDistX.o [4]
  .text                ro code  0x0805da08      0x42  BUTTON_GetBitmap.o [4]
  .text                ro code  0x0805da4a      0x54  WM_SetSize.o [4]
  .text                ro code  0x0805daa0      0x42  WM_GetOrg.o [4]
  .text                ro code  0x0805dae4     0x188  WM_Move.o [4]
  .text                ro code  0x0805dc6c      0x1e  WM_SetWindowPos.o [4]
  .text                ro code  0x0805dc8c      0x30  SCROLLBAR_Defaults.o [4]
  .text                ro code  0x0805dcbc      0x32  LISTVIEW_SetColumnWidth.o [4]
  .text                ro code  0x0805dcf0      0xa0  WM_ToolTip.o [4]
  .text                ro code  0x0805dd90      0x28  WM_GetCallback.o [4]
  .text                ro code  0x0805ddb8      0x20  DROPDOWN_Default.o [4]
  .text                ro code  0x0805ddd8      0x36  BUTTON_Color.o [4]
  .text                ro code  0x0805de0e      0x22  BUTTON_Bitmap.o [4]
  .text                ro code  0x0805de30      0x40  DROPDOWN_AddString.o [4]
  .text                ro code  0x0805de70     0x68e  stm32f7xx_hal_qspi.o [1]
  .text                ro code  0x0805e4fe      0x1c  BUTTON_Create.o [4]
  .text                ro code  0x0805e51a      0x16  WM__IsEnabled.o [4]
  .text                ro code  0x0805e530      0x30  GUI_GetColor.o [4]
  .text                ro code  0x0805e560      0x18  GUI_GetFont.o [4]
  .text                ro code  0x0805e578      0x28  WM__GetFocussedChild.o [4]
  .text                ro code  0x0805e5a0      0xfc  WM_ResizeWindow.o [4]
  .text                ro code  0x0805e69c      0x18  WM_IsWindow.o [4]
  .text                ro code  0x0805e6b4      0x1e  WM_ForEachDesc.o [4]
  .text                ro code  0x0805e6d4      0x70  GUI__strcmp.o [4]
  .text                ro code  0x0805e744      0xf4  GUI_Char.o [4]
  .text                ro code  0x0805e838     0x1dc  GUI_CharLine.o [4]
  .text                ro code  0x0805ea14      0x50  GUI_UC.o [4]
  .text                ro code  0x0805ea64      0xf0  LCD_AA.o [4]
  .text                ro code  0x0805eb54     0x42e  stm32f7xx_hal_sai.o [1]
  .text                ro code  0x0805ef84     0x254  main.o [1]
  .text                ro code  0x0805f1d8     0x514  audio_recorder_app.o [1]
  .text                ro code  0x0805f6ec     0xfa8  stm32f7xx_hal_dma.o [1]
  .text                ro code  0x08060694      0x20  xmbtowc.o [5]
  .text                ro code  0x080606b4      0x58  memchr.o [9]
  .text                ro code  0x0806070c       0xa  xmbcurmax.o [5]
  .text                ro code  0x08060718    0x14f0  dlmalloc.o [5]
  .text                ro code  0x08061c08      0x1a  xwctomb.o [5]
  .text                ro code  0x08061c24      0xee  I64DivMod.o [9]
  .text                ro code  0x08061d12      0x42  xdnorm.o [8]
  .text                ro code  0x08061d54      0x2e  DblCmpLe.o [8]
  .text                ro code  0x08061d84      0x2e  DblCmpGe.o [8]
  .text                ro code  0x08061db4     0x114  xdscale.o [8]
  .text                ro code  0x08061ec8      0x58  DblToI32.o [8]
  .text                ro code  0x08061f20      0x30  I32ToDbl.o [8]
  .text                ro code  0x08061f50     0x180  DblSub.o [8]
  .text                ro code  0x080620d0     0x1a2  DblMul.o [8]
  .text                ro code  0x08062274     0x256  DblDiv.o [8]
  .text                ro code  0x080624cc      0x6c  localeconv.o [5]
  .text                ro code  0x08062538       0xe  div.o [5]
  .text                ro code  0x08062548     0x17c  GUI_Curs1.o [4]
  .text                ro code  0x080626c4      0x34  WM_GetInsideRect.o [4]
  .text                ro code  0x080626f8      0x30  WM_GetWindowRect.o [4]
  .text                ro code  0x08062728      0x20  WM_GetFlags.o [4]
  .text                ro code  0x08062748      0x46  GUI_ALLOC_AllocInit.o [4]
  .text                ro code  0x0806278e      0x5e  GUI_Realloc.o [4]
  .text                ro code  0x080627ec      0x36  SCROLLBAR_Create.o [4]
  .text                ro code  0x08062824     0x14c  GUI__Wrap.o [4]
  .text                ro code  0x08062970      0x24  WM_SetUserClipRect.o [4]
  .text                ro code  0x08062994     0x25c  usbh_conf.o [1]
  .text                ro code  0x08062bf0      0x70  usbh_pipes.o [1]
  .text                ro code  0x08062c60     0x41c  usbh_ctlreq.o [1]
  .text                ro code  0x0806307c      0x3c  WM_ValidateWindow.o [4]
  .text                ro code  0x080630b8      0x5c  WM__IsAncestor.o [4]
  .text                ro code  0x08063114      0x20  WM__SendMessageIfEnabled.o [4]
  .text                ro code  0x08063134      0xb8  WM_Screen2Win.o [4]
  .text                ro code  0x080631ec      0x18  WM_PID__GetPrevState.o [4]
  .text                ro code  0x08063204      0x64  WM_SetFocusOnPrevChild.o [4]
  .text                ro code  0x08063268      0x1a  WM_GetNextSibling.o [4]
  .text                ro code  0x08063282      0x64  WM_MoveChildTo.o [4]
  .text                ro code  0x080632e8      0x98  WM_SetCaptureMove.o [4]
  .text                ro code  0x08063380      0x28  WM_MemDev.o [4]
  .text                ro code  0x080633a8      0x80  WM_UserData.o [4]
  .text                ro code  0x08063428    0x13c4  LISTBOX.o [4]
  .text                ro code  0x080647ec      0x26  LISTBOX_Create.o [4]
  .text                ro code  0x08064812      0x40  LISTBOX_SetScrollbarWidth.o [4]
  .text                ro code  0x08064852      0x58  LISTBOX_SetAutoScroll.o [4]
  .text                ro code  0x080648aa      0xba  LISTBOX_AddStringH.o [4]
  .text                ro code  0x08064964      0x36  LISTBOX_SetBkColor.o [4]
  .text                ro code  0x0806499a      0x3e  LISTBOX_SetTextColor.o [4]
  .text                ro code  0x080649d8      0x44  LISTBOX_SetScrollbarColor.o [4]
  .text                ro code  0x08064a1c      0x68  LISTBOX_ItemDisabled.o [4]
  .text                ro code  0x08064a84      0x32  LISTBOX_ItemSpacing.o [4]
  .text                ro code  0x08064ab6      0x38  LISTBOX_Font.o [4]
  .text                ro code  0x08064aee      0x2e  LISTBOX_SetTextAlign.o [4]
  .text                ro code  0x08064b1c      0x2e  LISTBOX_SetOwner.o [4]
  .text                ro code  0x08064b4a      0x2c  DROPDOWN_GetNumItems.o [4]
  .text                ro code  0x08064b76      0x98  LISTBOX_DeleteItem.o [4]
  .text                ro code  0x08064c0e      0xc0  GUI_ARRAY_InsertItem.o [4]
  .text                ro code  0x08064cce      0x9a  LISTBOX_InsertString.o [4]
  .text                ro code  0x08064d68      0x1c  GUI__GetNumChars.o [4]
  .text                ro code  0x08064d84      0xb8  GUI_DRAW_BITMAP.o [4]
  .text                ro code  0x08064e3c      0x42  BUTTON__SetBitmapObj.o [4]
  .text                ro code  0x08064e7e      0x26  WM__IsChild.o [4]
  .text                ro code  0x08064ea4      0x2c  WM__ForEachDesc.o [4]
  .text                ro code  0x08064ed0      0x12  LCD_GetPixelColor.o [4]
  .text                ro code  0x08064ee4      0x58  stm32f7xx_hal_sai_ex.o [1]
  .text                ro code  0x08064f3c      0x74  stm32f7xx_hal_pwr_ex.o [1]
  .text                ro code  0x08064fb0      0xf0  k_bsp.o [1]
  .text                ro code  0x080650a0      0x1c  WM_MULTIBUF.o [4]
  .text                ro code  0x080650bc     0x460  k_menu.o [1]
  .text                ro code  0x0806551c      0xc4  k_startup.o [1]
  .text                ro code  0x080655e0     0xb10  audio_recorder_win.o [1]
  .text                ro code  0x080660f0      0x14  setlocale.o [5]
  .text                ro code  0x08066104      0x60  xencoding_sb.o [5]
  .text                ro code  0x08066164       0x6  abort.o [5]
  .text                ro code  0x0806616c      0x2c  xgetmemchunk.o [5]
  .text                ro code  0x08066198       0x2  I64DivZer.o [9]
  .text                ro code  0x0806619c      0xd4  DblAdd.o [8]
  .text                ro code  0x08066270       0x2  xtls.o [5]
  .text                ro code  0x08066274    0x1f8c  GUI_SPRITE.o [4]
  .text                ro code  0x08068200     0x696  SCROLLBAR.o [4]
  .text                ro code  0x08068898     0x702  stm32f7xx_hal_hcd.o [1]
  .text                ro code  0x08068f9a      0x8c  usbh_ioreq.o [1]
  .text                ro code  0x08069028      0x14  WM_GetDesktopWindowEx.o [4]
  .text                ro code  0x0806903c      0x1a  WM__GetLastSibling.o [4]
  .text                ro code  0x08069058      0x20  WM_HasCaptured.o [4]
  .text                ro code  0x08069078      0x26  SCROLLBAR_SetWidth.o [4]
  .text                ro code  0x0806909e      0x40  SCROLLBAR_SetColor.o [4]
  .text                ro code  0x080690e0     0x1a4  GUI_DispStringInRect.o [4]
  .text                ro code  0x08069284      0xb8  GUI_DrawFocusRect.o [4]
  .text                ro code  0x0806933c      0x60  LCD_GetP.o [4]
  .text                ro code  0x0806939c     0x288  stm32746g_discovery_sdram.o [1]
  .text                ro code  0x08069624     0x1d0  stm32746g_discovery_ts.o [1]
  .text                ro code  0x080697f4      0x2c  GUI_TOUCH.o [4]
  .text                ro code  0x08069820     0x224  GUIAA_FillRoundedRect.o [4]
  .text                ro code  0x08069a44      0xd0  BUTTON_Skin.o [4]
  .text                ro code  0x08069b14      0xb0  DROPDOWN_Skin.o [4]
  .text                ro code  0x08069bc4       0xc  WINDOW_Default.o [4]
  .text                ro code  0x08069bd0      0x24  LISTVIEW_Default.o [4]
  .text                ro code  0x08069bf4     0x298  STSCROLLBAR_Skin.o [3]
  .text                ro code  0x08069e8c      0x24  HEADER_Default.o [4]
  .text                ro code  0x08069eb0     0x33c  STHEADER_Skin.o [3]
  .text                ro code  0x0806a1ec      0x10  TEXT_Default.o [4]
  .text                ro code  0x0806a1fc      0xac  GUI_DispChar.o [4]
  .text                ro code  0x0806a2a8     0x1ec  IMAGE_GIF.o [4]
  .text                ro code  0x0806a494      0xaa  stm32f7xx_hal_rng.o [1]
  .text                ro code  0x0806a540      0x98  IMAGE_Bitmap.o [4]
  .text                ro code  0x0806a5d8       0xc  XXexit.o [9]
  .text                ro code  0x0806a5e4      0xb6  GUI_GetBitmapPixelIndex.o [4]
  .text                ro code  0x0806a69c     0x3e8  GUI__Alpha.o [4]
  .text                ro code  0x0806aa84      0x18  GUI__DivideRound32.o [4]
  .text                ro code  0x0806aa9c      0x2c  WM_GetScrollPartner.o [4]
  .text                ro code  0x0806aac8     0x626  stm32f7xx_ll_usb.o [1]
  .text                ro code  0x0806b0ee      0x3e  WIDGET_SetWidth.o [4]
  .text                ro code  0x0806b12c       0xa  GUI_GetClientRect.o [4]
  .text                ro code  0x0806b136      0x16  GUI__HandleEOLine.o [4]
  .text                ro code  0x0806b14c      0x98  stm32f7xx_hal_sdram.o [1]
  .text                ro code  0x0806b1e4     0x278  ft5336.o [1]
  .text                ro code  0x0806b45c      0x62  memcmp_unaligned.o [9]
  .text                ro code  0x0806b4be      0x78  GUI_DRAW.o [4]
  .text                ro code  0x0806b536      0x14  GUI_GetFontSizeY.o [4]
  .text                ro code  0x0806b54c    0x1144  GUI_GIF.o [4]
  .text                ro code  0x0806c690     0x520  IMAGE.o [4]
  .text                ro code  0x0806cbb0     0x242  LCD_ReadRect.o [4]
  .text                ro code  0x0806cdf4     0x242  GUI__ExpandPixelIndices.o [4]
  .text                ro code  0x0806d036      0x4e  WM_SetXSize.o [4]
  .text                ro code  0x0806d084      0x50  WM_SetYSize.o [4]
  .text                ro code  0x0806d0d4     0x14c  stm32f7xx_ll_fmc.o [1]
  .text                ro code  0x0806d220     0x24c  stm32746g_discovery.o [1]
  .text                ro code  0x0806d46c      0x14  GUI__GetFontSizeY.o [4]
  .text                ro code  0x0806d480      0x30  GUI__Read.o [4]
  .text                ro code  0x0806d4b0      0x68  GUIDEV_GetPos.o [4]
  .text                ro code  0x0806d518      0xe8  GUIDEV_Write.o [4]
  .text                ro code  0x0806d600      0x3c  GUIDEV_CreateFixed.o [4]
  .text                ro code  0x0806d63c     0x53c  stm32f7xx_hal_i2c.o [1]
  .text                ro code  0x0806db78    0x1f24  GUIVNC_Process.o [4]
  .text                ro code  0x0806fa9c      0xb4  GUICC_8666.o [4]
  .text                ro code  0x0806fb50      0x2c  GUI_MOUSE.o [4]
  .rodata              const    0x0806fb7c    0x1a68  F16_HK.o [4]
  .text                ro code  0x080715e4    0x17f4  video_player_win.o [1]
  .text                ro code  0x08072dd8     0x5dc  GUI_MOVIE.o [4]
  .text                ro code  0x080733b4     0x4f8  GUI_DrawLine.o [4]
  .text                ro code  0x080738ac      0x50  LISTVIEW_SetTextAlign.o [4]
  .text                ro code  0x080738fc     0x638  vnc_server_win.o [1]
  .text                ro code  0x08073f34     0x4dc  GUI_JPEG_DrawScaled.o [4]
  .text                ro code  0x08074410     0x26c  GUI_FillPolygon.o [4]
  .text                ro code  0x0807467c      0x20  GUI_DrawPoint.o [4]
  .text                ro code  0x0807469c     0x3cc  vnc_app.o [1]
  .text                ro code  0x08074a68     0x254  GUI_Circ.o [4]
  .text                ro code  0x08074cbc     0x684  sockets.o [1]
  .text                ro code  0x08075340      0x26  def.o [1]
  .text                ro code  0x08075368     0x112  netif.o [1]
  .text                ro code  0x0807547c     0x164  tcpip.o [1]
  .text                ro code  0x080755e0     0xb2a  dhcp.o [1]
  .text                ro code  0x0807610c      0xc0  GUIVNC_Authentication.o [4]
  .text                ro code  0x080761cc     0x388  api_lib.o [1]
  .text                ro code  0x08076554     0x34c  pbuf.o [1]
  .text                ro code  0x080768a0      0x72  netbuf.o [1]
  .text                ro code  0x08076914     0x1a8  sys_arch.o [1]
  .text                ro code  0x08076abc     0x944  tcp.o [1]
  .text                ro code  0x08077400     0x688  etharp.o [1]
  .text                ro code  0x08077a88     0x1ac  lwip_timers.o [1]
  .text                ro code  0x08077c34     0x224  ip.o [1]
  .text                ro code  0x08077e58      0xa0  memp.o [1]
  .text                ro code  0x08077ef8      0x26  init.o [1]
  .text                ro code  0x08077f20     0x250  mem.o [1]
  .text                ro code  0x08078170     0x37e  udp.o [1]
  .text                ro code  0x080784f0      0x20  srand.o [5]
  .text                ro code  0x08078510      0xe0  rand.o [5]
  .text                ro code  0x080785f0     0xd3c  GUIVNC_DES.o [4]
  .text                ro code  0x0807932c     0x9bc  api_msg.o [1]
  .text                ro code  0x08079ce8     0x9da  tcp_out.o [1]
  .text                ro code  0x0807a6c4      0x34  ip_addr.o [1]
  .text                ro code  0x0807a6f8     0x168  raw.o [1]
  .text                ro code  0x0807a860     0xb8c  tcp_in.o [1]
  .text                ro code  0x0807b3ec     0x16c  icmp.o [1]
  .text                ro code  0x0807b558      0xbe  inet_chksum.o [1]
  .rodata              const    0x0807b618    0x1398  F24_1.o [4]
  .rodata              const    0x0807c9b0    0x1294  F24_ASCII.o [4]
  .rodata              const    0x0807dc44     0xfd0  F20_ASCII.o [4]
  .text                ro code  0x0807ec14     0xf58  GUIDRV_Lin_16.o [4]
  .text                ro code  0x0807fb6c     0xf34  games_win.o [1]
  .text                ro code  0x08080aa0      0x36  FRAMEWIN_SetColors.o [4]
  .text                ro code  0x08080ad6      0x70  FRAMEWIN_SetFont.o [4]
  .text                ro code  0x08080b48     0x248  WINDOW.o [4]
  .text                ro code  0x08080d90      0xe2  FRAMEWIN__UpdateButtons.o [4]
  .text                ro code  0x08080e74     0xcc4  home_alarm_win.o [1]
  .text                ro code  0x08081b38     0xcb8  GUIDRV_Lin_32.o [4]
  .rodata              const    0x080827f0     0xb40  F16_1.o [4]
  .rodata              const    0x08083330     0xae0  F16B_1.o [4]
  .rodata              const    0x08083e10     0xaa0  F16_ASCII.o [4]
  .rodata              const    0x080848b0     0xa88  F16B_ASCII.o [4]
  .text                ro code  0x08085338     0xa04  GUIDEV_32.o [4]
  .text                ro code  0x08085d3c     0x9d8  GUIDEV_16.o [4]
  .text                ro code  0x08086714      0x58  GUI__memset16.o [4]
  .rodata              const    0x0808676c     0x9c0  F13B_ASCII.o [4]
  .rodata              const    0x0808712c     0x9c0  F13B_1.o [4]
  .rodata              const    0x08087aec     0x984  F13_1.o [4]
  .rodata              const    0x08088470     0x93c  F13_ASCII.o [4]
  .rodata              const    0x08088dac     0x7d8  F10_1.o [4]
  .rodata              const    0x08089584     0x7a0  F10_ASCII.o [4]
  .text                ro code  0x08089d24     0x76a  wm8994.o [1]
  .rodata              const    0x0808a490     0x764  audio_recorder_win.o [1]
  .rodata              const    0x0808abf4     0x718  F6x8.o [4]
  .text                ro code  0x0808b30c     0x6f6  stm32f7xx_hal_eth.o [1]
  .text                ro code  0x0808ba04     0x378  ethernetif.o [1]
  .rodata              const    0x0808bd7c     0x638  F08_1.o [4]
  .rodata              const    0x0808c3b4     0x5fc  F08_ASCII.o [4]
  .text                ro code  0x0808c9b0     0x52e  usbh_msc.o [1]
  .text                ro code  0x0808cee0     0x22e  usbh_msc_bot.o [1]
  .text                ro code  0x0808d10e     0x2a0  usbh_msc_scsi.o [1]
  .constdata           const    0x0808d3b0     0x4e8  filter.o [7]
  .text                ro code  0x0808d898     0x4b4  settings_win.o [1]
  .text                ro code  0x0808dd4c     0x420  GUIAA_DrawRoundedRect.o [4]
  .text                ro code  0x0808e16c     0x460  GUI__DrawTwinArc.o [4]
  .rodata              const    0x0808e5cc     0x440  settings_win.o [1]
  .text                ro code  0x0808ea0c     0x43c  SLIDER_SkinFlex.o [4]
  .text                ro code  0x0808ee48     0x314  GUI_DrawGradient.o [4]
  .text                ro code  0x0808f15c     0x420  SCROLLBAR_SkinFlex.o [4]
  .text                ro code  0x0808f57c      0x58  GUI_DrawPixel.o [4]
  .text                ro code  0x0808f5d4     0x414  gardening_control_win.o [1]
  .rodata              const    0x0808f9e8     0x3f4  vnc_server_win.o [1]
  .text                ro code  0x0808fddc     0x3f4  GUI_DrawBitmap_8888.o [4]
  .text                ro code  0x080901d0      0x68  GUI__SetPixelAlpha.o [4]
  .text                ro code  0x08090238      0x24  GUI_SetColorIndex.o [4]
  .text                ro code  0x0809025c     0x39c  FRAMEWIN_SkinFlex.o [4]
  .text                ro code  0x080905f8      0x30  FRAMEWIN_Get.o [4]
  .text                ro code  0x08090628     0x2dc  HEADER_SkinFlex.o [4]
  .text                ro code  0x08090904     0x2a8  BUTTON_SkinFlex.o [4]
  .text                ro code  0x08090bac     0x294  DROPDOWN_SkinFlex.o [4]
  .text                ro code  0x08090e40     0x268  SCROLLBAR_Skin.o [4]
  .text                ro code  0x080910a8     0x258  LCD_NextPixelAPI.o [4]
  .text                ro code  0x08091300     0x20c  SLIDER_Skin.o [4]
  .text                ro code  0x0809150c     0x1c2  lz77_init.o [9]
  .text                ro code  0x080916d0     0x18a  GUI_CharM.o [4]
  .text                ro code  0x0809185c     0x180  GUI_DrawBitmap_24.o [4]
  .text                ro code  0x080919dc     0x178  GUIDEV_WriteToActiveAlpha.o [4]
  .text                ro code  0x08091b54     0x170  GUIDEV_StaticDevices.o [4]
  .text                ro code  0x08091cc4      0x24  GUI_SetAlpha.o [4]
  .text                ro code  0x08091ce8     0x164  usbh_diskio.o [1]
  .text                ro code  0x08091e4c     0x164  FRAMEWIN_Skin.o [4]
  .text                ro code  0x08091fb0     0x13e  GUI_CharP.o [4]
  .text                ro code  0x080920f0     0x13c  HEADER_Skin.o [4]
  .text                ro code  0x0809222c     0x130  GUIAA_Char4.o [4]
  .text                ro code  0x0809235c     0x128  GUI_EncExt.o [4]
  .text                ro code  0x08092484      0xc4  GUI_CharPExt.o [4]
  .text                ro code  0x08092548     0x118  GUICC_M1555I.o [4]
  .rodata              const    0x08092660     0x110  CHOOSEFILE.o [4]
  .rodata              const    0x08092770     0x100  LCD_Mirror.o [4]
  .rodata              const    0x08092870     0x100  GUI__DivTbl_255_31.o [4]
  .text                ro code  0x08092970      0xd4  WIDGET_Effect_Simple.o [4]
  .text                ro code  0x08092a44      0xd0  GUICC_M8888I.o [4]
  .text                ro code  0x08092b14      0xc8  GUICC_0.o [4]
  .text                ro code  0x08092bdc      0x3e  GUI_CalcColorDist.o [4]
  .text                ro code  0x08092c1c      0xac  GUIAA_Char4Ext.o [4]
  .rodata              const    0x08092cc8      0x80  gardening_control_win.o [1]
  .constdata           const    0x08092d48      0x7c  flt.o [6]
  .rodata              const    0x08092dc4      0x74  home_alarm_win.o [1]
  .rodata              const    0x08092e38      0x6c  games_win.o [1]
  .text                ro code  0x08092ea4      0x68  stm32f7xx_it.o [1]
  .rodata              const    0x08092f0c      0x58  GUI_CursorHeaderMPx.o [4]
  .text                ro code  0x08092f64      0x50  system_stm32f7xx.o [1]
  .text                ro code  0x08092fb4      0x44  BUTTON_CreateIndirect.o [4]
  .text                ro code  0x08092ff8      0x40  FRAMEWIN_CreateIndirect.o [4]
  .text                ro code  0x08093038      0x40  zero_init3.o [9]
  .rodata              const    0x08093078      0x3c  F16_1HK.o [4]
  .text                ro code  0x080930b4      0x3c  TEXT_CreateIndirect.o [4]
  .text                ro code  0x080930f0      0x38  LISTVIEW_CreateIndirect.o [4]
  .text                ro code  0x08093128      0x38  DROPDOWN_CreateIndirect.o [4]
  .rodata              const    0x08093160      0x34  GUIDRV_Lin_16.o [4]
  .rodata              const    0x08093194      0x34  GUIDRV_Lin_32.o [4]
  .text                ro code  0x080931c8      0x28  GUICC_8888.o [4]
  .text                ro code  0x080931f0      0x28  data_init.o [9]
  .text                ro code  0x08093218      0x24  GUI_UC_EncodeNone.o [4]
  .text                ro code  0x0809323c      0x22  fpinit_M.o [8]
  .iar.init_table      const    0x08093260      0x3c  - Linker created -
  .rodata              const    0x0809329c      0x20  GUI__DivTbl_31_255.o [4]
  .rodata              const    0x080932bc      0x20  GUI_CursorHeaderM.o [4]
  .rodata              const    0x080932dc      0x1c  vnc_app.o [1]
  .rodata              const    0x080932f8      0x1c  vnc_app.o [1]
  .rodata              const    0x08093314      0x1c  vnc_app.o [1]
  .rodata              const    0x08093330      0x1c  vnc_app.o [1]
  .rodata              const    0x0809334c      0x1c  WIDGET_Effect_None.o [4]
  .rodata              const    0x08093368      0x1c  WIDGET_Effect_Simple.o [4]
  .text                ro code  0x08093384      0x1a  cmain.o [9]
  .text                ro code  0x0809339e       0x4  low_level_init.o [5]
  .text                ro code  0x080933a2       0x4  exit.o [5]
  .text                ro code  0x080933a8       0xa  cexit.o [9]
  .rodata              const    0x080933b4      0x18  vnc_app.o [1]
  .rodata              const    0x080933cc      0x18  GUICC_M1555I.o [4]
  .rodata              const    0x080933e4      0x18  GUICC_M8888I.o [4]
  .rodata              const    0x080933fc      0x18  GUICC_8888.o [4]
  .rodata              const    0x08093414      0x18  GUICC_0.o [4]
  .rodata              const    0x0809342c      0x18  GUI_CursorPal.o [4]
  .rodata              const    0x08093444      0x14  usbh_diskio.o [1]
  .rodata              const    0x08093458      0x14  vnc_app.o [1]
  .rodata              const    0x0809346c      0x14  vnc_app.o [1]
  .rodata              const    0x08093480      0x14  vnc_app.o [1]
  .rodata              const    0x08093494      0x10  audio_player_app.o [1]
  .rodata              const    0x080934a4      0x10  audio_recorder_app.o [1]
  .rodata              const    0x080934b4      0x10  k_storage.o [1]
  .rodata              const    0x080934c4      0x10  GUI_DrawBitmap_24.o [4]
  .rodata              const    0x080934d4      0x10  GUI_DrawBitmap_8888.o [4]
  .rodata              const    0x080934e4      0x10  GUIVNC_Process.o [4]
  .text                ro code  0x080934f4      0x10  startup_stm32f746xx.o [1]
  .rodata              const    0x08093504       0xc  main.o [1]
  .rodata              const    0x08093510       0xc  usbh_core.o [1]
  .rodata              const    0x0809351c       0xc  LCD.o [4]
  .rodata              const    0x08093528       0xc  GUI_EncExt.o [4]
  .text                ro code  0x08093534       0xc  cstartup_M.o [9]
  .rodata              const    0x08093540       0x8  ethernetif.o [1]
  .rodata              const    0x08093548       0x8  ip_addr.o [1]
  .rodata              const    0x08093550       0x8  vnc_app.o [1]
  .rodata              const    0x08093558       0x8  GUI_MULTIBUF.o [4]
  .rodata              const    0x08093560       0x4  usbh_msc.o [1]
  .rodata              const    0x08093564       0x4  vnc_app.o [1]
  .text                ro code  0x08093568       0x4  startup_stm32f746xx.o [1]
  .text                ro code  0x0809356c       0x4  startup_stm32f746xx.o [1]
  .text                ro code  0x08093570       0x4  startup_stm32f746xx.o [1]
  .text                ro code  0x08093574       0x4  startup_stm32f746xx.o [1]
  .text                ro code  0x08093578       0x4  startup_stm32f746xx.o [1]
  .text                ro code  0x0809357c       0x4  startup_stm32f746xx.o [1]
  .text                ro code  0x08093580       0x4  startup_stm32f746xx.o [1]
  .text                ro code  0x08093584       0x4  startup_stm32f746xx.o [1]
  .text                ro code  0x08093588       0x4  startup_stm32f746xx.o [1]
  .text                ro code  0x0809358c       0x4  startup_stm32f746xx.o [1]
  .text                ro code  0x08093590       0x4  startup_stm32f746xx.o [1]
  .text                ro code  0x08093594       0x4  startup_stm32f746xx.o [1]
  .text                ro code  0x08093598       0x4  startup_stm32f746xx.o [1]
  .text                ro code  0x0809359c       0x4  startup_stm32f746xx.o [1]
  .text                ro code  0x080935a0       0x4  startup_stm32f746xx.o [1]
  .text                ro code  0x080935a4       0x4  startup_stm32f746xx.o [1]
  .text                ro code  0x080935a8       0x4  startup_stm32f746xx.o [1]
  .text                ro code  0x080935ac       0x4  startup_stm32f746xx.o [1]
  .text                ro code  0x080935b0       0x4  startup_stm32f746xx.o [1]
  .text                ro code  0x080935b4       0x4  startup_stm32f746xx.o [1]
  .text                ro code  0x080935b8       0x4  startup_stm32f746xx.o [1]
  .text                ro code  0x080935bc       0x4  startup_stm32f746xx.o [1]
  .text                ro code  0x080935c0       0x4  startup_stm32f746xx.o [1]
  .text                ro code  0x080935c4       0x4  startup_stm32f746xx.o [1]
  .text                ro code  0x080935c8       0x4  startup_stm32f746xx.o [1]
  .text                ro code  0x080935cc       0x4  startup_stm32f746xx.o [1]
  .text                ro code  0x080935d0       0x4  startup_stm32f746xx.o [1]
  .text                ro code  0x080935d4       0x4  startup_stm32f746xx.o [1]
  .text                ro code  0x080935d8       0x4  startup_stm32f746xx.o [1]
  .text                ro code  0x080935dc       0x4  startup_stm32f746xx.o [1]
  .text                ro code  0x080935e0       0x4  startup_stm32f746xx.o [1]
  .text                ro code  0x080935e4       0x4  startup_stm32f746xx.o [1]
  .text                ro code  0x080935e8       0x4  startup_stm32f746xx.o [1]
  .text                ro code  0x080935ec       0x4  startup_stm32f746xx.o [1]
  .text                ro code  0x080935f0       0x4  startup_stm32f746xx.o [1]
  .text                ro code  0x080935f4       0x4  startup_stm32f746xx.o [1]
  .text                ro code  0x080935f8       0x4  startup_stm32f746xx.o [1]
  .text                ro code  0x080935fc       0x4  startup_stm32f746xx.o [1]
  .text                ro code  0x08093600       0x4  startup_stm32f746xx.o [1]
  .text                ro code  0x08093604       0x4  startup_stm32f746xx.o [1]
  .text                ro code  0x08093608       0x4  startup_stm32f746xx.o [1]
  .text                ro code  0x0809360c       0x4  startup_stm32f746xx.o [1]
  .text                ro code  0x08093610       0x4  startup_stm32f746xx.o [1]
  .text                ro code  0x08093614       0x4  startup_stm32f746xx.o [1]
  .text                ro code  0x08093618       0x4  startup_stm32f746xx.o [1]
  .text                ro code  0x0809361c       0x4  startup_stm32f746xx.o [1]
  .text                ro code  0x08093620       0x4  startup_stm32f746xx.o [1]
  .text                ro code  0x08093624       0x4  startup_stm32f746xx.o [1]
  .text                ro code  0x08093628       0x4  startup_stm32f746xx.o [1]
  .text                ro code  0x0809362c       0x4  startup_stm32f746xx.o [1]
  .text                ro code  0x08093630       0x4  startup_stm32f746xx.o [1]
  .text                ro code  0x08093634       0x4  startup_stm32f746xx.o [1]
  .text                ro code  0x08093638       0x4  startup_stm32f746xx.o [1]
  .text                ro code  0x0809363c       0x4  startup_stm32f746xx.o [1]
  .text                ro code  0x08093640       0x4  startup_stm32f746xx.o [1]
  .text                ro code  0x08093644       0x4  startup_stm32f746xx.o [1]
  .text                ro code  0x08093648       0x4  startup_stm32f746xx.o [1]
  .text                ro code  0x0809364c       0x4  startup_stm32f746xx.o [1]
  .text                ro code  0x08093650       0x4  startup_stm32f746xx.o [1]
  .text                ro code  0x08093654       0x4  startup_stm32f746xx.o [1]
  .text                ro code  0x08093658       0x4  startup_stm32f746xx.o [1]
  .text                ro code  0x0809365c       0x4  startup_stm32f746xx.o [1]
  .text                ro code  0x08093660       0x4  startup_stm32f746xx.o [1]
  .text                ro code  0x08093664       0x4  startup_stm32f746xx.o [1]
  .text                ro code  0x08093668       0x4  startup_stm32f746xx.o [1]
  .text                ro code  0x0809366c       0x4  startup_stm32f746xx.o [1]
  .text                ro code  0x08093670       0x4  startup_stm32f746xx.o [1]
  .text                ro code  0x08093674       0x4  startup_stm32f746xx.o [1]
  .text                ro code  0x08093678       0x4  startup_stm32f746xx.o [1]
  .text                ro code  0x0809367c       0x4  startup_stm32f746xx.o [1]
  .text                ro code  0x08093680       0x4  startup_stm32f746xx.o [1]
  .text                ro code  0x08093684       0x4  startup_stm32f746xx.o [1]
  .text                ro code  0x08093688       0x4  startup_stm32f746xx.o [1]
  .text                ro code  0x0809368c       0x4  startup_stm32f746xx.o [1]
  .text                ro code  0x08093690       0x4  startup_stm32f746xx.o [1]
  .text                ro code  0x08093694       0x4  startup_stm32f746xx.o [1]
  .text                ro code  0x08093698       0x4  startup_stm32f746xx.o [1]
  .text                ro code  0x0809369c       0x4  startup_stm32f746xx.o [1]
  .text                ro code  0x080936a0       0x4  startup_stm32f746xx.o [1]
  .text                ro code  0x080936a4       0x4  startup_stm32f746xx.o [1]
  .text                ro code  0x080936a8       0x4  startup_stm32f746xx.o [1]
  .text                ro code  0x080936ac       0x4  startup_stm32f746xx.o [1]
  .text                ro code  0x080936b0       0x4  startup_stm32f746xx.o [1]
  .text                ro code  0x080936b4       0x4  startup_stm32f746xx.o [1]
  .text                ro code  0x080936b8       0x4  startup_stm32f746xx.o [1]
  .text                ro code  0x080936bc       0x4  startup_stm32f746xx.o [1]
  .text                ro code  0x080936c0       0x4  startup_stm32f746xx.o [1]
  .text                ro code  0x080936c4       0x4  startup_stm32f746xx.o [1]
  .text                ro code  0x080936c8       0x4  startup_stm32f746xx.o [1]
  .text                ro code  0x080936cc       0x4  startup_stm32f746xx.o [1]
  .rodata              const    0x080936d0       0x0  zero_init3.o [9]
  .rodata              const    0x080936d0       0x0  lz77_init.o [9]
  Initializer bytes    const    0x080936d0     0x5c0  <for P2 s0>
                              - 0x08093c90   0x93ac8

Absolute sections, part 1 of 5:               0x4818
  .bss                 zero     0x20000000    0x4818  audio_if.o [1]
                              - 0x20004818    0x4818

Absolute sections, part 2 of 5:               0x7800
  .bss                 zero     0x20006024    0x7800  main.o [1]
                              - 0x2000d824    0x7800

Absolute sections, part 3 of 5:                 0xa0
  .noinit              uninit   0x2000e000      0xa0  ethernetif.o [1]
                              - 0x2000e0a0      0xa0

Absolute sections, part 4 of 5:                 0xa0
  .noinit              uninit   0x2000e100      0xa0  ethernetif.o [1]
                              - 0x2000e1a0      0xa0

Absolute sections, part 5 of 5:               0x3b88
  .noinit              uninit   0x2000e200    0x1dc4  ethernetif.o [1]
  .noinit              uninit   0x2000ffc4    0x1dc4  ethernetif.o [1]
                              - 0x20011d88    0x3b88

"P2":                                        0x30550
  P2 s0                         0x20011d88    0x2151  <Init block>
    .data              inited   0x20011d88     0x680  GUIVNC_Process.o [4]
    .data              inited   0x20012408     0x528  video_player_win.o [1]
    .data              inited   0x20012930     0x388  audio_player_win.o [1]
    .data              inited   0x20012cb8     0x360  k_storage.o [1]
    .data              inited   0x20013018     0x16c  audio_player_win.o [1]
    .data              inited   0x20013184     0x120  settings_win.o [1]
    .data              inited   0x200132a4      0x9c  tasks.o [1]
    .data              inited   0x20013340      0x98  GUI_Core.o [4]
    __DLIB_PERTHREAD   inited   0x200133d8      0x8c  rand.o [5]
    __DLIB_PERTHREAD   inited   0x20013464      0x88  localeconv.o [5]
    __DLIB_PERTHREAD   inited   0x200134ec      0x74  setlocale.o [5]
    .data              inited   0x20013560      0x68  GUI_OnKey.o [4]
    .data              inited   0x200135c8      0x68  GUIAA_Char4.o [4]
    .data              inited   0x20013630      0x64  stm32746g_discovery_sdram.o [1]
    .data              inited   0x20013694      0x58  SLIDER_SkinFlex.o [4]
    .data              inited   0x200136ec      0x58  FRAMEWIN_SkinFlex.o [4]
    .data              inited   0x20013744      0x58  SCROLLBAR_SkinFlex.o [4]
    .data              inited   0x2001379c      0x54  GUI_PID.o [4]
    .data              inited   0x200137f0      0x54  WM_Touch.o [4]
    .data              inited   0x20013844      0x40  LCDConf.o [1]
    .data              inited   0x20013884      0x40  ST_AnimatedIconView.o [3]
    .data              inited   0x200138c4      0x3c  DROPDOWN.o [4]
    .data              inited   0x20013900      0x38  CHOOSEFILE.o [4]
    .data              inited   0x20013938      0x38  LISTBOX.o [4]
    .data              inited   0x20013970      0x38  WM_ToolTip.o [4]
    .data              inited   0x200139a8      0x34  BUTTON.o [4]
    .data              inited   0x200139dc      0x30  wm8994.o [1]
    .data              inited   0x20013a0c      0x30  LISTVIEW.o [4]
    .data              inited   0x20013a3c      0x2c  FRAMEWIN.o [4]
    .data              inited   0x20013a68      0x2c  DROPDOWN_SkinFlex.o [4]
    .data              inited   0x20013a94      0x2c  DROPDOWN_SkinFlex.o [4]
    .data              inited   0x20013ac0      0x2c  DROPDOWN_SkinFlex.o [4]
    .data              inited   0x20013aec      0x2c  DROPDOWN_SkinFlex.o [4]
    .data              inited   0x20013b18      0x28  ft5336.o [1]
    .data              inited   0x20013b40      0x20  tcp.o [1]
    .data              inited   0x20013b60      0x20  usbh_msc.o [1]
    .data              inited   0x20013b80      0x20  BUTTON_SkinFlex.o [4]
    .data              inited   0x20013ba0      0x20  BUTTON_SkinFlex.o [4]
    .data              inited   0x20013bc0      0x20  BUTTON_SkinFlex.o [4]
    .data              inited   0x20013be0      0x20  BUTTON_SkinFlex.o [4]
    .data              inited   0x20013c00      0x1c  vnc_server_win.o [1]
    .data              inited   0x20013c1c      0x1c  SLIDER.o [4]
    .data              inited   0x20013c38      0x1c  GUI_Task.o [4]
    .data              inited   0x20013c54      0x1c  HEADER.o [4]
    .data              inited   0x20013c70      0x1c  HEADER_SkinFlex.o [4]
    .data              inited   0x20013c8c      0x18  audio_recorder_win.o [1]
    .data              inited   0x20013ca4      0x18  games_win.o [1]
    .data              inited   0x20013cbc      0x18  gardening_control_win.o [1]
    .data              inited   0x20013cd4      0x18  home_alarm_win.o [1]
    .data              inited   0x20013cec      0x18  settings_win.o [1]
    .data              inited   0x20013d04      0x18  video_player_win.o [1]
    .data              inited   0x20013d1c      0x18  SCROLLBAR.o [4]
    .data              inited   0x20013d34      0x14  audio_player_win.o [1]
    .data              inited   0x20013d48      0x14  audio_recorder_win.o [1]
    .data              inited   0x20013d5c      0x14  games_win.o [1]
    .data              inited   0x20013d70      0x14  gardening_control_win.o [1]
    .data              inited   0x20013d84      0x14  home_alarm_win.o [1]
    .data              inited   0x20013d98      0x14  settings_win.o [1]
    .data              inited   0x20013dac      0x14  video_player_win.o [1]
    .data              inited   0x20013dc0      0x14  vnc_server_win.o [1]
    .data              inited   0x20013dd4      0x14  FRAMEWIN_Skin.o [4]
    .data              inited   0x20013de8      0x10  TEXT.o [4]
    .data              inited   0x20013df8      0x10  GUIVNC_Authentication.o [4]
    .data              inited   0x20013e08      0x10  LCD_NextPixelAPI.o [4]
    .data              inited   0x20013e18      0x10  LCD_Color.o [4]
    .data              inited   0x20013e28       0xc  port.o [1]
    .data              inited   0x20013e34       0xc  BUTTON_Skin.o [4]
    .data              inited   0x20013e40       0xc  DROPDOWN_Skin.o [4]
    .data              inited   0x20013e4c       0xc  SLIDER_Skin.o [4]
    .data              inited   0x20013e58       0xc  HEADER_Skin.o [4]
    .data              inited   0x20013e64       0xc  SCROLLBAR_Skin.o [4]
    .data              inited   0x20013e70       0x8  stm32746g_discovery_audio.o [1]
    .data              inited   0x20013e78       0x8  udp.o [1]
    .data              inited   0x20013e80       0x8  BUTTON.o [4]
    .data              inited   0x20013e88       0x8  HEADER.o [4]
    .data              inited   0x20013e90       0x8  GUI_EncExt.o [4]
    .data              inited   0x20013e98       0x8  GUIAA_Char4.o [4]
    .data              inited   0x20013ea0       0x8  GUI__Wrap.o [4]
    .data              inited   0x20013ea8       0x4  dhcp.o [1]
    .data              inited   0x20013eac       0x4  system_stm32f7xx.o [1]
    .data              inited   0x20013eb0       0x4  GUI_Core.o [4]
    .data              inited   0x20013eb4       0x4  WIDGET.o [4]
    .data              inited   0x20013eb8       0x4  WINDOW.o [4]
    .data              inited   0x20013ebc       0x4  LCD.o [4]
    .data              inited   0x20013ec0       0x4  HEADER.o [4]
    .data              inited   0x20013ec4       0x4  GUI_GIF.o [4]
    .data              inited   0x20013ec8       0x4  GUI_CharLine.o [4]
    .data              inited   0x20013ecc       0x4  LCD_AA.o [4]
    .data              inited   0x20013ed0       0x4  GUI__Alpha.o [4]
    .data              inited   0x20013ed4       0x2  tcp.o [1]
    .data              inited   0x20013ed6       0x2  SCROLLBAR.o [4]
    .data              inited   0x20013ed8       0x1  GUIDEV_StaticDevices.o [4]
  .bss                 zero     0x20013edc   0x20000  GUIConf.o [1]
  .bss                 zero     0x20033edc    0x4dc0  memp.o [1]
  .bss                 zero     0x20038c9c    0x1b48  video_player_win.o [1]
  .bss                 zero     0x2003a7e4    0x181c  audio_player_win.o [1]
  .bss                 zero     0x2003c000    0x1424  mem.o [1]
  .bss                 zero     0x2003d424     0x528  games_win.o [1]
  .bss                 zero     0x2003d94c     0x404  audio_player_app.o [1]
  .bss                 zero     0x2003dd50     0x2dc  k_storage.o [1]
  .bss                 zero     0x2003e02c     0x294  usbh_conf.o [1]
  .bss                 zero     0x2003e2c0     0x234  k_storage.o [1]
  .bss                 zero     0x2003e4f4     0x22c  audio_player_app.o [1]
  .bss                 zero     0x2003e720     0x22c  audio_recorder_app.o [1]
  .bss                 zero     0x2003e94c     0x200  usbh_diskio.o [1]
  .bss                 zero     0x2003eb4c     0x1d8  dlmalloc.o [5]
  .bss                 zero     0x2003ed24     0x190  games_win.o [1]
  .bss                 zero     0x2003eeb4     0x11c  audio_recorder_win.o [1]
  .bss                 zero     0x2003efd0     0x100  GUI_GIF.o [4]
  .bss                 zero     0x2003f0d0      0xf0  tasks.o [1]
  .bss                 zero     0x2003f1c0      0xd4  GUI_Alloc.o [4]
  .bss                 zero     0x2003f294      0xc8  etharp.o [1]
  .bss                 zero     0x2003f35c      0xa8  LCDConf.o [1]
  .bss                 zero     0x2003f404      0x84  games_win.o [1]
  .bss                 zero     0x2003f488      0x84  LCDConf.o [1]
  .bss                 zero     0x2003f50c      0x84  stm32746g_discovery_audio.o [1]
  .bss                 zero     0x2003f590      0x84  stm32746g_discovery_audio.o [1]
  .bss                 zero     0x2003f614      0x80  vnc_app.o [1]
  .bss                 zero     0x2003f694      0x80  GUIVNC_DES.o [4]
  .bss                 zero     0x2003f714      0x7c  k_module.o [1]
  .bss                 zero     0x2003f790      0x78  ff.o [1]
  .bss                 zero     0x2003f808      0x78  k_module.o [1]
  .bss                 zero     0x2003f880      0x78  WM.o [4]
  .bss                 zero     0x2003f8f8      0x60  sockets.o [1]
  .bss                 zero     0x2003f958      0x54  vnc_app.o [1]
  .bss                 zero     0x2003f9ac      0x50  stm32746g_discovery_audio.o [1]
  .bss                 zero     0x2003f9fc      0x50  stm32746g_discovery_audio.o [1]
  .bss                 zero     0x2003fa4c      0x50  stm32746g_discovery_audio.o [1]
  .bss                 zero     0x2003fa9c      0x50  stm32746g_discovery_sdram.o [1]
  .bss                 zero     0x2003faec      0x4c  ethernetif.o [1]
  .bss                 zero     0x2003fb38      0x44  stm32746g_discovery_qspi.o [1]
  .bss                 zero     0x2003fb7c      0x40  queue.o [1]
  .bss                 zero     0x2003fbbc      0x3c  stm32746g_discovery.o [1]
  .bss                 zero     0x2003fbf8      0x3c  GUIAA_Lib.o [4]
  .bss                 zero     0x2003fc34      0x38  timers.o [1]
  .bss                 zero     0x2003fc6c      0x38  vnc_app.o [1]
  .bss                 zero     0x2003fca4      0x34  audio_recorder_app.o [1]
  .bss                 zero     0x2003fcd8      0x34  dhcp.o [1]
  .bss                 zero     0x2003fd0c      0x34  stm32746g_discovery_ts.o [1]
  .bss                 zero     0x2003fd40      0x34  GUI_Curs1.o [4]
  .bss                 zero     0x2003fd74      0x30  tcp_in.o [1]
  .bss                 zero     0x2003fda4      0x30  LCD_NextPixelAPI.o [4]
  .bss                 zero     0x2003fdd4      0x2c  audio_recorder_app.o [1]
  .bss                 zero     0x2003fe00      0x24  GUI_MULTIBUF.o [4]
  .bss                 zero     0x2003fe24      0x20  games_win.o [1]
  .bss                 zero     0x2003fe44      0x20  k_rtc.o [1]
  .bss                 zero     0x2003fe64      0x20  GUI_SetAlpha.o [4]
  .bss                 zero     0x2003fe84      0x1c  GUI_FillPolygon.o [4]
  .bss                 zero     0x2003fea0      0x1c  GUI__Alpha.o [4]
  .bss                 zero     0x2003febc      0x18  cpu_utils.o [1]
  .bss                 zero     0x2003fed4      0x18  heap_4.o [1]
  .bss                 zero     0x2003feec      0x18  WM_PID__GetPrevState.o [4]
  .bss                 zero     0x2003ff04      0x18  dlmalloc.o [5]
  .bss                 zero     0x2003ff1c      0x14  GUI_Timer.o [4]
  .bss                 zero     0x2003ff30      0x14  GUI__ManageCache.o [4]
  .bss                 zero     0x2003ff44      0x10  ff_gen_drv.o [1]
  .bss                 zero     0x2003ff54      0x10  ip.o [1]
  .bss                 zero     0x2003ff64      0x10  vnc_app.o [1]
  .bss                 zero     0x2003ff74      0x10  GUIVNC_Process.o [4]
  .bss                 zero     0x2003ff84      0x10  GUIVNC_Authentication.o [4]
  .bss                 zero     0x2003ff94       0xc  audio_if.o [1]
  .bss                 zero     0x2003ffa0       0xc  ff.o [1]
  .bss                 zero     0x2003ffac       0xc  home_alarm_win.o [1]
  .bss                 zero     0x2003ffb8       0xc  k_bsp.o [1]
  .bss                 zero     0x2003ffc4       0xc  k_menu.o [1]
  .bss                 zero     0x2003ffd0       0xc  netif.o [1]
  .bss                 zero     0x2003ffdc       0xc  tcpip.o [1]
  .bss                 zero     0x2003ffe8       0xc  GUI_TOUCH.o [4]
  .bss                 zero     0x2003fff4       0xc  GUI_MOUSE.o [4]
  .bss                 zero     0x20040000       0x8  games_win.o [1]
  .bss                 zero     0x20040008       0x8  GUI_X_OS.o [1]
  .bss                 zero     0x20040010       0x8  settings_win.o [1]
  .bss                 zero     0x20040018       0x8  sockets.o [1]
  .bss                 zero     0x20040020       0x8  wm8994.o [1]
  .bss                 zero     0x20040028       0x8  ST_AnimatedIconView.o [3]
  .bss                 zero     0x20040030       0x8  IMAGE.o [4]
  .bss                 zero     0x20040038       0x8  GUI_SelectLayer.o [4]
  .bss                 zero     0x20040040       0x8  GUICC_M1555I.o [4]
  .bss                 zero     0x20040048       0x8  GUICC_M8888I.o [4]
  .bss                 zero     0x20040050       0x6  ft5336.o [1]
  .bss                 zero     0x20040056       0x2  ip.o [1]
  .bss                 zero     0x20040058       0x4  lwip_timers.o [1]
  .bss                 zero     0x2004005c       0x4  lwip_timers.o [1]
  .bss                 zero     0x20040060       0x4  main.o [1]
  .bss                 zero     0x20040064       0x4  raw.o [1]
  .bss                 zero     0x20040068       0x4  stm32f7xx_hal.o [1]
  .bss                 zero     0x2004006c       0x4  vnc_app.o [1]
  .bss                 zero     0x20040070       0x4  vnc_app.o [1]
  .bss                 zero     0x20040074       0x4  vnc_app.o [1]
  .bss                 zero     0x20040078       0x4  vnc_app.o [1]
  .bss                 zero     0x2004007c       0x4  vnc_app.o [1]
  .bss                 zero     0x20040080       0x4  GUI_Core.o [4]
  .bss                 zero     0x20040084       0x4  GUI_Core.o [4]
  .bss                 zero     0x20040088       0x4  GUI_Core.o [4]
  .bss                 zero     0x2004008c       0x4  GUI_Core.o [4]
  .bss                 zero     0x20040090       0x4  GUI_Core.o [4]
  .bss                 zero     0x20040094       0x4  GUI_Core.o [4]
  .bss                 zero     0x20040098       0x4  GUI_Core.o [4]
  .bss                 zero     0x2004009c       0x4  WM.o [4]
  .bss                 zero     0x200400a0       0x4  IMAGE.o [4]
  .bss                 zero     0x200400a4       0x4  GUIVNC_Process.o [4]
  .bss                 zero     0x200400a8       0x4  GUI_WaitEvent.o [4]
  .bss                 zero     0x200400ac       0x4  WM__SendMessage.o [4]
  .bss                 zero     0x200400b0       0x4  WIDGET_Effect_Simple.o [4]
  .bss                 zero     0x200400b4       0x4  GUIDEV_Banding.o [4]
  .bss                 zero     0x200400b8       0x4  WM_SetCaptureMove.o [4]
  .bss                 zero     0x200400bc       0x4  GUI__Alpha.o [4]
  .bss                 zero     0x200400c0       0x4  xgetmemchunk.o [5]
  .bss                 zero     0x200400c4       0x2  sys_arch.o [1]
  .bss                 zero     0x200400c6       0x2  GUI_Core.o [4]
  .bss                 zero     0x200400c8       0x2  GUI_Core.o [4]
  .bss                 zero     0x200400ca       0x2  GUI_Core.o [4]
  .bss                 zero     0x200400cc       0x1  etharp.o [1]
  .bss                 zero     0x200400cd       0x1  k_menu.o [1]
  .bss                 zero     0x200400ce       0x1  tcp.o [1]
  .bss                 zero     0x200400cf       0x1  video_player_win.o [1]
  .bss                 zero     0x200400d0       0x1  vnc_app.o [1]
  .bss                 zero     0x200400d1       0x1  vnc_app.o [1]
  .bss                 zero     0x200400d2       0x1  vnc_app.o [1]
  .bss                 zero     0x200400d3       0x1  LISTVIEW.o [4]
  .bss                 zero     0x200400d4       0x1  WM.o [4]
  CSTACK                        0x200400d8     0x200  <Block>
    CSTACK             uninit   0x200400d8     0x200  <Block tail>
  HEAP                          0x200402d8    0x2000  <Block>
    HEAP               uninit   0x200402d8    0x2000  <Block tail>
                              - 0x200422d8   0x30550

"P3":                                       0x5ea42c
  ExtQSPIFlashSection  const    0x90000000   0x5fa00  home_alarm_win.o [1]
  ExtQSPIFlashSection  const    0x9005fa00   0x5fa00  home_alarm_win.o [1]
  ExtQSPIFlashSection  const    0x900bf400   0x5fa00  home_alarm_win.o [1]
  ExtQSPIFlashSection  const    0x9011ee00   0x5fa00  home_alarm_win.o [1]
  ExtQSPIFlashSection  const    0x9017e800   0x5fa00  home_alarm_win.o [1]
  ExtQSPIFlashSection  const    0x901de200   0x1d4c0  vnc_server_win.o [1]
  ExtQSPIFlashSection  const    0x901fb6c0   0x17700  audio_recorder_win.o [1]
  ExtQSPIFlashSection  const    0x90212dc0   0x13fb0  k_startup.o [1]
  ExtQSPIFlashSection  const    0x90226d70   0x13560  video_player_win.o [1]
  ExtQSPIFlashSection  const    0x9023a2d0   0x13560  video_player_win.o [1]
  ExtQSPIFlashSection  const    0x9024d830   0x13560  video_player_win.o [1]
  ExtQSPIFlashSection  const    0x90260d90   0x13560  video_player_win.o [1]
  ExtQSPIFlashSection  const    0x902742f0   0x13560  video_player_win.o [1]
  ExtQSPIFlashSection  const    0x90287850   0x13560  video_player_win.o [1]
  ExtQSPIFlashSection  const    0x9029adb0   0x13560  video_player_win.o [1]
  ExtQSPIFlashSection  const    0x902ae310   0x13560  video_player_win.o [1]
  ExtQSPIFlashSection  const    0x902c1870   0x13560  video_player_win.o [1]
  ExtQSPIFlashSection  const    0x902d4dd0   0x13560  video_player_win.o [1]
  ExtQSPIFlashSection  const    0x902e8330    0xe498  audio_recorder_win.o [1]
  ExtQSPIFlashSection  const    0x902f67c8    0xce40  vnc_server_win.o [1]
  ExtQSPIFlashSection  const    0x90303608    0xce40  vnc_server_win.o [1]
  ExtQSPIFlashSection  const    0x90310448    0xce40  vnc_server_win.o [1]
  ExtQSPIFlashSection  const    0x9031d288    0xbb08  gardening_control_win.o [1]
  ExtQSPIFlashSection  const    0x90328d90    0xbb08  gardening_control_win.o [1]
  ExtQSPIFlashSection  const    0x90334898    0xbb08  gardening_control_win.o [1]
  ExtQSPIFlashSection  const    0x903403a0    0xbb08  gardening_control_win.o [1]
  ExtQSPIFlashSection  const    0x9034bea8    0xbb08  gardening_control_win.o [1]
  ExtQSPIFlashSection  const    0x903579b0    0xbb08  gardening_control_win.o [1]
  ExtQSPIFlashSection  const    0x903634b8    0xa56c  vnc_server_win.o [1]
  ExtQSPIFlashSection  const    0x9036da24    0x9678  home_alarm_win.o [1]
  ExtQSPIFlashSection  const    0x9037709c    0x9678  home_alarm_win.o [1]
  ExtQSPIFlashSection  const    0x90380714    0x9678  home_alarm_win.o [1]
  ExtQSPIFlashSection  const    0x90389d8c    0x7e90  audio_player_win.o [1]
  ExtQSPIFlashSection  const    0x90391c1c    0x7e90  audio_player_win.o [1]
  ExtQSPIFlashSection  const    0x90399aac    0x7e90  audio_player_win.o [1]
  ExtQSPIFlashSection  const    0x903a193c    0x7e90  audio_player_win.o [1]
  ExtQSPIFlashSection  const    0x903a97cc    0x7e90  audio_player_win.o [1]
  ExtQSPIFlashSection  const    0x903b165c    0x7e90  audio_recorder_win.o [1]
  ExtQSPIFlashSection  const    0x903b94ec    0x7e90  games_win.o [1]
  ExtQSPIFlashSection  const    0x903c137c    0x7e90  games_win.o [1]
  ExtQSPIFlashSection  const    0x903c920c    0x7e90  games_win.o [1]
  ExtQSPIFlashSection  const    0x903d109c    0x7e90  games_win.o [1]
  ExtQSPIFlashSection  const    0x903d8f2c    0x7e90  games_win.o [1]
  ExtQSPIFlashSection  const    0x903e0dbc    0x7e90  gardening_control_win.o [1]
  ExtQSPIFlashSection  const    0x903e8c4c    0x7e90  gardening_control_win.o [1]
  ExtQSPIFlashSection  const    0x903f0adc    0x7e90  gardening_control_win.o [1]
  ExtQSPIFlashSection  const    0x903f896c    0x7e90  gardening_control_win.o [1]
  ExtQSPIFlashSection  const    0x904007fc    0x7e90  gardening_control_win.o [1]
  ExtQSPIFlashSection  const    0x9040868c    0x7e90  home_alarm_win.o [1]
  ExtQSPIFlashSection  const    0x9041051c    0x7e90  home_alarm_win.o [1]
  ExtQSPIFlashSection  const    0x904183ac    0x7e90  home_alarm_win.o [1]
  ExtQSPIFlashSection  const    0x9042023c    0x7e90  home_alarm_win.o [1]
  ExtQSPIFlashSection  const    0x904280cc    0x7e90  home_alarm_win.o [1]
  ExtQSPIFlashSection  const    0x9042ff5c    0x7e90  settings_win.o [1]
  ExtQSPIFlashSection  const    0x90437dec    0x7e90  settings_win.o [1]
  ExtQSPIFlashSection  const    0x9043fc7c    0x7e90  settings_win.o [1]
  ExtQSPIFlashSection  const    0x90447b0c    0x7e90  settings_win.o [1]
  ExtQSPIFlashSection  const    0x9044f99c    0x7e90  settings_win.o [1]
  ExtQSPIFlashSection  const    0x9045782c    0x7e90  video_player_win.o [1]
  ExtQSPIFlashSection  const    0x9045f6bc    0x7e90  video_player_win.o [1]
  ExtQSPIFlashSection  const    0x9046754c    0x7e90  video_player_win.o [1]
  ExtQSPIFlashSection  const    0x9046f3dc    0x7e90  video_player_win.o [1]
  ExtQSPIFlashSection  const    0x9047726c    0x7e90  video_player_win.o [1]
  ExtQSPIFlashSection  const    0x9047f0fc    0x7530  settings_win.o [1]
  ExtQSPIFlashSection  const    0x9048662c    0x7530  settings_win.o [1]
  ExtQSPIFlashSection  const    0x9048db5c    0x7530  settings_win.o [1]
  ExtQSPIFlashSection  const    0x9049508c    0x7530  settings_win.o [1]
  ExtQSPIFlashSection  const    0x9049c5bc    0x7530  settings_win.o [1]
  ExtQSPIFlashSection  const    0x904a3aec    0x7530  settings_win.o [1]
  ExtQSPIFlashSection  const    0x904ab01c    0x7530  settings_win.o [1]
  ExtQSPIFlashSection  const    0x904b254c    0x7530  settings_win.o [1]
  ExtQSPIFlashSection  const    0x904b9a7c    0x7530  settings_win.o [1]
  ExtQSPIFlashSection  const    0x904c0fac    0x7530  settings_win.o [1]
  ExtQSPIFlashSection  const    0x904c84dc    0x7530  settings_win.o [1]
  ExtQSPIFlashSection  const    0x904cfa0c    0x7530  settings_win.o [1]
  ExtQSPIFlashSection  const    0x904d6f3c    0x7530  settings_win.o [1]
  ExtQSPIFlashSection  const    0x904de46c    0x7530  settings_win.o [1]
  ExtQSPIFlashSection  const    0x904e599c    0x7530  settings_win.o [1]
  ExtQSPIFlashSection  const    0x904ececc    0x7530  settings_win.o [1]
  ExtQSPIFlashSection  const    0x904f43fc    0x7530  settings_win.o [1]
  ExtQSPIFlashSection  const    0x904fb92c    0x7530  settings_win.o [1]
  ExtQSPIFlashSection  const    0x90502e5c    0x7530  settings_win.o [1]
  ExtQSPIFlashSection  const    0x9050a38c    0x7530  settings_win.o [1]
  ExtQSPIFlashSection  const    0x905118bc    0x6978  home_alarm_win.o [1]
  ExtQSPIFlashSection  const    0x90518234    0x6978  home_alarm_win.o [1]
  ExtQSPIFlashSection  const    0x9051ebac    0x6978  home_alarm_win.o [1]
  ExtQSPIFlashSection  const    0x90525524    0x6978  home_alarm_win.o [1]
  ExtQSPIFlashSection  const    0x9052be9c    0x5eec  audio_recorder_win.o [1]
  ExtQSPIFlashSection  const    0x90531d88    0x5eec  audio_recorder_win.o [1]
  ExtQSPIFlashSection  const    0x90537c74    0x5eec  audio_recorder_win.o [1]
  ExtQSPIFlashSection  const    0x9053db60    0x5eec  audio_recorder_win.o [1]
  ExtQSPIFlashSection  const    0x90543a4c    0x5eec  audio_recorder_win.o [1]
  ExtQSPIFlashSection  const    0x90549938    0x5eec  vnc_server_win.o [1]
  ExtQSPIFlashSection  const    0x9054f824    0x5eec  vnc_server_win.o [1]
  ExtQSPIFlashSection  const    0x90555710    0x5eec  vnc_server_win.o [1]
  ExtQSPIFlashSection  const    0x9055b5fc    0x5eec  vnc_server_win.o [1]
  ExtQSPIFlashSection  const    0x905614e8    0x5eec  vnc_server_win.o [1]
  ExtQSPIFlashSection  const    0x905673d4    0x4b00  settings_win.o [1]
  ExtQSPIFlashSection  const    0x9056bed4    0x396c  settings_win.o [1]
  ExtQSPIFlashSection  const    0x9056f840    0x396c  settings_win.o [1]
  ExtQSPIFlashSection  const    0x905731ac    0x396c  settings_win.o [1]
  ExtQSPIFlashSection  const    0x90576b18    0x396c  settings_win.o [1]
  ExtQSPIFlashSection  const    0x9057a484    0x396c  settings_win.o [1]
  ExtQSPIFlashSection  const    0x9057ddf0    0x396c  settings_win.o [1]
  ExtQSPIFlashSection  const    0x9058175c    0x396c  settings_win.o [1]
  ExtQSPIFlashSection  const    0x905850c8    0x396c  settings_win.o [1]
  ExtQSPIFlashSection  const    0x90588a34    0x396c  settings_win.o [1]
  ExtQSPIFlashSection  const    0x9058c3a0    0x396c  settings_win.o [1]
  ExtQSPIFlashSection  const    0x9058fd0c    0x396c  settings_win.o [1]
  ExtQSPIFlashSection  const    0x90593678    0x396c  settings_win.o [1]
  ExtQSPIFlashSection  const    0x90596fe4    0x396c  settings_win.o [1]
  ExtQSPIFlashSection  const    0x9059a950    0x396c  settings_win.o [1]
  ExtQSPIFlashSection  const    0x9059e2bc    0x396c  settings_win.o [1]
  ExtQSPIFlashSection  const    0x905a1c28    0x396c  settings_win.o [1]
  ExtQSPIFlashSection  const    0x905a5594    0x396c  settings_win.o [1]
  ExtQSPIFlashSection  const    0x905a8f00    0x396c  settings_win.o [1]
  ExtQSPIFlashSection  const    0x905ac86c    0x396c  settings_win.o [1]
  ExtQSPIFlashSection  const    0x905b01d8    0x396c  settings_win.o [1]
  ExtQSPIFlashSection  const    0x905b3b44    0x3750  home_alarm_win.o [1]
  ExtQSPIFlashSection  const    0x905b7294    0x3750  home_alarm_win.o [1]
  ExtQSPIFlashSection  const    0x905ba9e4    0x3750  home_alarm_win.o [1]
  ExtQSPIFlashSection  const    0x905be134    0x35b4  home_alarm_win.o [1]
  ExtQSPIFlashSection  const    0x905c16e8    0x35b4  home_alarm_win.o [1]
  ExtQSPIFlashSection  const    0x905c4c9c    0x35b4  home_alarm_win.o [1]
  ExtQSPIFlashSection  const    0x905c8250    0x3570  home_alarm_win.o [1]
  ExtQSPIFlashSection  const    0x905cb7c0    0x3570  home_alarm_win.o [1]
  ExtQSPIFlashSection  const    0x905ced30    0x3570  home_alarm_win.o [1]
  ExtQSPIFlashSection  const    0x905d22a0    0x2ee0  home_alarm_win.o [1]
  ExtQSPIFlashSection  const    0x905d5180    0x2ee0  home_alarm_win.o [1]
  ExtQSPIFlashSection  const    0x905d8060    0x2ee0  home_alarm_win.o [1]
  ExtQSPIFlashSection  const    0x905daf40    0x1fa4  home_alarm_win.o [1]
  ExtQSPIFlashSection  const    0x905dcee4    0x1fa4  home_alarm_win.o [1]
  ExtQSPIFlashSection  const    0x905dee88    0x1fa4  home_alarm_win.o [1]
  ExtQSPIFlashSection  const    0x905e0e2c    0x12c0  audio_recorder_win.o [1]
  ExtQSPIFlashSection  const    0x905e20ec    0x12c0  audio_recorder_win.o [1]
  ExtQSPIFlashSection  const    0x905e33ac    0x12c0  audio_recorder_win.o [1]
  ExtQSPIFlashSection  const    0x905e466c    0x12c0  audio_recorder_win.o [1]
  ExtQSPIFlashSection  const    0x905e592c    0x12c0  audio_recorder_win.o [1]
  ExtQSPIFlashSection  const    0x905e6bec    0x12c0  vnc_server_win.o [1]
  ExtQSPIFlashSection  const    0x905e7eac    0x12c0  vnc_server_win.o [1]
  ExtQSPIFlashSection  const    0x905e916c    0x12c0  vnc_server_win.o [1]
                              - 0x905ea42c  0x5ea42c


*******************************************************************************
*** INIT TABLE
***

          Address     Size
          -------     ----
Zero (__iar_zero_init3)
    3 destination ranges, total size 0x38211:
          0x20000000   0x4818
          0x20006024   0x7800
          0x20013edc  0x2c1f9

Copy/lz77 (__iar_lz77_init3)
    1 source range, total size 0x5c0 (17% of destination):
          0x080936d0    0x5c0
    1 destination range, total size 0x2151:
          0x20011d88   0x2151



*******************************************************************************
*** MODULE SUMMARY
***

    Module                         ro code    ro data  rw data  rw data
                                                                 (abs)
    ------                         -------    -------  -------  -------
F:\PATH_EN\Code\STM32F746G-RadioYuN\Projects\STM32F746G-DISCO\RadioYuN\IAR\STM32F7-DISCO\Obj: [1]
    GUIConf.o                           16             131 072
    GUI_X_OS.o                          88                   8
    LCDConf.o                        1 784         11      364
    api_lib.o                          904
    api_msg.o                        2 492
    audio_if.o                          52                  12   18 456
    audio_player_app.o               1 364         16    1 584
    audio_player_win.o               8 840    282 857    7 460
    audio_recorder_app.o             1 300         16      652
    audio_recorder_win.o             2 832    334 320      328
    cmsis_os.o                         940
    cpu_utils.o                        136                  24
    def.o                               38
    dhcp.o                           2 858          1       56
    diskio.o                           120
    etharp.o                         1 672                 201
    ethernetif.o                       888          8       76   15 560
    ff.o                             7 748                 132
    ff_gen_drv.o                        68                  16
    ft5336.o                           632          7       46
    games_win.o                      3 892    162 115    1 936
    gardening_control_win.o          1 044    449 416       44
    heap_4.o                           436                  24
    home_alarm_win.o                 3 268  2 529 147       56
    icmp.o                             364
    inet_chksum.o                      190
    init.o                              38
    ip.o                               548                  18
    ip_addr.o                           52          8
    k_bsp.o                            240                  12
    k_menu.o                         1 120                  13
    k_module.o                         116                 244
    k_rtc.o                            120                  32
    k_startup.o                        196     81 840
    k_storage.o                        832        165    2 160
    list.o                             142
    lwip_timers.o                      428                   8
    main.o                             596         12        4   30 720
    mem.o                              592               5 156
    memp.o                             160              19 904
    netbuf.o                           114
    netif.o                            274                  12
    pbuf.o                             844
    port.o                             472          2       12
    portasm.o                          172
    queue.o                          1 828                  64
    raw.o                              360                   4
    settings_win.o                   1 204  1 076 347      340
    sockets.o                        1 668                 104
    startup_stm32f746xx.o              832
    stm32746g_discovery.o              588                  60
    stm32746g_discovery_audio.o      1 810          2      512
    stm32746g_discovery_qspi.o         820                  68
    stm32746g_discovery_sdram.o        648         17      180
    stm32746g_discovery_ts.o           464                  52
    stm32f7xx_hal.o                     92                   4
    stm32f7xx_hal_cortex.o             288
    stm32f7xx_hal_dma.o              4 008
    stm32f7xx_hal_eth.o              1 782
    stm32f7xx_hal_gpio.o               826
    stm32f7xx_hal_hcd.o              1 794
    stm32f7xx_hal_i2c.o              1 340
    stm32f7xx_hal_ltdc.o             1 280
    stm32f7xx_hal_msp_template.o         2
    stm32f7xx_hal_pwr_ex.o             116
    stm32f7xx_hal_qspi.o             1 678
    stm32f7xx_hal_rcc.o              1 320
    stm32f7xx_hal_rcc_ex.o           1 588
    stm32f7xx_hal_rng.o                170
    stm32f7xx_hal_rtc.o                212
    stm32f7xx_hal_rtc_ex.o              20
    stm32f7xx_hal_sai.o              1 070
    stm32f7xx_hal_sai_ex.o              88
    stm32f7xx_hal_sdram.o              152
    stm32f7xx_it.o                     104
    stm32f7xx_ll_fmc.o                 332
    stm32f7xx_ll_usb.o               1 574
    sys_arch.o                         424                   2
    syscall.o                           76
    system_stm32f7xx.o                  80                   4
    tasks.o                          2 496         27      396
    tcp.o                            2 372          5       35
    tcp_in.o                         2 956                  48
    tcp_out.o                        2 522
    tcpip.o                            356                  12
    timers.o                           856                  56
    udp.o                              894          1        8
    unicode.o                        1 300
    usbh_conf.o                        604                 660
    usbh_core.o                      1 132         12
    usbh_ctlreq.o                    1 052
    usbh_diskio.o                      356         20      512
    usbh_ioreq.o                       140
    usbh_msc.o                       1 326         10       32
    usbh_msc_bot.o                     558
    usbh_msc_scsi.o                    672
    usbh_pipes.o                       112
    video_player_win.o               6 132    972 323    8 349
    vnc_app.o                          972        208      307
    vnc_server_win.o                 1 592    457 668       48
    wm8994.o                         1 898          8       56
    -------------------------------------------------------------------
    Total:                         111 958  6 346 589  183 579   64 736

command line: [2]
    -------------------------------------------------------------------
    Total:

STM32746G_Discovery_STemWin_Addons_IAR.a: [3]
    STHEADER_Skin.o                    828
    STSCROLLBAR_Skin.o                 664
    STSLIDER_SKIN.o                    328
    ST_AnimatedIconView.o            4 148         11       72
    ST_Fonts.o                                108 576
    -------------------------------------------------------------------
    Total:                           5 968    108 587       72

STemWin528_CM7_OS_IAR_ot.a: [4]
    BUTTON.o                           852         11       60
    BUTTON_Bitmap.o                     34
    BUTTON_Color.o                      54
    BUTTON_Create.o                     28
    BUTTON_CreateIndirect.o             68
    BUTTON_Get.o                       126
    BUTTON_GetBitmap.o                  66
    BUTTON_Skin.o                      208          2       12
    BUTTON_SkinFlex.o                  680         22      128
    BUTTON__SetBitmapObj.o              66
    CHOOSEFILE.o                     4 324        282       56
    DIALOG.o                           308
    DROPDOWN.o                       1 900         10       60
    DROPDOWN_AddString.o                64
    DROPDOWN_CreateIndirect.o           56
    DROPDOWN_Default.o                  32
    DROPDOWN_DeleteItem.o               72
    DROPDOWN_GetNumItems.o              44
    DROPDOWN_InsertString.o            138
    DROPDOWN_Skin.o                    176          2       12
    DROPDOWN_SkinFlex.o                660         31      176
    F08_1.o                                     1 592
    F08_ASCII.o                                 1 532
    F10_1.o                                     2 008
    F10_ASCII.o                                 1 952
    F13B_1.o                                    2 496
    F13B_ASCII.o                                2 496
    F13_1.o                                     2 436
    F13_ASCII.o                                 2 364
    F16B_1.o                                    2 784
    F16B_ASCII.o                                2 696
    F16_1.o                                     2 880
    F16_1HK.o                                      60
    F16_ASCII.o                                 2 720
    F16_HK.o                                    6 760
    F20_ASCII.o                                 4 048
    F24_1.o                                     5 016
    F24_ASCII.o                                 4 756
    F6x8.o                                      1 816
    FRAMEWIN.o                       2 856          7       44
    FRAMEWIN_CreateIndirect.o           64
    FRAMEWIN_Default.o                  56
    FRAMEWIN_Get.o                      48
    FRAMEWIN_SetColors.o                54
    FRAMEWIN_SetFont.o                 112
    FRAMEWIN_Skin.o                    356          4       20
    FRAMEWIN_SkinFlex.o                924         16       88
    FRAMEWIN__UpdateButtons.o          226
    GUIAA_Char4.o                      304         20      112
    GUIAA_Char4Ext.o                   172
    GUIAA_Circle.o                     784
    GUIAA_DrawRoundedRect.o          1 056
    GUIAA_FillRoundedRect.o            548
    GUIAA_Lib.o                        904                  60
    GUICC_0.o                          200         24
    GUICC_8666.o                       180
    GUICC_8888.o                        40         24
    GUICC_8888_Index2Color.o             2
    GUICC_888_Index2Color.o              2
    GUICC_M1555I.o                     280         24        8
    GUICC_M8888I.o                     208         24        8
    GUIDEV.o                           836
    GUIDEV_16.o                      2 520
    GUIDEV_32.o                      2 564
    GUIDEV_Banding.o                   292                   4
    GUIDEV_Clear.o                      72
    GUIDEV_CreateFixed.o                60
    GUIDEV_GetDataPtr.o                 46
    GUIDEV_GetPos.o                    104
    GUIDEV_GetYSize.o                   56
    GUIDEV_ReduceYSize.o                60
    GUIDEV_SetOrg.o                    116
    GUIDEV_StaticDevices.o             368          1        1
    GUIDEV_Usage.o                      96
    GUIDEV_UsageBM.o                   516
    GUIDEV_Write.o                     232
    GUIDEV_WriteToActiveAlpha.o        376
    GUIDEV_WriteToActiveOpaque.o     1 900
    GUIDRV_Lin_16.o                  3 928         52
    GUIDRV_Lin_32.o                  3 256         52
    GUIVNC_Authentication.o            192          2       32
    GUIVNC_DES.o                     3 388                 128
    GUIVNC_Process.o                 7 972        303    1 684
    GUI_2DLib.o                        140
    GUI_ALLOC_AllocInit.o               70
    GUI_ALLOC_AllocZero.o               50
    GUI_ARRAY.o                        628
    GUI_ARRAY_DeleteItem.o             100
    GUI_ARRAY_InsertItem.o             192
    GUI_ARRAY_ResizeItem.o             106
    GUI_Alloc.o                      2 656                 212
    GUI_CalcColorDist.o                 62
    GUI_Char.o                         244
    GUI_CharLine.o                     476                   4
    GUI_CharM.o                        394
    GUI_CharP.o                        318
    GUI_CharPExt.o                     196
    GUI_Circ.o                         596
    GUI_ClearRectEx.o                   20
    GUI_Core.o                         528         27      190
    GUI_Curs1.o                        380                  52
    GUI_CursorHeaderM.o                            32
    GUI_CursorHeaderMPx.o                          88
    GUI_CursorPal.o                                24
    GUI_DRAW.o                         120
    GUI_DRAW_BITMAP.o                  184
    GUI_Device.o                       716
    GUI_DispChar.o                     172
    GUI_DispString.o                   264
    GUI_DispStringAt.o                  40
    GUI_DispStringHCenter.o             56
    GUI_DispStringInRect.o             420
    GUI_DispStringInRectWrap.o         360
    GUI_DrawBitmap.o                   260
    GUI_DrawBitmap_24.o                384         16
    GUI_DrawBitmap_8888.o            1 012         16
    GUI_DrawFocusRect.o                184
    GUI_DrawGradient.o                 788
    GUI_DrawHLine.o                     92
    GUI_DrawLine.o                   1 272
    GUI_DrawPixel.o                     88
    GUI_DrawPoint.o                     32
    GUI_DrawRectEx.o                    20
    GUI_DrawVLine.o                     88
    GUI_EncExt.o                       296         13        8
    GUI_Exec.o                          68
    GUI_FillPolygon.o                  620                  28
    GUI_FillRect.o                      88
    GUI_FillRectEx.o                    20
    GUI_GIF.o                        4 420          1      260
    GUI_GetBitmapPixelIndex.o          182
    GUI_GetClientRect.o                 10
    GUI_GetColor.o                      48
    GUI_GetDrawMode.o                   24
    GUI_GetFont.o                       24
    GUI_GetFontSizeY.o                  20
    GUI_GetOrg.o                        48
    GUI_GetStringDistX.o                20
    GUI_GetYSizeOfFont.o                20
    GUI_Goto.o                          36
    GUI_JPEG.o                      24 400
    GUI_JPEG_DrawScaled.o            1 244
    GUI_MOUSE.o                         44                  12
    GUI_MOVIE.o                      1 500
    GUI_MULTIBUF.o                     272          8       36
    GUI_MergeRect.o                     94
    GUI_MoveRect.o                      28
    GUI_OnKey.o                        140         18      104
    GUI_PID.o                          260         14       84
    GUI_Pen.o                           52
    GUI_Realloc.o                       94
    GUI_RectsIntersect.o                56
    GUI_SPRITE.o                     8 076
    GUI_SaveContext.o                   28
    GUI_SelectLCD.o                     30
    GUI_SelectLayer.o                  200                   8
    GUI_SetAlpha.o                      36                  32
    GUI_SetColor.o                      44
    GUI_SetColorIndex.o                 36
    GUI_SetDefault.o                    68
    GUI_SetDrawMode.o                   24
    GUI_SetFont.o                       36
    GUI_SetLineStyle.o                  32
    GUI_SetOrg.o                        68
    GUI_SetPixelIndex.o                 72
    GUI_SetTextAlign.o                  36
    GUI_SetTextMode.o                   36
    GUI_TOUCH.o                         44                  12
    GUI_Task.o                         436          5       28
    GUI_Time.o                         104
    GUI_Timer.o                        856                  20
    GUI_UC.o                            80
    GUI_UC_EncodeNone.o                 36
    GUI_WaitEvent.o                     20                   4
    GUI__Alpha.o                     1 000          1       36
    GUI__CompactPixelIndices.o         652
    GUI__DivTbl_255_31.o                          256
    GUI__DivTbl_31_255.o                           32
    GUI__DivideRound32.o                24
    GUI__DrawTwinArc.o               1 120
    GUI__ExpandPixelIndices.o          578
    GUI__GetFontSizeY.o                 20
    GUI__GetNumChars.o                  28
    GUI__HandleEOLine.o                 22
    GUI__IntersectRect.o                64
    GUI__IntersectRects.o               96
    GUI__ManageCache.o                 212                  20
    GUI__Read.o                         48
    GUI__ReduceRect.o                   26
    GUI__SetPixelAlpha.o               104
    GUI__SetText.o                     112
    GUI__Wrap.o                        332          1        8
    GUI__memset.o                      262
    GUI__memset16.o                     88
    GUI__sqrt32.o                       26
    GUI__strcmp.o                      112
    GUI__strlen.o                       22
    HEADER.o                         2 444          7       40
    HEADER_Default.o                    36
    HEADER_GetSel.o                     40
    HEADER_Skin.o                      316          2       12
    HEADER_SkinFlex.o                  732          5       28
    IMAGE.o                          1 312                  12
    IMAGE_Bitmap.o                     152
    IMAGE_GIF.o                        492
    LCD.o                            1 972         13        4
    LCD_AA.o                           240          1        4
    LCD_Color.o                        424          3       16
    LCD_GetColorIndex.o                 24
    LCD_GetEx.o                        652
    LCD_GetNumDisplays.o                28
    LCD_GetP.o                          96
    LCD_GetPixelColor.o                 18
    LCD_Mirror.o                                  256
    LCD_NextPixelAPI.o                 600          3       64
    LCD_ReadRect.o                     578
    LCD_SelectLCD.o                     68
    LCD_Set.o                          392
    LCD_SetClipRectEx.o                 52
    LCD_UpdateColorIndices.o            36
    LISTBOX.o                        5 060          9       56
    LISTBOX_AddStringH.o               186
    LISTBOX_Create.o                    38
    LISTBOX_DeleteItem.o               152
    LISTBOX_Font.o                      56
    LISTBOX_InsertString.o             154
    LISTBOX_ItemDisabled.o             104
    LISTBOX_ItemSpacing.o               50
    LISTBOX_SetAutoScroll.o             88
    LISTBOX_SetBkColor.o                54
    LISTBOX_SetOwner.o                  46
    LISTBOX_SetScrollbarColor.o         68
    LISTBOX_SetScrollbarWidth.o         64
    LISTBOX_SetTextAlign.o              46
    LISTBOX_SetTextColor.o              62
    LISTVIEW.o                       5 768          9       49
    LISTVIEW_CreateIndirect.o           56
    LISTVIEW_Default.o                  36
    LISTVIEW_DeleteAllRows.o            32
    LISTVIEW_DeleteRow.o               316
    LISTVIEW_DisableRow.o               28
    LISTVIEW_GetHeader.o                40
    LISTVIEW_GetItemText.o             134
    LISTVIEW_GetNumColumns.o            52
    LISTVIEW_GetNumRows.o               52
    LISTVIEW_GetSel.o                   42
    LISTVIEW_GetWrapMode.o              42
    LISTVIEW_SetAutoScroll.o           144
    LISTVIEW_SetBkColor.o               60
    LISTVIEW_SetColumnWidth.o           50
    LISTVIEW_SetFont.o                  58
    LISTVIEW_SetGridVis.o               64
    LISTVIEW_SetItemColor.o            434
    LISTVIEW_SetItemText.o             162
    LISTVIEW_SetLBorder.o               98
    LISTVIEW_SetRBorder.o               42
    LISTVIEW_SetRowHeight.o             72
    LISTVIEW_SetSel.o                   36
    LISTVIEW_SetSort.o               1 364
    LISTVIEW_SetTextAlign.o             80
    LISTVIEW_SetTextColor.o             60
    LISTVIEW_UserData.o                134
    SCROLLBAR.o                      1 686          4       26
    SCROLLBAR_Create.o                  54
    SCROLLBAR_Defaults.o                48
    SCROLLBAR_SetColor.o                64
    SCROLLBAR_SetWidth.o                38
    SCROLLBAR_Skin.o                   616          2       12
    SCROLLBAR_SkinFlex.o             1 056         15       88
    SLIDER.o                           838          4       28
    SLIDER_Color.o                     122
    SLIDER_Skin.o                      524          2       12
    SLIDER_SkinFlex.o                1 084         15       88
    TEXT.o                             504          3       16
    TEXT_CreateIndirect.o               60
    TEXT_Default.o                      16
    TEXT_SetFont.o                      52
    TEXT_SetText.o                      90
    TEXT_SetTextColor.o                 52
    WIDGET.o                         1 152          1        4
    WIDGET_Effect_None.o                10         28
    WIDGET_Effect_Simple.o             212         28        4
    WIDGET_SetEffect.o                  26
    WIDGET_SetWidth.o                   62
    WINDOW.o                           584                   4
    WINDOW_Default.o                    12
    WM.o                             7 648                 125
    WM_BringToBottom.o                 144
    WM_BringToTop.o                    128
    WM_CheckScrollPos.o                128
    WM_CriticalHandle.o                 80
    WM_EnableWindow.o                  144
    WM_ForEachDesc.o                    30
    WM_GetCallback.o                    40
    WM_GetClientRect.o                 160
    WM_GetClientWindow.o                24
    WM_GetDesktopWindow.o               24
    WM_GetDesktopWindowEx.o             20
    WM_GetDialogItem.o                 100
    WM_GetFirstChild.o                  26
    WM_GetFlags.o                       32
    WM_GetFocussedWindow.o              32
    WM_GetId.o                          52
    WM_GetInsideRect.o                  52
    WM_GetInsideRectExScrollbar.o      168
    WM_GetNextSibling.o                 26
    WM_GetOrg.o                         66
    WM_GetParent.o                      26
    WM_GetScrollPartner.o               44
    WM_GetScrollState.o                 20
    WM_GetScrollbar.o                  150
    WM_GetWindowRect.o                  48
    WM_GetWindowSize.o                 140
    WM_HasCaptured.o                    32
    WM_HasFocus.o                       32
    WM_Hide.o                           58
    WM_IsFocussable.o                   32
    WM_IsWindow.o                       24
    WM_MULTIBUF.o                       28
    WM_MakeModal.o                     124
    WM_MemDev.o                         40
    WM_Move.o                          392
    WM_MoveChildTo.o                   100
    WM_NotifyParent.o                   20
    WM_OnKey.o                          64
    WM_PID__GetPrevState.o              24                  24
    WM_Paint.o                         104
    WM_ResizeWindow.o                  252
    WM_Screen2Win.o                    184
    WM_SendMessageNoPara.o              30
    WM_SendToParent.o                   44
    WM_SetCallback.o                    50
    WM_SetCapture.o                    124
    WM_SetCaptureMove.o                152                   4
    WM_SetFocus.o                      188
    WM_SetFocusOnNextChild.o           144
    WM_SetFocusOnPrevChild.o           100
    WM_SetScrollState.o                 26
    WM_SetScrollbar.o                  160
    WM_SetSize.o                        84
    WM_SetTrans.o                      178
    WM_SetUserClipRect.o                36
    WM_SetWindowPos.o                   30
    WM_SetXSize.o                       78
    WM_SetYSize.o                       80
    WM_Show.o                          142
    WM_Timer.o                         432
    WM_ToolTip.o                       160         10       56
    WM_Touch.o                       1 276         15       84
    WM_UserData.o                      128
    WM_ValidateWindow.o                 60
    WM__ForEachDesc.o                   44
    WM__GetFirstSibling.o               20
    WM__GetFocussedChild.o              40
    WM__GetLastSibling.o                26
    WM__GetOrg_AA.o                     44
    WM__GetPrevSibling.o                42
    WM__IsAncestor.o                    92
    WM__IsChild.o                       38
    WM__IsEnabled.o                     22
    WM__Screen2Client.o                 20
    WM__SendMessage.o                   64                   4
    WM__SendMessageIfEnabled.o          32
    WM__SendMessageNoPara.o             60
    WM__UpdateChildPositions.o         234
    -------------------------------------------------------------------
    Total:                         162 356     52 312    4 715

dl7M_tlf.a: [5]
    abort.o                              6
    div.o                               14
    dlmalloc.o                       5 360                 496
    exit.o                               4
    localeconv.o                       108         24      136
    low_level_init.o                     4
    rand.o                             224         24      140
    setlocale.o                         20         20      116
    sprintf.o                           52
    srand.o                             32
    strcat.o                            28
    strrchr.o                           24
    strstr.o                            44
    xencoding_sb.o                      96
    xgetmemchunk.o                      44                   4
    xmbcurmax.o                         10
    xmbtowc.o                           32
    xprintffull.o                    4 434
    xsprout.o                           10
    xtls.o                               2
    xwctomb.o                           26
    -------------------------------------------------------------------
    Total:                          10 574         68      892

lib_equalizer_cortex_m4.a: [6]
    flt.o                            1 828        124
    -------------------------------------------------------------------
    Total:                           1 828        124

lib_loudness_cortex_m4.a: [7]
    filter.o                         1 920      1 256
    -------------------------------------------------------------------
    Total:                           1 920      1 256

m7M_tls.a: [8]
    DblAdd.o                           212
    DblCmpGe.o                          46
    DblCmpLe.o                          46
    DblDiv.o                           598
    DblMul.o                           418
    DblSub.o                           384
    DblToI32.o                          88
    I32ToDbl.o                          48
    fpinit_M.o                          34
    xdnorm.o                            66
    xdscale.o                          276
    -------------------------------------------------------------------
    Total:                           2 216

rt7M_tl.a: [9]
    ABImemclr.o                          6
    ABImemclr4.o                         6
    ABImemcpy_unaligned.o              118
    ABImemmove_unaligned.o             120
    ABImemset.o                        102
    ABImemset48.o                       58
    I64DivMod.o                        238
    I64DivZer.o                          2
    XXexit.o                            12
    cexit.o                             10
    cmain.o                             26
    cstartup_M.o                        12
    data_init.o                         40
    lz77_init.o                        450
    memchr.o                            88
    memcmp_unaligned.o                  98
    strchr.o                            22
    strcmp_unaligned.o                  66
    strcpy_unaligned.o                  68
    strlen.o                            54
    strncpy_unaligned.o                108
    zero_init3.o                        64
    -------------------------------------------------------------------
    Total:                           1 768

    Gaps                               146         10        3
    Linker created                                 60    8 704
-----------------------------------------------------------------------
    Grand Total:                   298 734  6 509 006  197 965   64 736


*******************************************************************************
*** ENTRY LIST
***

Entry                      Address     Size  Type      Object
-----                      -------     ----  ----      ------
.iar.init_table$$Base   0x08093260            --   Gb  - Linker created -
.iar.init_table$$Limit  0x0809329c            --   Gb  - Linker created -
?main                   0x08093385           Code  Gb  cmain.o [9]
APBAHBPrescTable        0x08047c28     0x10  Data  Gb  stm32f7xx_hal_rcc.o [1]
API                     0x080434a8     0x18  Data  Lc  GUIDEV_UsageBM.o [4]
AUDIOPLAYER_DeInit      0x0804f5b5     0x52  Code  Gb  audio_player_app.o [1]
AUDIOPLAYER_GetFileInfo
                        0x0804f68f     0x44  Code  Gb  audio_player_app.o [1]
AUDIOPLAYER_GetProgress
                        0x0804f6f3      0x8  Code  Gb  audio_player_app.o [1]
AUDIOPLAYER_GetState    0x0804f521      0x6  Code  Gb  audio_player_app.o [1]
AUDIOPLAYER_GetVolume   0x0804f527      0x6  Code  Gb  audio_player_app.o [1]
AUDIOPLAYER_Init        0x0804f2e5    0x176  Code  Gb  audio_player_app.o [1]
AUDIOPLAYER_Mute        0x0804f685      0xa  Code  Gb  audio_player_app.o [1]
AUDIOPLAYER_NotifyEndOfFile
                        0x0804cb59     0x86  Code  Gb  audio_player_win.o [1]
AUDIOPLAYER_Pause       0x0804f629     0x14  Code  Gb  audio_player_app.o [1]
AUDIOPLAYER_Play        0x0804f545     0x46  Code  Gb  audio_player_app.o [1]
AUDIOPLAYER_Process     0x0804f58b     0x2a  Code  Gb  audio_player_app.o [1]
AUDIOPLAYER_Resume      0x0804f63d     0x14  Code  Gb  audio_player_app.o [1]
AUDIOPLAYER_SelectFile  0x0804f6d3     0x20  Code  Gb  audio_player_app.o [1]
AUDIOPLAYER_SetPosition
                        0x0804f651     0x34  Code  Gb  audio_player_app.o [1]
AUDIOPLAYER_SetVolume   0x0804f52d     0x18  Code  Gb  audio_player_app.o [1]
AUDIOPLAYER_Stop        0x0804f607     0x22  Code  Gb  audio_player_app.o [1]
AUDIO_EQ_Bands          0x2003d94c     0x50  Data  Gb  audio_player_app.o [1]
AUDIO_EqInstance        0x2003d9ac    0x12c  Data  Gb  audio_player_app.o [1]
AUDIO_Error_CallBack    0x0804f74d      0x8  Code  Lc  audio_player_app.o [1]
AUDIO_Error_CallBack    0x0805f52d      0x4  Code  Lc  audio_recorder_app.o [1]
AUDIO_HalfTransfer_CallBack
                        0x0804f71d     0x24  Code  Lc  audio_player_app.o [1]
AUDIO_HalfTransfer_CallBack
                        0x0805f4fd     0x24  Code  Lc  audio_recorder_app.o [1]
AUDIO_IF_RegisterCallbacks
                        0x0805893d      0xa  Code  Gb  audio_if.o [1]
AUDIO_IO_DeInit         0x0806d3bb      0x2  Code  Gb  stm32746g_discovery.o [1]
AUDIO_IO_Delay          0x0806d3f1      0x4  Code  Gb  stm32746g_discovery.o [1]
AUDIO_IO_Init           0x0806d3b9      0x2  Code  Gb  stm32746g_discovery.o [1]
AUDIO_IO_Read           0x0806d3cf     0x22  Code  Gb  stm32746g_discovery.o [1]
AUDIO_IO_Write          0x0806d3bd     0x12  Code  Gb  stm32746g_discovery.o [1]
AUDIO_LdCtrlInstanceParams
                        0x2003d9a4      0x4  Data  Gb  audio_player_app.o [1]
AUDIO_LdCtrlPersistance
                        0x2003dad8     0x78  Data  Gb  audio_player_app.o [1]
AUDIO_LdCtrlScratch     0x2003db50    0x200  Data  Gb  audio_player_app.o [1]
AUDIO_RECORDER_DeInit   0x0805f355     0x74  Code  Gb  audio_recorder_app.o [1]
AUDIO_RECORDER_GetElapsedTime
                        0x0805f5d5      0x8  Code  Gb  audio_recorder_app.o [1]
AUDIO_RECORDER_GetPlayedTime
                        0x0805f5dd      0x8  Code  Gb  audio_recorder_app.o [1]
AUDIO_RECORDER_GetState
                        0x0805f22d      0x8  Code  Gb  audio_recorder_app.o [1]
AUDIO_RECORDER_GetTotalTime
                        0x0805f5ed      0xa  Code  Gb  audio_recorder_app.o [1]
AUDIO_RECORDER_Init     0x0805f1d9     0x54  Code  Gb  audio_recorder_app.o [1]
AUDIO_RECORDER_PauseResume
                        0x0805f46f     0x4a  Code  Gb  audio_recorder_app.o [1]
AUDIO_RECORDER_Play     0x0805f2ff     0x56  Code  Gb  audio_recorder_app.o [1]
AUDIO_RECORDER_RemoveAudioFile
                        0x0805f2c9      0x4  Code  Gb  audio_recorder_app.o [1]
AUDIO_RECORDER_SelectFile
                        0x0805f2cd     0x32  Code  Gb  audio_recorder_app.o [1]
AUDIO_RECORDER_StartRec
                        0x0805f235     0x94  Code  Gb  audio_recorder_app.o [1]
AUDIO_RECORDER_StopPlayer
                        0x0805f445     0x2a  Code  Gb  audio_recorder_app.o [1]
AUDIO_RECORDER_StopRec  0x0805f3c9     0x7c  Code  Gb  audio_recorder_app.o [1]
AUDIO_SetEq             0x0804f463     0x3c  Code  Gb  audio_player_app.o [1]
AUDIO_SetEqParams       0x0804f4dd     0x44  Code  Gb  audio_player_app.o [1]
AUDIO_SetLoudnessGain   0x0804f49f     0x3e  Code  Gb  audio_player_app.o [1]
AUDIO_TransferComplete_CallBack
                        0x0804f6fd     0x20  Code  Lc  audio_player_app.o [1]
AUDIO_TransferComplete_CallBack
                        0x0805f4dd     0x20  Code  Lc  audio_recorder_app.o [1]
AudioEvent              0x2003d99c      0x4  Data  Lc  audio_player_app.o [1]
AudioEvent              0x2003fcd0      0x4  Data  Lc  audio_recorder_app.o [1]
AudioIf                 0x2003ff94      0xc  Data  Lc  audio_if.o [1]
AudioInVolume           0x20013e70      0x2  Data  Gb  stm32746g_discovery_audio.o [1]
AudioInfo               0x2003fdd4     0x2c  Data  Lc  audio_recorder_app.o [1]
AudioThreadId           0x2003d9a0      0x4  Data  Lc  audio_player_app.o [1]
AudioThreadId           0x2003fcd4      0x4  Data  Lc  audio_recorder_app.o [1]
Audio_FilePos           0x20012932      0x2  Data  Lc  audio_player_win.o [1]
Audio_Thread            0x0804f755     0x96  Code  Lc  audio_player_app.o [1]
Audio_Thread            0x0805f539     0x9c  Code  Lc  audio_recorder_app.o [1]
BSP_AUDIO_IN_DeInit     0x080577f5     0x10  Code  Gb  stm32746g_discovery_audio.o [1]
BSP_AUDIO_IN_Error_CallBack
                        0x0805f4db      0x2  Code  Gb  audio_recorder_app.o [1]
BSP_AUDIO_IN_HalfTransfer_CallBack
                        0x0805f4cf      0x6  Code  Gb  audio_recorder_app.o [1]
BSP_AUDIO_IN_Init       0x0805770d     0x7c  Code  Gb  stm32746g_discovery_audio.o [1]
BSP_AUDIO_IN_MspDeInit  0x08057925     0x24  Code  Wk  stm32746g_discovery_audio.o [1]
BSP_AUDIO_IN_MspInit    0x08057815     0xb4  Code  Wk  stm32746g_discovery_audio.o [1]
BSP_AUDIO_IN_Pause      0x080577dd      0x4  Code  Gb  stm32746g_discovery_audio.o [1]
BSP_AUDIO_IN_Record     0x0805779f     0x10  Code  Gb  stm32746g_discovery_audio.o [1]
BSP_AUDIO_IN_Resume     0x080577e9      0x4  Code  Gb  stm32746g_discovery_audio.o [1]
BSP_AUDIO_IN_Stop       0x080577af     0x22  Code  Gb  stm32746g_discovery_audio.o [1]
BSP_AUDIO_IN_TransferComplete_CallBack
                        0x0805f4c7      0x8  Code  Gb  audio_recorder_app.o [1]
BSP_AUDIO_OUT_ChangeBuffer
                        0x08057475      0xc  Code  Gb  stm32746g_discovery_audio.o [1]
BSP_AUDIO_OUT_ClockConfig
                        0x080576ad     0x56  Code  Wk  stm32746g_discovery_audio.o [1]
BSP_AUDIO_OUT_DeInit    0x08057549     0x12  Code  Gb  stm32746g_discovery_audio.o [1]
BSP_AUDIO_OUT_Error_CallBack
                        0x0805895f      0xc  Code  Gb  audio_if.o [1]
BSP_AUDIO_OUT_HalfTransfer_CallBack
                        0x08058953      0xc  Code  Gb  audio_if.o [1]
BSP_AUDIO_OUT_Init      0x08057385     0xb8  Code  Gb  stm32746g_discovery_audio.o [1]
BSP_AUDIO_OUT_MspDeInit
                        0x08057661     0x42  Code  Wk  stm32746g_discovery_audio.o [1]
BSP_AUDIO_OUT_MspInit   0x080575ab     0x88  Code  Wk  stm32746g_discovery_audio.o [1]
BSP_AUDIO_OUT_Pause     0x08057481     0x1a  Code  Gb  stm32746g_discovery_audio.o [1]
BSP_AUDIO_OUT_Play      0x0805743d     0x38  Code  Gb  stm32746g_discovery_audio.o [1]
BSP_AUDIO_OUT_Resume    0x0805749b     0x1a  Code  Gb  stm32746g_discovery_audio.o [1]
BSP_AUDIO_OUT_SetAudioFrameSlot
                        0x0805752b     0x1e  Code  Gb  stm32746g_discovery_audio.o [1]
BSP_AUDIO_OUT_SetFrequency
                        0x08057503     0x28  Code  Gb  stm32746g_discovery_audio.o [1]
BSP_AUDIO_OUT_SetMute   0x080574eb     0x10  Code  Gb  stm32746g_discovery_audio.o [1]
BSP_AUDIO_OUT_SetVolume
                        0x080574d9     0x12  Code  Gb  stm32746g_discovery_audio.o [1]
BSP_AUDIO_OUT_Stop      0x080574b5     0x24  Code  Gb  stm32746g_discovery_audio.o [1]
BSP_AUDIO_OUT_TransferComplete_CallBack
                        0x08058947      0xc  Code  Gb  audio_if.o [1]
BSP_QSPI_Init           0x08055509     0xda  Code  Gb  stm32746g_discovery_qspi.o [1]
BSP_QSPI_MemoryMappedMode
                        0x08055613     0x4a  Code  Gb  stm32746g_discovery_qspi.o [1]
BSP_QSPI_MspInit        0x0805565d     0xc6  Code  Wk  stm32746g_discovery_qspi.o [1]
BSP_SDRAM_Init          0x0806939d     0x6e  Code  Gb  stm32746g_discovery_sdram.o [1]
BSP_SDRAM_Initialization_sequence
                        0x08069413     0x74  Code  Gb  stm32746g_discovery_sdram.o [1]
BSP_SDRAM_MspInit       0x080694a3    0x14c  Code  Wk  stm32746g_discovery_sdram.o [1]
BSP_TS_GetState         0x08069659    0x140  Code  Gb  stm32746g_discovery_ts.o [1]
BSP_TS_Get_GestureId    0x08069799     0x52  Code  Gb  stm32746g_discovery_ts.o [1]
BSP_TS_Init             0x08069625     0x34  Code  Gb  stm32746g_discovery_ts.o [1]
BUTTON_Callback         0x0804ecbf    0x13e  Code  Gb  BUTTON.o [4]
BUTTON_CreateAsChild    0x0805e4ff     0x1c  Code  Gb  BUTTON_Create.o [4]
BUTTON_CreateEx         0x0804ee69     0x6a  Code  Gb  BUTTON.o [4]
BUTTON_CreateIndirect   0x08092fb5     0x44  Code  Gb  BUTTON_CreateIndirect.o [4]
BUTTON_CreateUser       0x0804edfd     0x6c  Code  Gb  BUTTON.o [4]
BUTTON_DrawSkinFlex     0x08090905    0x298  Code  Gb  BUTTON_SkinFlex.o [4]
BUTTON_GetBitmap        0x0805da09     0x42  Code  Gb  BUTTON_GetBitmap.o [4]
BUTTON_GetFont          0x0805d977     0x28  Code  Gb  BUTTON_Get.o [4]
BUTTON_GetText          0x0805d99f     0x56  Code  Gb  BUTTON_Get.o [4]
BUTTON_SetBitmapEx      0x0805de0f     0x22  Code  Gb  BUTTON_Bitmap.o [4]
BUTTON_SetDefaultSkin   0x08069af5     0x10  Code  Gb  BUTTON_Skin.o [4]
BUTTON_SetFocussable    0x0804ef65     0x10  Code  Gb  BUTTON.o [4]
BUTTON_SetFont          0x0804ef39     0x2c  Code  Gb  BUTTON.o [4]
BUTTON_SetText          0x0804eee1     0x58  Code  Gb  BUTTON.o [4]
BUTTON_SetTextColor     0x0805ddd9     0x36  Code  Gb  BUTTON_Color.o [4]
BUTTON__DefaultProps    0x200139a8     0x30  Data  Gb  BUTTON.o [4]
BUTTON__SetDrawObj      0x08064e3d     0x42  Code  Gb  BUTTON__SetBitmapObj.o [4]
BUTTON__Skin            0x20013e34      0xc  Data  Gb  BUTTON_Skin.o [4]
BUTTON__pSkinDefault    0x200139d8      0x4  Data  Gb  BUTTON.o [4]
BusFault_Handler        0x08092eab      0x2  Code  Gb  stm32f7xx_it.o [1]
CHOOSEFILE_Callback     0x08054dbf    0x2a0  Code  Gb  CHOOSEFILE.o [4]
CHOOSEFILE_Create       0x08055065    0x436  Code  Gb  CHOOSEFILE.o [4]
CHOOSEFILE_SetDelim     0x080554a5      0x6  Code  Gb  CHOOSEFILE.o [4]
CL_DispChar             0x0806a1fd     0x82  Code  Lc  GUI_DispChar.o [4]
CODEC_IO_Write          0x0808a485      0xa  Code  Lc  wm8994.o [1]
CSTACK$$Base            0x200400d8            --   Gb  - Linker created -
CSTACK$$Limit           0x200402d8            --   Gb  - Linker created -
Command                 0x20013684     0x10  Data  Lc  stm32746g_discovery_sdram.o [1]
Connection_accepted     0x20040074      0x4  Data  Lc  vnc_app.o [1]
DMA2D_CopyBuffer        0x08043023     0x3a  Code  Lc  LCDConf.o [1]
DMA2D_FillBuffer        0x0804305d     0x30  Code  Lc  LCDConf.o [1]
DMA2_Stream4_IRQHandler
                        0x08092edd      0x8  Code  Gb  stm32f7xx_it.o [1]
DMA2_Stream7_IRQHandler
                        0x08092ee5      0x8  Code  Gb  stm32f7xx_it.o [1]
DMARxDscrTab            0x2000e000     0xa0  Data  Gb  ethernetif.o [1]
DMATxDscrTab            0x2000e100     0xa0  Data  Gb  ethernetif.o [1]
DMA_SetConfig           0x0805f6ed     0x1e  Code  Lc  stm32f7xx_hal_dma.o [1]
DROPDOWN_AddKey         0x0805d671     0xe0  Code  Gb  DROPDOWN.o [4]
DROPDOWN_AddString      0x0805de31     0x40  Code  Gb  DROPDOWN_AddString.o [4]
DROPDOWN_Callback       0x0805d1b5    0x1dc  Code  Gb  DROPDOWN.o [4]
DROPDOWN_CreateIndirect
                        0x08093129     0x38  Code  Gb  DROPDOWN_CreateIndirect.o [4]
DROPDOWN_CreateUser     0x0805d391     0xae  Code  Gb  DROPDOWN.o [4]
DROPDOWN_DeleteItem     0x0805d8a5     0x48  Code  Gb  DROPDOWN_DeleteItem.o [4]
DROPDOWN_DrawSkinFlex   0x08090d01    0x130  Code  Gb  DROPDOWN_SkinFlex.o [4]
DROPDOWN_Expand         0x0805d449    0x228  Code  Gb  DROPDOWN.o [4]
DROPDOWN_GetDefaultFont
                        0x0805ddb9      0x6  Code  Gb  DROPDOWN_Default.o [4]
DROPDOWN_GetItemText    0x0805d817     0x8e  Code  Gb  DROPDOWN.o [4]
DROPDOWN_GetNumItems    0x08064b4b     0x2c  Code  Gb  DROPDOWN_GetNumItems.o [4]
DROPDOWN_GetSel         0x0805d7a9     0x2a  Code  Gb  DROPDOWN.o [4]
DROPDOWN_InsertString   0x0805d8ed     0x8a  Code  Gb  DROPDOWN_InsertString.o [4]
DROPDOWN_SetDefaultColor
                        0x0805ddbf     0x14  Code  Gb  DROPDOWN_Default.o [4]
DROPDOWN_SetDefaultSkin
                        0x08069ba9     0x10  Code  Gb  DROPDOWN_Skin.o [4]
DROPDOWN_SetSel         0x0805d751     0x58  Code  Gb  DROPDOWN.o [4]
DROPDOWN_SetUpMode      0x0805d7d3     0x44  Code  Gb  DROPDOWN.o [4]
DROPDOWN__AdjustHeight  0x0805d16d     0x48  Code  Gb  DROPDOWN.o [4]
DROPDOWN__DefaultProps  0x200138c4     0x38  Data  Gb  DROPDOWN.o [4]
DROPDOWN__GetNumItems   0x0805d139      0x6  Code  Gb  DROPDOWN.o [4]
DROPDOWN__GetpItemLocked
                        0x0805d13f     0x2e  Code  Gb  DROPDOWN.o [4]
DROPDOWN__Skin          0x20013e40      0xc  Data  Gb  DROPDOWN_Skin.o [4]
DROPDOWN__pSkinDefault  0x200138fc      0x4  Data  Gb  DROPDOWN.o [4]
DeInitStateMachine      0x0805b3c7     0x46  Code  Lc  usbh_core.o [1]
DebugMon_Handler        0x08092eaf      0x2  Code  Gb  stm32f7xx_it.o [1]
Draw8Point              0x08074a69     0x96  Code  Lc  GUI_Circ.o [4]
EQ_SPCORP_Symbol_000    0x08057e39    0x26a  Code  Gb  flt.o [6]
EQ_SPCORP_Symbol_001    0x08057e27     0x12  Code  Gb  flt.o [6]
EQ_SPCORP_Symbol_002    0x08057a99    0x38e  Code  Gb  flt.o [6]
ETHERNET_IRQHandler     0x0808bac9      0x6  Code  Gb  ethernetif.o [1]
ETH_FlushTransmitFIFO   0x0808b9d1     0x24  Code  Lc  stm32f7xx_hal_eth.o [1]
ETH_IRQHandler          0x08092f09      0x4  Code  Gb  stm32f7xx_it.o [1]
ETH_MACDMAConfig        0x0808b8b1     0xe6  Code  Lc  stm32f7xx_hal_eth.o [1]
EXTI9_5_IRQHandler      0x08092ed5      0x8  Code  Gb  stm32f7xx_it.o [1]
EndIdleMonitor          0x08046cc5     0x20  Code  Gb  cpu_utils.o [1]
EthHandle               0x2003faec     0x48  Data  Gb  ethernetif.o [1]
ExCvt                   0x08050bac     0x80  Data  Lc  ff.o [1]
FATFS_LinkDriver        0x0805b35b      0x4  Code  Gb  ff_gen_drv.o [1]
FATFS_LinkDriverEx      0x0805b321     0x3a  Code  Gb  ff_gen_drv.o [1]
FILEMGR_GetFileOnly     0x0804e4bb     0x30  Code  Lc  audio_player_win.o [1]
FILEMGR_GetFileOnly     0x08072411     0x30  Code  Lc  video_player_win.o [1]
FMC_SDRAM_Init          0x0806d0d5     0x74  Code  Gb  stm32f7xx_ll_fmc.o [1]
FMC_SDRAM_ProgramRefreshRate
                        0x0806d215      0xc  Code  Gb  stm32f7xx_ll_fmc.o [1]
FMC_SDRAM_SendCommand   0x0806d1c5     0x50  Code  Gb  stm32f7xx_ll_fmc.o [1]
FMC_SDRAM_Timing_Init   0x0806d149     0x7c  Code  Gb  stm32f7xx_ll_fmc.o [1]
FRAMEWIN_Callback       0x0805c331    0x422  Code  Gb  FRAMEWIN.o [4]
FRAMEWIN_CreateEx       0x0805c90b    0x1b6  Code  Gb  FRAMEWIN.o [4]
FRAMEWIN_CreateIndirect
                        0x08092ff9     0x40  Code  Gb  FRAMEWIN_CreateIndirect.o [4]
FRAMEWIN_CreateUser     0x0805c753    0x1b8  Code  Gb  FRAMEWIN.o [4]
FRAMEWIN_DrawSkinFlex   0x0809025d    0x398  Code  Gb  FRAMEWIN_SkinFlex.o [4]
FRAMEWIN_GetActive      0x080905f9     0x30  Code  Gb  FRAMEWIN_Get.o [4]
FRAMEWIN_GetDefaultClientColor
                        0x0804ef8f      0x6  Code  Gb  FRAMEWIN_Default.o [4]
FRAMEWIN_GetUserData    0x0805cb57      0x6  Code  Gb  FRAMEWIN.o [4]
FRAMEWIN_SetClientColor
                        0x08080aa1     0x36  Code  Gb  FRAMEWIN_SetColors.o [4]
FRAMEWIN_SetDefaultBarColor
                        0x0804ef7b      0xe  Code  Gb  FRAMEWIN_Default.o [4]
FRAMEWIN_SetDefaultClientColor
                        0x0804ef89      0x6  Code  Gb  FRAMEWIN_Default.o [4]
FRAMEWIN_SetDefaultFont
                        0x0804ef75      0x6  Code  Gb  FRAMEWIN_Default.o [4]
FRAMEWIN_SetDefaultTextColor
                        0x0804ef9b      0xe  Code  Gb  FRAMEWIN_Default.o [4]
FRAMEWIN_SetDefaultTitleHeight
                        0x0804ef95      0x6  Code  Gb  FRAMEWIN_Default.o [4]
FRAMEWIN_SetFont        0x08080ad7     0x70  Code  Gb  FRAMEWIN_SetFont.o [4]
FRAMEWIN_SetText        0x0805cacd     0x4c  Code  Gb  FRAMEWIN.o [4]
FRAMEWIN_SetTextAlign   0x0805cb19     0x38  Code  Gb  FRAMEWIN.o [4]
FRAMEWIN_SetUserData    0x0805cb51      0x6  Code  Gb  FRAMEWIN.o [4]
FRAMEWIN__CalcTitleHeight
                        0x0805c16d     0x24  Code  Gb  FRAMEWIN.o [4]
FRAMEWIN__DefaultProps  0x20013a3c     0x28  Data  Gb  FRAMEWIN.o [4]
FRAMEWIN__GetBorderSize
                        0x0805c12d     0x40  Code  Gb  FRAMEWIN.o [4]
FRAMEWIN__GetTitleLimits
                        0x0805c191     0x98  Code  Gb  FRAMEWIN.o [4]
FRAMEWIN__Skin          0x20013ddc      0xc  Data  Gb  FRAMEWIN_Skin.o [4]
FRAMEWIN__UpdateButtons
                        0x08080d91     0xe2  Code  Gb  FRAMEWIN__UpdateButtons.o [4]
FRAMEWIN__UpdatePositions
                        0x0805c229    0x108  Code  Gb  FRAMEWIN.o [4]
FRAMEWIN__cbClient      0x0805c035     0xf6  Code  Lc  FRAMEWIN.o [4]
FRAMEWIN__pSkinDefault  0x20013a64      0x4  Data  Gb  FRAMEWIN.o [4]
FatFs                   0x2003ffa4      0x8  Data  Lc  ff.o [1]
FileInfo                0x20013018    0x12c  Data  Lc  audio_player_win.o [1]
FileInfo                0x2003a4b8    0x12c  Data  Lc  video_player_win.o [1]
FileName                0x2003eed0    0x100  Data  Lc  audio_recorder_win.o [1]
Files                   0x2003f790     0x78  Data  Lc  ff.o [1]
Font10_1Prop1           0x08089554      0xc  Data  Lc  F10_1.o [4]
Font10_1_CharInfo       0x08089254    0x300  Data  Lc  F10_1.o [4]
Font8_1_CharInfo        0x0808c084    0x300  Data  Lc  F08_1.o [4]
FrameIndex              0x20012440      0x4  Data  Lc  video_player_win.o [1]
Fsid                    0x2003ffa0      0x2  Data  Lc  ff.o [1]
GL_DispChar             0x0805e745     0x5a  Code  Gb  GUI_Char.o [4]
GL_DrawBitmap           0x0804eb1d     0x96  Code  Gb  GUI_DrawBitmap.o [4]
GL_DrawLineEx           0x08073519    0x2fa  Code  Gb  GUI_DrawLine.o [4]
GL_DrawPoint            0x0807467d     0x1c  Code  Gb  GUI_DrawPoint.o [4]
GL_FillCircle           0x08074bb5     0xca  Code  Gb  GUI_Circ.o [4]
GL_FillPolygon          0x08074411    0x25e  Code  Gb  GUI_FillPolygon.o [4]
GL_SetDefault           0x080421d5     0x3e  Code  Gb  GUI_SetDefault.o [4]
GUIDRV_Lin_16_API       0x08093160     0x34  Data  Gb  GUIDRV_Lin_16.o [4]
GUIDRV_Lin_32_API       0x08093194     0x34  Data  Gb  GUIDRV_Lin_32.o [4]
GUIMONO_DispChar        0x080916d1    0x136  Code  Gb  GUI_CharM.o [4]
GUIMONO_GetCharDistX    0x08091807     0x12  Code  Gb  GUI_CharM.o [4]
GUIMONO_GetFontInfo     0x0809181d      0x6  Code  Gb  GUI_CharM.o [4]
GUIMONO_IsInFont        0x08091823     0x38  Code  Gb  GUI_CharM.o [4]
GUIPROP_AA4_EXT_DispChar
                        0x08092c1d     0xac  Code  Gb  GUIAA_Char4Ext.o [4]
GUIPROP_DispChar        0x08091fb1     0xd0  Code  Gb  GUI_CharP.o [4]
GUIPROP_EXT_GetCharDistX
                        0x08092499     0x4e  Code  Gb  GUI_CharPExt.o [4]
GUIPROP_EXT_GetCharInfo
                        0x08092509     0x38  Code  Gb  GUI_CharPExt.o [4]
GUIPROP_EXT_GetFontInfo
                        0x080924e7      0x6  Code  Gb  GUI_CharPExt.o [4]
GUIPROP_EXT_IsInFont    0x080924ed     0x1c  Code  Gb  GUI_CharPExt.o [4]
GUIPROP_EXT__ClearLine  0x0809235d     0xde  Code  Gb  GUI_EncExt.o [4]
GUIPROP_EXT__DispLine   0x0809243b     0x3e  Code  Gb  GUI_EncExt.o [4]
GUIPROP_EXT__FindChar   0x08092485     0x14  Code  Gb  GUI_CharPExt.o [4]
GUIPROP_GetCharDistX    0x08092081     0x46  Code  Gb  GUI_CharP.o [4]
GUIPROP_GetFontInfo     0x080920cd      0x6  Code  Gb  GUI_CharP.o [4]
GUIPROP_IsInFont        0x080920d3     0x1c  Code  Gb  GUI_CharP.o [4]
GUITASK_CopyContext     0x0804160f     0xb0  Code  Gb  GUI_Task.o [4]
GUITASK_Init            0x080415d3     0x3c  Code  Gb  GUI_Task.o [4]
GUITASK__EntranceCnt    0x20013c48      0x4  Data  Gb  GUI_Task.o [4]
GUIThread               0x0805f14d     0x1a  Code  Lc  main.o [1]
GUI_AA_DrawRoundedRect  0x0808e04b    0x11c  Code  Gb  GUIAA_DrawRoundedRect.o [4]
GUI_AA_Exit             0x08057349     0x1c  Code  Gb  GUIAA_Lib.o [4]
GUI_AA_FillCircle       0x0804f1bb     0x8e  Code  Gb  GUIAA_Circle.o [4]
GUI_AA_FillEllipse      0x0804f249     0x96  Code  Gb  GUIAA_Circle.o [4]
GUI_AA_FillRoundedRect  0x08069961     0xe0  Code  Gb  GUIAA_FillRoundedRect.o [4]
GUI_AA_HiRes2Pixel      0x08057337     0x12  Code  Gb  GUIAA_Lib.o [4]
GUI_AA_Init             0x0805727f     0xa6  Code  Gb  GUIAA_Lib.o [4]
GUI_AA_Init_HiRes       0x08057325     0x12  Code  Gb  GUIAA_Lib.o [4]
GUI_AA__ClipX0          0x20040094      0x4  Data  Gb  GUI_Core.o [4]
GUI_AA__DrawCharAA4     0x08092325     0x28  Code  Gb  GUIAA_Char4.o [4]
GUI_ALLOC_AllocInit     0x08062749     0x46  Code  Gb  GUI_ALLOC_AllocInit.o [4]
GUI_ALLOC_AllocNoInit   0x0803ea29     0x1e  Code  Gb  GUI_Alloc.o [4]
GUI_ALLOC_AllocZero     0x0803ebe5     0x32  Code  Gb  GUI_ALLOC_AllocZero.o [4]
GUI_ALLOC_AssignMemory  0x0803eb25     0x10  Code  Gb  GUI_Alloc.o [4]
GUI_ALLOC_Free          0x0803eb4d     0x4c  Code  Gb  GUI_Alloc.o [4]
GUI_ALLOC_FreeFixedBlock
                        0x0803e869     0x12  Code  Gb  GUI_Alloc.o [4]
GUI_ALLOC_FreePtr       0x0803eb99     0x1a  Code  Gb  GUI_Alloc.o [4]
GUI_ALLOC_FreePtrArray  0x0803ebb5     0x28  Code  Gb  GUI_Alloc.o [4]
GUI_ALLOC_GetFixedBlock
                        0x0803e87d    0x1ac  Code  Gb  GUI_Alloc.o [4]
GUI_ALLOC_GetMaxSize    0x0803eaa5     0x3c  Code  Gb  GUI_Alloc.o [4]
GUI_ALLOC_GetSize       0x0803eb35     0x18  Code  Gb  GUI_Alloc.o [4]
GUI_ALLOC_Lock          0x0803eb11      0xa  Code  Gb  GUI_Alloc.o [4]
GUI_ALLOC_LockH         0x0803ea57     0x22  Code  Gb  GUI_Alloc.o [4]
GUI_ALLOC_Realloc       0x0806278f     0x5e  Code  Gb  GUI_Realloc.o [4]
GUI_ALLOC_RequestSize   0x0803eae1     0x30  Code  Gb  GUI_Alloc.o [4]
GUI_ALLOC_Unlock        0x0803eb1b      0xa  Code  Gb  GUI_Alloc.o [4]
GUI_ALLOC_UnlockH       0x0803ea79     0x2a  Code  Gb  GUI_Alloc.o [4]
GUI_ALLOC__Context      0x2003f1c0     0xc0  Data  Gb  GUI_Alloc.o [4]
GUI_ALLOC_h2p           0x0803ea47     0x10  Code  Gb  GUI_Alloc.o [4]
GUI_ARRAY_AddItem       0x0805adc5     0x86  Code  Gb  GUI_ARRAY.o [4]
GUI_ARRAY_Create        0x0805afaf      0x6  Code  Gb  GUI_ARRAY.o [4]
GUI_ARRAY_Delete        0x0805ae4b     0x58  Code  Gb  GUI_ARRAY.o [4]
GUI_ARRAY_DeleteItem    0x0805b2bb     0x64  Code  Gb  GUI_ARRAY_DeleteItem.o [4]
GUI_ARRAY_GetNumItems   0x0805ada9     0x1c  Code  Gb  GUI_ARRAY.o [4]
GUI_ARRAY_GethItem      0x0805af35     0x38  Code  Gb  GUI_ARRAY.o [4]
GUI_ARRAY_GetpItemLocked
                        0x0805af6d     0x42  Code  Gb  GUI_ARRAY.o [4]
GUI_ARRAY_InsertBlankItem
                        0x08064c0f     0x9a  Code  Gb  GUI_ARRAY_InsertItem.o [4]
GUI_ARRAY_InsertItem    0x08064ca9     0x26  Code  Gb  GUI_ARRAY_InsertItem.o [4]
GUI_ARRAY_ResizeItemLocked
                        0x0805b837     0x6a  Code  Gb  GUI_ARRAY_ResizeItem.o [4]
GUI_ARRAY_SetItem       0x0805aea3     0x92  Code  Gb  GUI_ARRAY.o [4]
GUI_ARRAY__GetpItemLocked
                        0x0805ad77     0x32  Code  Gb  GUI_ARRAY.o [4]
GUI_ARRAY__SethItem     0x0805ad41     0x36  Code  Gb  GUI_ARRAY.o [4]
GUI_BitmapMethods24     0x080934c4     0x10  Data  Gb  GUI_DrawBitmap_24.o [4]
GUI_BitmapMethods8888   0x080934d4     0x10  Data  Gb  GUI_DrawBitmap_8888.o [4]
GUI_CURSOR_GetStateEx   0x08062639     0x1c  Code  Gb  GUI_Curs1.o [4]
GUI_CURSOR_SelectEx     0x0806258b     0xae  Code  Gb  GUI_Curs1.o [4]
GUI_CURSOR_SetPositionEx
                        0x08062655     0x66  Code  Gb  GUI_Curs1.o [4]
GUI_CalcColorDist       0x08092bdd     0x3e  Code  Gb  GUI_CalcColorDist.o [4]
GUI_CharInfo_Font16ASCII
                        0x08084580    0x300  Data  Lc  F16_ASCII.o [4]
GUI_CharInfo_Font16_1   0x08083000    0x300  Data  Lc  F16_1.o [4]
GUI_CharLine_pfLog2Vis  0x20013ec8      0x4  Data  Gb  GUI_CharLine.o [4]
GUI_Clear               0x08041769     0x6e  Code  Gb  GUI_Core.o [4]
GUI_ClearRect           0x08041701     0x68  Code  Gb  GUI_Core.o [4]
GUI_ClearRectEx         0x0805b1bd     0x14  Code  Gb  GUI_ClearRectEx.o [4]
GUI_CreateDialogBox     0x0804e591     0xae  Code  Gb  DIALOG.o [4]
GUI_CursorHeaderM       0x080932d0      0xc  Data  Gb  GUI_CursorHeaderM.o [4]
GUI_CursorPal           0x08093438      0xc  Data  Gb  GUI_CursorPal.o [4]
GUI_DEVICE_Create       0x080425f7     0x62  Code  Gb  GUI_Device.o [4]
GUI_DEVICE_CreateAndLink
                        0x08042739     0x28  Code  Gb  GUI_Device.o [4]
GUI_DEVICE_Delete       0x080425f3      0x4  Code  Gb  GUI_Device.o [4]
GUI_DEVICE_Link         0x08042683     0xb6  Code  Gb  GUI_Device.o [4]
GUI_DEVICE_LinkDevices  0x080427b5     0xb6  Code  Gb  GUI_Device.o [4]
GUI_DEVICE_Unlink       0x08042659     0x2a  Code  Gb  GUI_Device.o [4]
GUI_DEVICE_UnlinkTaskDevices
                        0x08042761     0x54  Code  Gb  GUI_Device.o [4]
GUI_DEVICE__GetpDriver  0x080425b1     0x42  Code  Gb  GUI_Device.o [4]
GUI_DRAW_BITMAP_Create  0x08064de9     0x48  Code  Gb  GUI_DRAW_BITMAP.o [4]
GUI_DRAW__Draw          0x0806b4bf     0x30  Code  Gb  GUI_DRAW.o [4]
GUI_DRAW__GetXSize      0x0806b4ef     0x24  Code  Gb  GUI_DRAW.o [4]
GUI_DRAW__GetYSize      0x0806b513     0x24  Code  Gb  GUI_DRAW.o [4]
GUI_DecChar             0x200133b8      0x1  Data  Gb  GUI_Core.o [4]
GUI_Delay               0x08044089     0x5e  Code  Gb  GUI_Time.o [4]
GUI_DispCharAt          0x0806a27f     0x22  Code  Gb  GUI_DispChar.o [4]
GUI_DispString          0x08056ead    0x108  Code  Gb  GUI_DispString.o [4]
GUI_DispStringAt        0x0804efad     0x28  Code  Gb  GUI_DispStringAt.o [4]
GUI_DispStringHCenterAt
                        0x080539cd     0x38  Code  Gb  GUI_DispStringHCenter.o [4]
GUI_DispStringInRect    0x0806927f      0x6  Code  Gb  GUI_DispStringInRect.o [4]
GUI_DispStringInRectMax
                        0x08069231     0x4e  Code  Gb  GUI_DispStringInRect.o [4]
GUI_DispStringInRectWrap
                        0x0805b055    0x168  Code  Gb  GUI_DispStringInRectWrap.o [4]
GUI_DrawBitmap          0x0804ebb3     0x64  Code  Gb  GUI_DrawBitmap.o [4]
GUI_DrawCircle          0x08074b01     0xb2  Code  Gb  GUI_Circ.o [4]
GUI_DrawFocusRect       0x08069285     0xb8  Code  Gb  GUI_DrawFocusRect.o [4]
GUI_DrawGradientH       0x0808efd1    0x186  Code  Gb  GUI_DrawGradient.o [4]
GUI_DrawGradientV       0x0808ee49    0x188  Code  Gb  GUI_DrawGradient.o [4]
GUI_DrawHLine           0x08056d61     0x5c  Code  Gb  GUI_DrawHLine.o [4]
GUI_DrawLine            0x08073813     0x4c  Code  Gb  GUI_DrawLine.o [4]
GUI_DrawPixel           0x0808f57d     0x58  Code  Gb  GUI_DrawPixel.o [4]
GUI_DrawRect            0x08053f65     0x86  Code  Gb  GUI_2DLib.o [4]
GUI_DrawRectEx          0x0805ba3d     0x14  Code  Gb  GUI_DrawRectEx.o [4]
GUI_DrawVLine           0x08056dbd     0x58  Code  Gb  GUI_DrawVLine.o [4]
GUI_ENC_APIList_EXT     0x08093528      0xc  Data  Gb  GUI_EncExt.o [4]
GUI_EndDialog           0x0804e63f     0x3c  Code  Gb  DIALOG.o [4]
GUI_Exec                0x08046665     0x3a  Code  Gb  GUI_Exec.o [4]
GUI_F6x8_Mono           0x0808b2d4     0x14  Data  Lc  F6x8.o [4]
GUI_F6x8_TI8859_1       0x0808b2cc      0x8  Data  Lc  F6x8.o [4]
GUI_F6x8_TL8859_1       0x0808b10c    0x1c0  Data  Lc  F6x8.o [4]
GUI_FillCircle          0x08074c7f     0x3a  Code  Gb  GUI_Circ.o [4]
GUI_FillRect            0x08053ff1     0x58  Code  Gb  GUI_FillRect.o [4]
GUI_FillRectEx          0x08056e15     0x14  Code  Gb  GUI_FillRectEx.o [4]
GUI_Font10ASCIIProp1    0x08089d18      0xc  Data  Gb  F10_ASCII.o [4]
GUI_Font10_1            0x08089560     0x24  Data  Gb  F10_1.o [4]
GUI_Font10_ASCII_CharInfo
                        0x08089a18    0x300  Data  Lc  F10_ASCII.o [4]
GUI_Font13ASCII_CharInfo
                        0x08088a84    0x2f8  Data  Lc  F13_ASCII.o [4]
GUI_Font13ASCII_Prop1   0x08088d7c      0xc  Data  Gb  F13_ASCII.o [4]
GUI_Font13B_1           0x08087ac8     0x24  Data  Gb  F13B_1.o [4]
GUI_Font13B_1_CharInfo  0x080877bc    0x300  Data  Lc  F13B_1.o [4]
GUI_Font13B_1_Prop1     0x08087abc      0xc  Data  Lc  F13B_1.o [4]
GUI_Font13B_ASCII       0x08087108     0x24  Data  Gb  F13B_ASCII.o [4]
GUI_Font13B_ASCII_CharInfo
                        0x08086e04    0x2f8  Data  Lc  F13B_ASCII.o [4]
GUI_Font13B_ASCII_Prop1
                        0x080870fc      0xc  Data  Gb  F13B_ASCII.o [4]
GUI_Font13_1            0x0808844c     0x24  Data  Gb  F13_1.o [4]
GUI_Font13_1_CharInfo   0x08088140    0x300  Data  Lc  F13_1.o [4]
GUI_Font13_1_Prop1      0x08088440      0xc  Data  Lc  F13_1.o [4]
GUI_Font13_ASCII        0x08088d88     0x24  Data  Gb  F13_ASCII.o [4]
GUI_Font16ASCIIProp1    0x08084880      0xc  Data  Gb  F16_ASCII.o [4]
GUI_Font16B_1           0x08083dec     0x24  Data  Gb  F16B_1.o [4]
GUI_Font16B_1_CharInfo  0x08083ae0    0x300  Data  Lc  F16B_1.o [4]
GUI_Font16B_1_Prop1     0x08083de0      0xc  Data  Lc  F16B_1.o [4]
GUI_Font16B_ASCII       0x08085314     0x24  Data  Gb  F16B_ASCII.o [4]
GUI_Font16B_ASCII_CharInfo
                        0x08085010    0x2f8  Data  Gb  F16B_ASCII.o [4]
GUI_Font16B_ASCII_Prop1
                        0x08085308      0xc  Data  Gb  F16B_ASCII.o [4]
GUI_Font16_1            0x0808330c     0x24  Data  Gb  F16_1.o [4]
GUI_Font16_1HK          0x08093090     0x24  Data  Gb  F16_1HK.o [4]
GUI_Font16_1HK_Prop1    0x08093084      0xc  Data  Lc  F16_1HK.o [4]
GUI_Font16_1HK_Prop2    0x08093078      0xc  Data  Lc  F16_1HK.o [4]
GUI_Font16_1_FontProp1  0x08083300      0xc  Data  Gb  F16_1.o [4]
GUI_Font16_ASCII        0x0808488c     0x24  Data  Gb  F16_ASCII.o [4]
GUI_Font16_HK_CharInfo  0x0807109c    0x548  Data  Gb  F16_HK.o [4]
GUI_Font20_ASCII        0x0807ebf0     0x24  Data  Gb  F20_ASCII.o [4]
GUI_Font20_ASCII_CharInfo
                        0x0807e8ec    0x2f8  Data  Gb  F20_ASCII.o [4]
GUI_Font20_ASCII_Prop1  0x0807ebe4      0xc  Data  Gb  F20_ASCII.o [4]
GUI_Font24_1            0x0807c98c     0x24  Data  Gb  F24_1.o [4]
GUI_Font24_1_CharInfo   0x0807c680    0x300  Data  Lc  F24_1.o [4]
GUI_Font24_1_Prop1      0x0807c980      0xc  Data  Lc  F24_1.o [4]
GUI_Font24_ASCII_CharInfo
                        0x0807d940    0x2f8  Data  Gb  F24_ASCII.o [4]
GUI_Font24_ASCII_Prop1  0x0807dc38      0xc  Data  Gb  F24_ASCII.o [4]
GUI_Font6x8             0x0808b2e8     0x24  Data  Gb  F6x8.o [4]
GUI_Font8ASCII_Prop     0x0808c9a4      0xc  Data  Gb  F08_ASCII.o [4]
GUI_Font8_1             0x0808c390     0x24  Data  Gb  F08_1.o [4]
GUI_Font8_1_Prop        0x0808c384      0xc  Data  Lc  F08_1.o [4]
GUI_Font8_ASCII_CharInfo
                        0x0808c6ac    0x2f8  Data  Lc  F08_ASCII.o [4]
GUI_FontAvantGarde20    0x080215cc     0x24  Data  Gb  ST_Fonts.o [3]
GUI_FontAvantGarde20B   0x08025454     0x24  Data  Gb  ST_Fonts.o [3]
GUI_FontAvantGarde20B_CharInfo
                        0x08024668    0xbe8  Data  Gb  ST_Fonts.o [3]
GUI_FontAvantGarde20B_Prop1
                        0x08025448      0xc  Data  Gb  ST_Fonts.o [3]
GUI_FontAvantGarde20B_Prop10
                        0x080253dc      0xc  Data  Gb  ST_Fonts.o [3]
GUI_FontAvantGarde20B_Prop11
                        0x080253d0      0xc  Data  Gb  ST_Fonts.o [3]
GUI_FontAvantGarde20B_Prop12
                        0x080253c4      0xc  Data  Gb  ST_Fonts.o [3]
GUI_FontAvantGarde20B_Prop13
                        0x080253b8      0xc  Data  Gb  ST_Fonts.o [3]
GUI_FontAvantGarde20B_Prop14
                        0x080253ac      0xc  Data  Gb  ST_Fonts.o [3]
GUI_FontAvantGarde20B_Prop15
                        0x080253a0      0xc  Data  Gb  ST_Fonts.o [3]
GUI_FontAvantGarde20B_Prop16
                        0x08025394      0xc  Data  Gb  ST_Fonts.o [3]
GUI_FontAvantGarde20B_Prop17
                        0x08025388      0xc  Data  Gb  ST_Fonts.o [3]
GUI_FontAvantGarde20B_Prop18
                        0x0802537c      0xc  Data  Gb  ST_Fonts.o [3]
GUI_FontAvantGarde20B_Prop19
                        0x08025370      0xc  Data  Gb  ST_Fonts.o [3]
GUI_FontAvantGarde20B_Prop2
                        0x0802543c      0xc  Data  Gb  ST_Fonts.o [3]
GUI_FontAvantGarde20B_Prop20
                        0x08025364      0xc  Data  Gb  ST_Fonts.o [3]
GUI_FontAvantGarde20B_Prop21
                        0x08025358      0xc  Data  Gb  ST_Fonts.o [3]
GUI_FontAvantGarde20B_Prop22
                        0x0802534c      0xc  Data  Gb  ST_Fonts.o [3]
GUI_FontAvantGarde20B_Prop23
                        0x08025340      0xc  Data  Gb  ST_Fonts.o [3]
GUI_FontAvantGarde20B_Prop24
                        0x08025334      0xc  Data  Gb  ST_Fonts.o [3]
GUI_FontAvantGarde20B_Prop25
                        0x08025328      0xc  Data  Gb  ST_Fonts.o [3]
GUI_FontAvantGarde20B_Prop26
                        0x0802531c      0xc  Data  Gb  ST_Fonts.o [3]
GUI_FontAvantGarde20B_Prop27
                        0x08025310      0xc  Data  Gb  ST_Fonts.o [3]
GUI_FontAvantGarde20B_Prop28
                        0x08025304      0xc  Data  Gb  ST_Fonts.o [3]
GUI_FontAvantGarde20B_Prop29
                        0x080252f8      0xc  Data  Gb  ST_Fonts.o [3]
GUI_FontAvantGarde20B_Prop3
                        0x08025430      0xc  Data  Gb  ST_Fonts.o [3]
GUI_FontAvantGarde20B_Prop30
                        0x080252ec      0xc  Data  Gb  ST_Fonts.o [3]
GUI_FontAvantGarde20B_Prop31
                        0x080252e0      0xc  Data  Gb  ST_Fonts.o [3]
GUI_FontAvantGarde20B_Prop32
                        0x080252d4      0xc  Data  Gb  ST_Fonts.o [3]
GUI_FontAvantGarde20B_Prop33
                        0x080252c8      0xc  Data  Gb  ST_Fonts.o [3]
GUI_FontAvantGarde20B_Prop34
                        0x080252bc      0xc  Data  Gb  ST_Fonts.o [3]
GUI_FontAvantGarde20B_Prop35
                        0x080252b0      0xc  Data  Gb  ST_Fonts.o [3]
GUI_FontAvantGarde20B_Prop36
                        0x080252a4      0xc  Data  Gb  ST_Fonts.o [3]
GUI_FontAvantGarde20B_Prop37
                        0x08025298      0xc  Data  Gb  ST_Fonts.o [3]
GUI_FontAvantGarde20B_Prop38
                        0x0802528c      0xc  Data  Gb  ST_Fonts.o [3]
GUI_FontAvantGarde20B_Prop39
                        0x08025280      0xc  Data  Gb  ST_Fonts.o [3]
GUI_FontAvantGarde20B_Prop4
                        0x08025424      0xc  Data  Gb  ST_Fonts.o [3]
GUI_FontAvantGarde20B_Prop40
                        0x08025274      0xc  Data  Gb  ST_Fonts.o [3]
GUI_FontAvantGarde20B_Prop41
                        0x08025268      0xc  Data  Gb  ST_Fonts.o [3]
GUI_FontAvantGarde20B_Prop42
                        0x0802525c      0xc  Data  Gb  ST_Fonts.o [3]
GUI_FontAvantGarde20B_Prop43
                        0x08025250      0xc  Data  Gb  ST_Fonts.o [3]
GUI_FontAvantGarde20B_Prop5
                        0x08025418      0xc  Data  Gb  ST_Fonts.o [3]
GUI_FontAvantGarde20B_Prop6
                        0x0802540c      0xc  Data  Gb  ST_Fonts.o [3]
GUI_FontAvantGarde20B_Prop7
                        0x08025400      0xc  Data  Gb  ST_Fonts.o [3]
GUI_FontAvantGarde20B_Prop8
                        0x080253f4      0xc  Data  Gb  ST_Fonts.o [3]
GUI_FontAvantGarde20B_Prop9
                        0x080253e8      0xc  Data  Gb  ST_Fonts.o [3]
GUI_FontAvantGarde20_CharInfo
                        0x080207e0    0xbe8  Data  Gb  ST_Fonts.o [3]
GUI_FontAvantGarde20_Prop1
                        0x080215c0      0xc  Data  Gb  ST_Fonts.o [3]
GUI_FontAvantGarde20_Prop10
                        0x08021554      0xc  Data  Gb  ST_Fonts.o [3]
GUI_FontAvantGarde20_Prop11
                        0x08021548      0xc  Data  Gb  ST_Fonts.o [3]
GUI_FontAvantGarde20_Prop12
                        0x0802153c      0xc  Data  Gb  ST_Fonts.o [3]
GUI_FontAvantGarde20_Prop13
                        0x08021530      0xc  Data  Gb  ST_Fonts.o [3]
GUI_FontAvantGarde20_Prop14
                        0x08021524      0xc  Data  Gb  ST_Fonts.o [3]
GUI_FontAvantGarde20_Prop15
                        0x08021518      0xc  Data  Gb  ST_Fonts.o [3]
GUI_FontAvantGarde20_Prop16
                        0x0802150c      0xc  Data  Gb  ST_Fonts.o [3]
GUI_FontAvantGarde20_Prop17
                        0x08021500      0xc  Data  Gb  ST_Fonts.o [3]
GUI_FontAvantGarde20_Prop18
                        0x080214f4      0xc  Data  Gb  ST_Fonts.o [3]
GUI_FontAvantGarde20_Prop19
                        0x080214e8      0xc  Data  Gb  ST_Fonts.o [3]
GUI_FontAvantGarde20_Prop2
                        0x080215b4      0xc  Data  Gb  ST_Fonts.o [3]
GUI_FontAvantGarde20_Prop20
                        0x080214dc      0xc  Data  Gb  ST_Fonts.o [3]
GUI_FontAvantGarde20_Prop21
                        0x080214d0      0xc  Data  Gb  ST_Fonts.o [3]
GUI_FontAvantGarde20_Prop22
                        0x080214c4      0xc  Data  Gb  ST_Fonts.o [3]
GUI_FontAvantGarde20_Prop23
                        0x080214b8      0xc  Data  Gb  ST_Fonts.o [3]
GUI_FontAvantGarde20_Prop24
                        0x080214ac      0xc  Data  Gb  ST_Fonts.o [3]
GUI_FontAvantGarde20_Prop25
                        0x080214a0      0xc  Data  Gb  ST_Fonts.o [3]
GUI_FontAvantGarde20_Prop26
                        0x08021494      0xc  Data  Gb  ST_Fonts.o [3]
GUI_FontAvantGarde20_Prop27
                        0x08021488      0xc  Data  Gb  ST_Fonts.o [3]
GUI_FontAvantGarde20_Prop28
                        0x0802147c      0xc  Data  Gb  ST_Fonts.o [3]
GUI_FontAvantGarde20_Prop29
                        0x08021470      0xc  Data  Gb  ST_Fonts.o [3]
GUI_FontAvantGarde20_Prop3
                        0x080215a8      0xc  Data  Gb  ST_Fonts.o [3]
GUI_FontAvantGarde20_Prop30
                        0x08021464      0xc  Data  Gb  ST_Fonts.o [3]
GUI_FontAvantGarde20_Prop31
                        0x08021458      0xc  Data  Gb  ST_Fonts.o [3]
GUI_FontAvantGarde20_Prop32
                        0x0802144c      0xc  Data  Gb  ST_Fonts.o [3]
GUI_FontAvantGarde20_Prop33
                        0x08021440      0xc  Data  Gb  ST_Fonts.o [3]
GUI_FontAvantGarde20_Prop34
                        0x08021434      0xc  Data  Gb  ST_Fonts.o [3]
GUI_FontAvantGarde20_Prop35
                        0x08021428      0xc  Data  Gb  ST_Fonts.o [3]
GUI_FontAvantGarde20_Prop36
                        0x0802141c      0xc  Data  Gb  ST_Fonts.o [3]
GUI_FontAvantGarde20_Prop37
                        0x08021410      0xc  Data  Gb  ST_Fonts.o [3]
GUI_FontAvantGarde20_Prop38
                        0x08021404      0xc  Data  Gb  ST_Fonts.o [3]
GUI_FontAvantGarde20_Prop39
                        0x080213f8      0xc  Data  Gb  ST_Fonts.o [3]
GUI_FontAvantGarde20_Prop4
                        0x0802159c      0xc  Data  Gb  ST_Fonts.o [3]
GUI_FontAvantGarde20_Prop40
                        0x080213ec      0xc  Data  Gb  ST_Fonts.o [3]
GUI_FontAvantGarde20_Prop41
                        0x080213e0      0xc  Data  Gb  ST_Fonts.o [3]
GUI_FontAvantGarde20_Prop42
                        0x080213d4      0xc  Data  Gb  ST_Fonts.o [3]
GUI_FontAvantGarde20_Prop43
                        0x080213c8      0xc  Data  Gb  ST_Fonts.o [3]
GUI_FontAvantGarde20_Prop5
                        0x08021590      0xc  Data  Gb  ST_Fonts.o [3]
GUI_FontAvantGarde20_Prop6
                        0x08021584      0xc  Data  Gb  ST_Fonts.o [3]
GUI_FontAvantGarde20_Prop7
                        0x08021578      0xc  Data  Gb  ST_Fonts.o [3]
GUI_FontAvantGarde20_Prop8
                        0x0802156c      0xc  Data  Gb  ST_Fonts.o [3]
GUI_FontAvantGarde20_Prop9
                        0x08021560      0xc  Data  Gb  ST_Fonts.o [3]
GUI_FontAvantGarde24    0x0802a588     0x24  Data  Gb  ST_Fonts.o [3]
GUI_FontAvantGarde24_CharInfo
                        0x0802979c    0xbe8  Data  Gb  ST_Fonts.o [3]
GUI_FontAvantGarde24_Prop1
                        0x0802a57c      0xc  Data  Gb  ST_Fonts.o [3]
GUI_FontAvantGarde24_Prop10
                        0x0802a510      0xc  Data  Gb  ST_Fonts.o [3]
GUI_FontAvantGarde24_Prop11
                        0x0802a504      0xc  Data  Gb  ST_Fonts.o [3]
GUI_FontAvantGarde24_Prop12
                        0x0802a4f8      0xc  Data  Gb  ST_Fonts.o [3]
GUI_FontAvantGarde24_Prop13
                        0x0802a4ec      0xc  Data  Gb  ST_Fonts.o [3]
GUI_FontAvantGarde24_Prop14
                        0x0802a4e0      0xc  Data  Gb  ST_Fonts.o [3]
GUI_FontAvantGarde24_Prop15
                        0x0802a4d4      0xc  Data  Gb  ST_Fonts.o [3]
GUI_FontAvantGarde24_Prop16
                        0x0802a4c8      0xc  Data  Gb  ST_Fonts.o [3]
GUI_FontAvantGarde24_Prop17
                        0x0802a4bc      0xc  Data  Gb  ST_Fonts.o [3]
GUI_FontAvantGarde24_Prop18
                        0x0802a4b0      0xc  Data  Gb  ST_Fonts.o [3]
GUI_FontAvantGarde24_Prop19
                        0x0802a4a4      0xc  Data  Gb  ST_Fonts.o [3]
GUI_FontAvantGarde24_Prop2
                        0x0802a570      0xc  Data  Gb  ST_Fonts.o [3]
GUI_FontAvantGarde24_Prop20
                        0x0802a498      0xc  Data  Gb  ST_Fonts.o [3]
GUI_FontAvantGarde24_Prop21
                        0x0802a48c      0xc  Data  Gb  ST_Fonts.o [3]
GUI_FontAvantGarde24_Prop22
                        0x0802a480      0xc  Data  Gb  ST_Fonts.o [3]
GUI_FontAvantGarde24_Prop23
                        0x0802a474      0xc  Data  Gb  ST_Fonts.o [3]
GUI_FontAvantGarde24_Prop24
                        0x0802a468      0xc  Data  Gb  ST_Fonts.o [3]
GUI_FontAvantGarde24_Prop25
                        0x0802a45c      0xc  Data  Gb  ST_Fonts.o [3]
GUI_FontAvantGarde24_Prop26
                        0x0802a450      0xc  Data  Gb  ST_Fonts.o [3]
GUI_FontAvantGarde24_Prop27
                        0x0802a444      0xc  Data  Gb  ST_Fonts.o [3]
GUI_FontAvantGarde24_Prop28
                        0x0802a438      0xc  Data  Gb  ST_Fonts.o [3]
GUI_FontAvantGarde24_Prop29
                        0x0802a42c      0xc  Data  Gb  ST_Fonts.o [3]
GUI_FontAvantGarde24_Prop3
                        0x0802a564      0xc  Data  Gb  ST_Fonts.o [3]
GUI_FontAvantGarde24_Prop30
                        0x0802a420      0xc  Data  Gb  ST_Fonts.o [3]
GUI_FontAvantGarde24_Prop31
                        0x0802a414      0xc  Data  Gb  ST_Fonts.o [3]
GUI_FontAvantGarde24_Prop32
                        0x0802a408      0xc  Data  Gb  ST_Fonts.o [3]
GUI_FontAvantGarde24_Prop33
                        0x0802a3fc      0xc  Data  Gb  ST_Fonts.o [3]
GUI_FontAvantGarde24_Prop34
                        0x0802a3f0      0xc  Data  Gb  ST_Fonts.o [3]
GUI_FontAvantGarde24_Prop35
                        0x0802a3e4      0xc  Data  Gb  ST_Fonts.o [3]
GUI_FontAvantGarde24_Prop36
                        0x0802a3d8      0xc  Data  Gb  ST_Fonts.o [3]
GUI_FontAvantGarde24_Prop37
                        0x0802a3cc      0xc  Data  Gb  ST_Fonts.o [3]
GUI_FontAvantGarde24_Prop38
                        0x0802a3c0      0xc  Data  Gb  ST_Fonts.o [3]
GUI_FontAvantGarde24_Prop39
                        0x0802a3b4      0xc  Data  Gb  ST_Fonts.o [3]
GUI_FontAvantGarde24_Prop4
                        0x0802a558      0xc  Data  Gb  ST_Fonts.o [3]
GUI_FontAvantGarde24_Prop40
                        0x0802a3a8      0xc  Data  Gb  ST_Fonts.o [3]
GUI_FontAvantGarde24_Prop41
                        0x0802a39c      0xc  Data  Gb  ST_Fonts.o [3]
GUI_FontAvantGarde24_Prop42
                        0x0802a390      0xc  Data  Gb  ST_Fonts.o [3]
GUI_FontAvantGarde24_Prop43
                        0x0802a384      0xc  Data  Gb  ST_Fonts.o [3]
GUI_FontAvantGarde24_Prop5
                        0x0802a54c      0xc  Data  Gb  ST_Fonts.o [3]
GUI_FontAvantGarde24_Prop6
                        0x0802a540      0xc  Data  Gb  ST_Fonts.o [3]
GUI_FontAvantGarde24_Prop7
                        0x0802a534      0xc  Data  Gb  ST_Fonts.o [3]
GUI_FontAvantGarde24_Prop8
                        0x0802a528      0xc  Data  Gb  ST_Fonts.o [3]
GUI_FontAvantGarde24_Prop9
                        0x0802a51c      0xc  Data  Gb  ST_Fonts.o [3]
GUI_FontLubalGraph16    0x0802d4c8     0x24  Data  Gb  ST_Fonts.o [3]
GUI_FontLubalGraph16B   0x08030358     0x24  Data  Gb  ST_Fonts.o [3]
GUI_FontLubalGraph16B_CharInfo
                        0x0802f56c    0xbe8  Data  Gb  ST_Fonts.o [3]
GUI_FontLubalGraph16B_Prop1
                        0x0803034c      0xc  Data  Gb  ST_Fonts.o [3]
GUI_FontLubalGraph16B_Prop10
                        0x080302e0      0xc  Data  Gb  ST_Fonts.o [3]
GUI_FontLubalGraph16B_Prop11
                        0x080302d4      0xc  Data  Gb  ST_Fonts.o [3]
GUI_FontLubalGraph16B_Prop12
                        0x080302c8      0xc  Data  Gb  ST_Fonts.o [3]
GUI_FontLubalGraph16B_Prop13
                        0x080302bc      0xc  Data  Gb  ST_Fonts.o [3]
GUI_FontLubalGraph16B_Prop14
                        0x080302b0      0xc  Data  Gb  ST_Fonts.o [3]
GUI_FontLubalGraph16B_Prop15
                        0x080302a4      0xc  Data  Gb  ST_Fonts.o [3]
GUI_FontLubalGraph16B_Prop16
                        0x08030298      0xc  Data  Gb  ST_Fonts.o [3]
GUI_FontLubalGraph16B_Prop17
                        0x0803028c      0xc  Data  Gb  ST_Fonts.o [3]
GUI_FontLubalGraph16B_Prop18
                        0x08030280      0xc  Data  Gb  ST_Fonts.o [3]
GUI_FontLubalGraph16B_Prop19
                        0x08030274      0xc  Data  Gb  ST_Fonts.o [3]
GUI_FontLubalGraph16B_Prop2
                        0x08030340      0xc  Data  Gb  ST_Fonts.o [3]
GUI_FontLubalGraph16B_Prop20
                        0x08030268      0xc  Data  Gb  ST_Fonts.o [3]
GUI_FontLubalGraph16B_Prop21
                        0x0803025c      0xc  Data  Gb  ST_Fonts.o [3]
GUI_FontLubalGraph16B_Prop22
                        0x08030250      0xc  Data  Gb  ST_Fonts.o [3]
GUI_FontLubalGraph16B_Prop23
                        0x08030244      0xc  Data  Gb  ST_Fonts.o [3]
GUI_FontLubalGraph16B_Prop24
                        0x08030238      0xc  Data  Gb  ST_Fonts.o [3]
GUI_FontLubalGraph16B_Prop25
                        0x0803022c      0xc  Data  Gb  ST_Fonts.o [3]
GUI_FontLubalGraph16B_Prop26
                        0x08030220      0xc  Data  Gb  ST_Fonts.o [3]
GUI_FontLubalGraph16B_Prop27
                        0x08030214      0xc  Data  Gb  ST_Fonts.o [3]
GUI_FontLubalGraph16B_Prop28
                        0x08030208      0xc  Data  Gb  ST_Fonts.o [3]
GUI_FontLubalGraph16B_Prop29
                        0x080301fc      0xc  Data  Gb  ST_Fonts.o [3]
GUI_FontLubalGraph16B_Prop3
                        0x08030334      0xc  Data  Gb  ST_Fonts.o [3]
GUI_FontLubalGraph16B_Prop30
                        0x080301f0      0xc  Data  Gb  ST_Fonts.o [3]
GUI_FontLubalGraph16B_Prop31
                        0x080301e4      0xc  Data  Gb  ST_Fonts.o [3]
GUI_FontLubalGraph16B_Prop32
                        0x080301d8      0xc  Data  Gb  ST_Fonts.o [3]
GUI_FontLubalGraph16B_Prop33
                        0x080301cc      0xc  Data  Gb  ST_Fonts.o [3]
GUI_FontLubalGraph16B_Prop34
                        0x080301c0      0xc  Data  Gb  ST_Fonts.o [3]
GUI_FontLubalGraph16B_Prop35
                        0x080301b4      0xc  Data  Gb  ST_Fonts.o [3]
GUI_FontLubalGraph16B_Prop36
                        0x080301a8      0xc  Data  Gb  ST_Fonts.o [3]
GUI_FontLubalGraph16B_Prop37
                        0x0803019c      0xc  Data  Gb  ST_Fonts.o [3]
GUI_FontLubalGraph16B_Prop38
                        0x08030190      0xc  Data  Gb  ST_Fonts.o [3]
GUI_FontLubalGraph16B_Prop39
                        0x08030184      0xc  Data  Gb  ST_Fonts.o [3]
GUI_FontLubalGraph16B_Prop4
                        0x08030328      0xc  Data  Gb  ST_Fonts.o [3]
GUI_FontLubalGraph16B_Prop40
                        0x08030178      0xc  Data  Gb  ST_Fonts.o [3]
GUI_FontLubalGraph16B_Prop41
                        0x0803016c      0xc  Data  Gb  ST_Fonts.o [3]
GUI_FontLubalGraph16B_Prop42
                        0x08030160      0xc  Data  Gb  ST_Fonts.o [3]
GUI_FontLubalGraph16B_Prop43
                        0x08030154      0xc  Data  Gb  ST_Fonts.o [3]
GUI_FontLubalGraph16B_Prop5
                        0x0803031c      0xc  Data  Gb  ST_Fonts.o [3]
GUI_FontLubalGraph16B_Prop6
                        0x08030310      0xc  Data  Gb  ST_Fonts.o [3]
GUI_FontLubalGraph16B_Prop7
                        0x08030304      0xc  Data  Gb  ST_Fonts.o [3]
GUI_FontLubalGraph16B_Prop8
                        0x080302f8      0xc  Data  Gb  ST_Fonts.o [3]
GUI_FontLubalGraph16B_Prop9
                        0x080302ec      0xc  Data  Gb  ST_Fonts.o [3]
GUI_FontLubalGraph16_CharInfo
                        0x0802c6dc    0xbe8  Data  Gb  ST_Fonts.o [3]
GUI_FontLubalGraph16_Prop1
                        0x0802d4bc      0xc  Data  Gb  ST_Fonts.o [3]
GUI_FontLubalGraph16_Prop10
                        0x0802d450      0xc  Data  Gb  ST_Fonts.o [3]
GUI_FontLubalGraph16_Prop11
                        0x0802d444      0xc  Data  Gb  ST_Fonts.o [3]
GUI_FontLubalGraph16_Prop12
                        0x0802d438      0xc  Data  Gb  ST_Fonts.o [3]
GUI_FontLubalGraph16_Prop13
                        0x0802d42c      0xc  Data  Gb  ST_Fonts.o [3]
GUI_FontLubalGraph16_Prop14
                        0x0802d420      0xc  Data  Gb  ST_Fonts.o [3]
GUI_FontLubalGraph16_Prop15
                        0x0802d414      0xc  Data  Gb  ST_Fonts.o [3]
GUI_FontLubalGraph16_Prop16
                        0x0802d408      0xc  Data  Gb  ST_Fonts.o [3]
GUI_FontLubalGraph16_Prop17
                        0x0802d3fc      0xc  Data  Gb  ST_Fonts.o [3]
GUI_FontLubalGraph16_Prop18
                        0x0802d3f0      0xc  Data  Gb  ST_Fonts.o [3]
GUI_FontLubalGraph16_Prop19
                        0x0802d3e4      0xc  Data  Gb  ST_Fonts.o [3]
GUI_FontLubalGraph16_Prop2
                        0x0802d4b0      0xc  Data  Gb  ST_Fonts.o [3]
GUI_FontLubalGraph16_Prop20
                        0x0802d3d8      0xc  Data  Gb  ST_Fonts.o [3]
GUI_FontLubalGraph16_Prop21
                        0x0802d3cc      0xc  Data  Gb  ST_Fonts.o [3]
GUI_FontLubalGraph16_Prop22
                        0x0802d3c0      0xc  Data  Gb  ST_Fonts.o [3]
GUI_FontLubalGraph16_Prop23
                        0x0802d3b4      0xc  Data  Gb  ST_Fonts.o [3]
GUI_FontLubalGraph16_Prop24
                        0x0802d3a8      0xc  Data  Gb  ST_Fonts.o [3]
GUI_FontLubalGraph16_Prop25
                        0x0802d39c      0xc  Data  Gb  ST_Fonts.o [3]
GUI_FontLubalGraph16_Prop26
                        0x0802d390      0xc  Data  Gb  ST_Fonts.o [3]
GUI_FontLubalGraph16_Prop27
                        0x0802d384      0xc  Data  Gb  ST_Fonts.o [3]
GUI_FontLubalGraph16_Prop28
                        0x0802d378      0xc  Data  Gb  ST_Fonts.o [3]
GUI_FontLubalGraph16_Prop29
                        0x0802d36c      0xc  Data  Gb  ST_Fonts.o [3]
GUI_FontLubalGraph16_Prop3
                        0x0802d4a4      0xc  Data  Gb  ST_Fonts.o [3]
GUI_FontLubalGraph16_Prop30
                        0x0802d360      0xc  Data  Gb  ST_Fonts.o [3]
GUI_FontLubalGraph16_Prop31
                        0x0802d354      0xc  Data  Gb  ST_Fonts.o [3]
GUI_FontLubalGraph16_Prop32
                        0x0802d348      0xc  Data  Gb  ST_Fonts.o [3]
GUI_FontLubalGraph16_Prop33
                        0x0802d33c      0xc  Data  Gb  ST_Fonts.o [3]
GUI_FontLubalGraph16_Prop34
                        0x0802d330      0xc  Data  Gb  ST_Fonts.o [3]
GUI_FontLubalGraph16_Prop35
                        0x0802d324      0xc  Data  Gb  ST_Fonts.o [3]
GUI_FontLubalGraph16_Prop36
                        0x0802d318      0xc  Data  Gb  ST_Fonts.o [3]
GUI_FontLubalGraph16_Prop37
                        0x0802d30c      0xc  Data  Gb  ST_Fonts.o [3]
GUI_FontLubalGraph16_Prop38
                        0x0802d300      0xc  Data  Gb  ST_Fonts.o [3]
GUI_FontLubalGraph16_Prop39
                        0x0802d2f4      0xc  Data  Gb  ST_Fonts.o [3]
GUI_FontLubalGraph16_Prop4
                        0x0802d498      0xc  Data  Gb  ST_Fonts.o [3]
GUI_FontLubalGraph16_Prop40
                        0x0802d2e8      0xc  Data  Gb  ST_Fonts.o [3]
GUI_FontLubalGraph16_Prop41
                        0x0802d2dc      0xc  Data  Gb  ST_Fonts.o [3]
GUI_FontLubalGraph16_Prop42
                        0x0802d2d0      0xc  Data  Gb  ST_Fonts.o [3]
GUI_FontLubalGraph16_Prop43
                        0x0802d2c4      0xc  Data  Gb  ST_Fonts.o [3]
GUI_FontLubalGraph16_Prop5
                        0x0802d48c      0xc  Data  Gb  ST_Fonts.o [3]
GUI_FontLubalGraph16_Prop6
                        0x0802d480      0xc  Data  Gb  ST_Fonts.o [3]
GUI_FontLubalGraph16_Prop7
                        0x0802d474      0xc  Data  Gb  ST_Fonts.o [3]
GUI_FontLubalGraph16_Prop8
                        0x0802d468      0xc  Data  Gb  ST_Fonts.o [3]
GUI_FontLubalGraph16_Prop9
                        0x0802d45c      0xc  Data  Gb  ST_Fonts.o [3]
GUI_FontLubalGraph20    0x08034470     0x24  Data  Gb  ST_Fonts.o [3]
GUI_FontLubalGraph20B   0x08038100     0x24  Data  Gb  ST_Fonts.o [3]
GUI_FontLubalGraph20B_CharInfo
                        0x08037314    0xbe8  Data  Gb  ST_Fonts.o [3]
GUI_FontLubalGraph20B_Prop1
                        0x080380f4      0xc  Data  Gb  ST_Fonts.o [3]
GUI_FontLubalGraph20B_Prop10
                        0x08038088      0xc  Data  Gb  ST_Fonts.o [3]
GUI_FontLubalGraph20B_Prop11
                        0x0803807c      0xc  Data  Gb  ST_Fonts.o [3]
GUI_FontLubalGraph20B_Prop12
                        0x08038070      0xc  Data  Gb  ST_Fonts.o [3]
GUI_FontLubalGraph20B_Prop13
                        0x08038064      0xc  Data  Gb  ST_Fonts.o [3]
GUI_FontLubalGraph20B_Prop14
                        0x08038058      0xc  Data  Gb  ST_Fonts.o [3]
GUI_FontLubalGraph20B_Prop15
                        0x0803804c      0xc  Data  Gb  ST_Fonts.o [3]
GUI_FontLubalGraph20B_Prop16
                        0x08038040      0xc  Data  Gb  ST_Fonts.o [3]
GUI_FontLubalGraph20B_Prop17
                        0x08038034      0xc  Data  Gb  ST_Fonts.o [3]
GUI_FontLubalGraph20B_Prop18
                        0x08038028      0xc  Data  Gb  ST_Fonts.o [3]
GUI_FontLubalGraph20B_Prop19
                        0x0803801c      0xc  Data  Gb  ST_Fonts.o [3]
GUI_FontLubalGraph20B_Prop2
                        0x080380e8      0xc  Data  Gb  ST_Fonts.o [3]
GUI_FontLubalGraph20B_Prop20
                        0x08038010      0xc  Data  Gb  ST_Fonts.o [3]
GUI_FontLubalGraph20B_Prop21
                        0x08038004      0xc  Data  Gb  ST_Fonts.o [3]
GUI_FontLubalGraph20B_Prop22
                        0x08037ff8      0xc  Data  Gb  ST_Fonts.o [3]
GUI_FontLubalGraph20B_Prop23
                        0x08037fec      0xc  Data  Gb  ST_Fonts.o [3]
GUI_FontLubalGraph20B_Prop24
                        0x08037fe0      0xc  Data  Gb  ST_Fonts.o [3]
GUI_FontLubalGraph20B_Prop25
                        0x08037fd4      0xc  Data  Gb  ST_Fonts.o [3]
GUI_FontLubalGraph20B_Prop26
                        0x08037fc8      0xc  Data  Gb  ST_Fonts.o [3]
GUI_FontLubalGraph20B_Prop27
                        0x08037fbc      0xc  Data  Gb  ST_Fonts.o [3]
GUI_FontLubalGraph20B_Prop28
                        0x08037fb0      0xc  Data  Gb  ST_Fonts.o [3]
GUI_FontLubalGraph20B_Prop29
                        0x08037fa4      0xc  Data  Gb  ST_Fonts.o [3]
GUI_FontLubalGraph20B_Prop3
                        0x080380dc      0xc  Data  Gb  ST_Fonts.o [3]
GUI_FontLubalGraph20B_Prop30
                        0x08037f98      0xc  Data  Gb  ST_Fonts.o [3]
GUI_FontLubalGraph20B_Prop31
                        0x08037f8c      0xc  Data  Gb  ST_Fonts.o [3]
GUI_FontLubalGraph20B_Prop32
                        0x08037f80      0xc  Data  Gb  ST_Fonts.o [3]
GUI_FontLubalGraph20B_Prop33
                        0x08037f74      0xc  Data  Gb  ST_Fonts.o [3]
GUI_FontLubalGraph20B_Prop34
                        0x08037f68      0xc  Data  Gb  ST_Fonts.o [3]
GUI_FontLubalGraph20B_Prop35
                        0x08037f5c      0xc  Data  Gb  ST_Fonts.o [3]
GUI_FontLubalGraph20B_Prop36
                        0x08037f50      0xc  Data  Gb  ST_Fonts.o [3]
GUI_FontLubalGraph20B_Prop37
                        0x08037f44      0xc  Data  Gb  ST_Fonts.o [3]
GUI_FontLubalGraph20B_Prop38
                        0x08037f38      0xc  Data  Gb  ST_Fonts.o [3]
GUI_FontLubalGraph20B_Prop39
                        0x08037f2c      0xc  Data  Gb  ST_Fonts.o [3]
GUI_FontLubalGraph20B_Prop4
                        0x080380d0      0xc  Data  Gb  ST_Fonts.o [3]
GUI_FontLubalGraph20B_Prop40
                        0x08037f20      0xc  Data  Gb  ST_Fonts.o [3]
GUI_FontLubalGraph20B_Prop41
                        0x08037f14      0xc  Data  Gb  ST_Fonts.o [3]
GUI_FontLubalGraph20B_Prop42
                        0x08037f08      0xc  Data  Gb  ST_Fonts.o [3]
GUI_FontLubalGraph20B_Prop43
                        0x08037efc      0xc  Data  Gb  ST_Fonts.o [3]
GUI_FontLubalGraph20B_Prop5
                        0x080380c4      0xc  Data  Gb  ST_Fonts.o [3]
GUI_FontLubalGraph20B_Prop6
                        0x080380b8      0xc  Data  Gb  ST_Fonts.o [3]
GUI_FontLubalGraph20B_Prop7
                        0x080380ac      0xc  Data  Gb  ST_Fonts.o [3]
GUI_FontLubalGraph20B_Prop8
                        0x080380a0      0xc  Data  Gb  ST_Fonts.o [3]
GUI_FontLubalGraph20B_Prop9
                        0x08038094      0xc  Data  Gb  ST_Fonts.o [3]
GUI_FontLubalGraph20_CharInfo
                        0x08033684    0xbe8  Data  Gb  ST_Fonts.o [3]
GUI_FontLubalGraph20_Prop1
                        0x08034464      0xc  Data  Gb  ST_Fonts.o [3]
GUI_FontLubalGraph20_Prop10
                        0x080343f8      0xc  Data  Gb  ST_Fonts.o [3]
GUI_FontLubalGraph20_Prop11
                        0x080343ec      0xc  Data  Gb  ST_Fonts.o [3]
GUI_FontLubalGraph20_Prop12
                        0x080343e0      0xc  Data  Gb  ST_Fonts.o [3]
GUI_FontLubalGraph20_Prop13
                        0x080343d4      0xc  Data  Gb  ST_Fonts.o [3]
GUI_FontLubalGraph20_Prop14
                        0x080343c8      0xc  Data  Gb  ST_Fonts.o [3]
GUI_FontLubalGraph20_Prop15
                        0x080343bc      0xc  Data  Gb  ST_Fonts.o [3]
GUI_FontLubalGraph20_Prop16
                        0x080343b0      0xc  Data  Gb  ST_Fonts.o [3]
GUI_FontLubalGraph20_Prop17
                        0x080343a4      0xc  Data  Gb  ST_Fonts.o [3]
GUI_FontLubalGraph20_Prop18
                        0x08034398      0xc  Data  Gb  ST_Fonts.o [3]
GUI_FontLubalGraph20_Prop19
                        0x0803438c      0xc  Data  Gb  ST_Fonts.o [3]
GUI_FontLubalGraph20_Prop2
                        0x08034458      0xc  Data  Gb  ST_Fonts.o [3]
GUI_FontLubalGraph20_Prop20
                        0x08034380      0xc  Data  Gb  ST_Fonts.o [3]
GUI_FontLubalGraph20_Prop21
                        0x08034374      0xc  Data  Gb  ST_Fonts.o [3]
GUI_FontLubalGraph20_Prop22
                        0x08034368      0xc  Data  Gb  ST_Fonts.o [3]
GUI_FontLubalGraph20_Prop23
                        0x0803435c      0xc  Data  Gb  ST_Fonts.o [3]
GUI_FontLubalGraph20_Prop24
                        0x08034350      0xc  Data  Gb  ST_Fonts.o [3]
GUI_FontLubalGraph20_Prop25
                        0x08034344      0xc  Data  Gb  ST_Fonts.o [3]
GUI_FontLubalGraph20_Prop26
                        0x08034338      0xc  Data  Gb  ST_Fonts.o [3]
GUI_FontLubalGraph20_Prop27
                        0x0803432c      0xc  Data  Gb  ST_Fonts.o [3]
GUI_FontLubalGraph20_Prop28
                        0x08034320      0xc  Data  Gb  ST_Fonts.o [3]
GUI_FontLubalGraph20_Prop29
                        0x08034314      0xc  Data  Gb  ST_Fonts.o [3]
GUI_FontLubalGraph20_Prop3
                        0x0803444c      0xc  Data  Gb  ST_Fonts.o [3]
GUI_FontLubalGraph20_Prop30
                        0x08034308      0xc  Data  Gb  ST_Fonts.o [3]
GUI_FontLubalGraph20_Prop31
                        0x080342fc      0xc  Data  Gb  ST_Fonts.o [3]
GUI_FontLubalGraph20_Prop32
                        0x080342f0      0xc  Data  Gb  ST_Fonts.o [3]
GUI_FontLubalGraph20_Prop33
                        0x080342e4      0xc  Data  Gb  ST_Fonts.o [3]
GUI_FontLubalGraph20_Prop34
                        0x080342d8      0xc  Data  Gb  ST_Fonts.o [3]
GUI_FontLubalGraph20_Prop35
                        0x080342cc      0xc  Data  Gb  ST_Fonts.o [3]
GUI_FontLubalGraph20_Prop36
                        0x080342c0      0xc  Data  Gb  ST_Fonts.o [3]
GUI_FontLubalGraph20_Prop37
                        0x080342b4      0xc  Data  Gb  ST_Fonts.o [3]
GUI_FontLubalGraph20_Prop38
                        0x080342a8      0xc  Data  Gb  ST_Fonts.o [3]
GUI_FontLubalGraph20_Prop39
                        0x0803429c      0xc  Data  Gb  ST_Fonts.o [3]
GUI_FontLubalGraph20_Prop4
                        0x08034440      0xc  Data  Gb  ST_Fonts.o [3]
GUI_FontLubalGraph20_Prop40
                        0x08034290      0xc  Data  Gb  ST_Fonts.o [3]
GUI_FontLubalGraph20_Prop41
                        0x08034284      0xc  Data  Gb  ST_Fonts.o [3]
GUI_FontLubalGraph20_Prop42
                        0x08034278      0xc  Data  Gb  ST_Fonts.o [3]
GUI_FontLubalGraph20_Prop43
                        0x0803426c      0xc  Data  Gb  ST_Fonts.o [3]
GUI_FontLubalGraph20_Prop5
                        0x08034434      0xc  Data  Gb  ST_Fonts.o [3]
GUI_FontLubalGraph20_Prop6
                        0x08034428      0xc  Data  Gb  ST_Fonts.o [3]
GUI_FontLubalGraph20_Prop7
                        0x0803441c      0xc  Data  Gb  ST_Fonts.o [3]
GUI_FontLubalGraph20_Prop8
                        0x08034410      0xc  Data  Gb  ST_Fonts.o [3]
GUI_FontLubalGraph20_Prop9
                        0x08034404      0xc  Data  Gb  ST_Fonts.o [3]
GUI_GIF_DrawSub         0x0806c121     0x26  Code  Gb  GUI_GIF.o [4]
GUI_GIF_DrawSubEx       0x0806bd61    0x3a6  Code  Gb  GUI_GIF.o [4]
GUI_GIF_GetImageInfo    0x0806c625     0x20  Code  Gb  GUI_GIF.o [4]
GUI_GIF_GetImageInfoEx  0x0806c3a1    0x284  Code  Gb  GUI_GIF.o [4]
GUI_GIF_GetInfo         0x0806c381     0x20  Code  Gb  GUI_GIF.o [4]
GUI_GIF_GetInfoEx       0x0806c14d    0x234  Code  Gb  GUI_GIF.o [4]
GUI_GIF_GetXSize        0x0806bd0f     0x26  Code  Gb  GUI_GIF.o [4]
GUI_GIF_GetYSize        0x0806bd35     0x26  Code  Gb  GUI_GIF.o [4]
GUI_GIF_SetFillTrans    0x0806c645     0x12  Code  Gb  GUI_GIF.o [4]
GUI_GIF__GetData        0x0806bcef     0x20  Code  Gb  GUI_GIF.o [4]
GUI_GIF__GetNextByte    0x0806bb73    0x14a  Code  Gb  GUI_GIF.o [4]
GUI_GIF__InitLZW        0x0806bcbd     0x32  Code  Gb  GUI_GIF.o [4]
GUI_GIF__aInterlaceOffset
                        0x0806b864     0x10  Data  Gb  GUI_GIF.o [4]
GUI_GIF__aInterlaceYPos
                        0x0806b874     0x10  Data  Gb  GUI_GIF.o [4]
GUI_GetBitmapPixelIndex
                        0x0806a681     0x1a  Code  Gb  GUI_GetBitmapPixelIndex.o [4]
GUI_GetBitmapPixelIndexEx
                        0x0806a5e5     0x9c  Code  Gb  GUI_GetBitmapPixelIndex.o [4]
GUI_GetBitsPerPixelEx   0x08040c45      0xe  Code  Gb  LCD_GetEx.o [4]
GUI_GetBkColor          0x0805e531     0x18  Code  Gb  GUI_GetColor.o [4]
GUI_GetCharDistX        0x0805e7e9     0x20  Code  Gb  GUI_Char.o [4]
GUI_GetCharDistXEx      0x0805e809     0x26  Code  Gb  GUI_Char.o [4]
GUI_GetClientRect       0x0806b12d      0xa  Code  Gb  GUI_GetClientRect.o [4]
GUI_GetColor            0x0805e549     0x18  Code  Gb  GUI_GetColor.o [4]
GUI_GetCursorLayer      0x080420ed     0x10  Code  Gb  GUI_SelectLayer.o [4]
GUI_GetDrawMode         0x08046339     0x18  Code  Gb  GUI_GetDrawMode.o [4]
GUI_GetFont             0x0805e561     0x18  Code  Gb  GUI_GetFont.o [4]
GUI_GetFontDistY        0x0805e7d3     0x16  Code  Gb  GUI_Char.o [4]
GUI_GetFontSizeY        0x0806b537     0x14  Code  Gb  GUI_GetFontSizeY.o [4]
GUI_GetLayerPosEx       0x080420fd     0x26  Code  Gb  GUI_SelectLayer.o [4]
GUI_GetOrg              0x08044371     0x26  Code  Gb  GUI_GetOrg.o [4]
GUI_GetPenSize          0x080442b1     0x14  Code  Gb  GUI_Pen.o [4]
GUI_GetStringDistX      0x0805d9f5     0x14  Code  Gb  GUI_GetStringDistX.o [4]
GUI_GetTime             0x08044085      0x4  Code  Gb  GUI_Time.o [4]
GUI_GetYAdjust          0x0805e79f     0x34  Code  Gb  GUI_Char.o [4]
GUI_GetYDistOfFont      0x0805ac5f      0xa  Code  Gb  GUI_GetYSizeOfFont.o [4]
GUI_GetYSizeOfFont      0x0805ac55      0xa  Code  Gb  GUI_GetYSizeOfFont.o [4]
GUI_GetpfColor2IndexEx  0x08040c81      0xc  Code  Gb  LCD_GetEx.o [4]
GUI_GetpfIndex2ColorEx  0x08040c75      0xc  Code  Gb  LCD_GetEx.o [4]
GUI_GotoXY              0x08042b35     0x1e  Code  Gb  GUI_Goto.o [4]
GUI_Init                0x080417d7     0xd4  Code  Gb  GUI_Core.o [4]
GUI_JPEG_Draw           0x0803e00b     0x3c  Code  Gb  GUI_JPEG.o [4]
GUI_JPEG_DrawScaled     0x080743bd     0x3c  Code  Gb  GUI_JPEG_DrawScaled.o [4]
GUI_JPEG__AllocBandingCoeffBuffer
                        0x0803ded7    0x106  Code  Gb  GUI_JPEG.o [4]
GUI_JPEG__DecodeLine    0x0803dc3d    0x13e  Code  Gb  GUI_JPEG.o [4]
GUI_JPEG__DecodeProgressiveBanding
                        0x0803d9b5    0x19a  Code  Gb  GUI_JPEG.o [4]
GUI_JPEG__Free          0x0803db4f     0x84  Code  Gb  GUI_JPEG.o [4]
GUI_JPEG__GetColorGray  0x0803dd99      0xe  Code  Gb  GUI_JPEG.o [4]
GUI_JPEG__GetColorRGB   0x0803dd7d     0x1c  Code  Gb  GUI_JPEG.o [4]
GUI_JPEG__GetData       0x0803d90d     0x20  Code  Gb  GUI_JPEG.o [4]
GUI_JPEG__GetInfoEx     0x0803dfdd     0x2e  Code  Gb  GUI_JPEG.o [4]
GUI_JPEG__InitDraw      0x0803dda7     0x62  Code  Gb  GUI_JPEG.o [4]
GUI_JPEG__ReadUntilSOF  0x0803d92d     0x86  Code  Gb  GUI_JPEG.o [4]
GUI_JPEG__SetNextBand   0x0803de09     0xce  Code  Gb  GUI_JPEG.o [4]
GUI_JPEG__SkipLine      0x0803dbd3     0x6a  Code  Gb  GUI_JPEG.o [4]
GUI_Lock                0x0804156f     0x64  Code  Gb  GUI_Task.o [4]
GUI_MEMDEV_Clear        0x08044489     0x48  Code  Gb  GUIDEV_Clear.o [4]
GUI_MEMDEV_CopyToLCD    0x08041d73     0xa0  Code  Gb  GUIDEV.o [4]
GUI_MEMDEV_Create       0x08041d15     0x10  Code  Gb  GUIDEV.o [4]
GUI_MEMDEV_CreateEx     0x08041c9b     0x7a  Code  Gb  GUIDEV.o [4]
GUI_MEMDEV_CreateFixed  0x0806d601     0x3c  Code  Gb  GUIDEV_CreateFixed.o [4]
GUI_MEMDEV_DEVICE_16    0x080866e0     0x34  Data  Gb  GUIDEV_16.o [4]
GUI_MEMDEV_DEVICE_32    0x08085d08     0x34  Data  Gb  GUIDEV_32.o [4]
GUI_MEMDEV_Delete       0x08041c55     0x46  Code  Gb  GUIDEV.o [4]
GUI_MEMDEV_Draw         0x08042219    0x116  Code  Gb  GUIDEV_Banding.o [4]
GUI_MEMDEV_GetBitsPerPixel
                        0x08041c21     0x34  Code  Gb  GUIDEV.o [4]
GUI_MEMDEV_GetDataPtr   0x08046395     0x2e  Code  Gb  GUIDEV_GetDataPtr.o [4]
GUI_MEMDEV_GetXPos      0x0806d4b1     0x32  Code  Gb  GUIDEV_GetPos.o [4]
GUI_MEMDEV_GetYPos      0x0806d4e3     0x32  Code  Gb  GUIDEV_GetPos.o [4]
GUI_MEMDEV_GetYSize     0x080443a1     0x38  Code  Gb  GUIDEV_GetYSize.o [4]
GUI_MEMDEV_Paint1Static
                        0x08091c8b     0x24  Code  Gb  GUIDEV_StaticDevices.o [4]
GUI_MEMDEV_ReduceYSize  0x080443d9     0x3c  Code  Gb  GUIDEV_ReduceYSize.o [4]
GUI_MEMDEV_Select       0x08041d25     0x4e  Code  Gb  GUIDEV.o [4]
GUI_MEMDEV_SetOrg       0x08044415     0x74  Code  Gb  GUIDEV_SetOrg.o [4]
GUI_MEMDEV_Write        0x0806d595     0x6c  Code  Gb  GUIDEV_Write.o [4]
GUI_MEMDEV_WriteAt      0x0806d519     0x78  Code  Gb  GUIDEV_Write.o [4]
GUI_MEMDEV__CreateFixed
                        0x08041b13    0x10e  Code  Gb  GUIDEV.o [4]
GUI_MEMDEV__WriteToActiveAlpha
                        0x080919dd    0x178  Code  Gb  GUIDEV_WriteToActiveAlpha.o [4]
GUI_MEMDEV__WriteToActiveAt
                        0x08041add     0x36  Code  Gb  GUIDEV.o [4]
GUI_MEMDEV__WriteToActiveOpaque
                        0x08043c9d     0x42  Code  Gb  GUIDEV_WriteToActiveOpaque.o [4]
GUI_MOUSE_StoreState    0x0806fb51     0x28  Code  Gb  GUI_MOUSE.o [4]
GUI_MOVIE_CreateEx      0x08073109     0x82  Code  Gb  GUI_MOVIE.o [4]
GUI_MOVIE_Delete        0x0807324d     0x5a  Code  Gb  GUI_MOVIE.o [4]
GUI_MOVIE_GetFrameIndex
                        0x0807333b     0x2a  Code  Gb  GUI_MOVIE.o [4]
GUI_MOVIE_GetInfoEx     0x08073365     0x4c  Code  Gb  GUI_MOVIE.o [4]
GUI_MOVIE_GotoFrame     0x080732f3     0x48  Code  Gb  GUI_MOVIE.o [4]
GUI_MOVIE_Pause         0x080732a7     0x20  Code  Gb  GUI_MOVIE.o [4]
GUI_MOVIE_Play          0x0807318b     0x6e  Code  Gb  GUI_MOVIE.o [4]
GUI_MOVIE_SetPeriod     0x080732c7     0x2c  Code  Gb  GUI_MOVIE.o [4]
GUI_MOVIE_Show          0x080731f9     0x54  Code  Gb  GUI_MOVIE.o [4]
GUI_MULTIBUF_APIList    0x08093558      0x8  Data  Gb  GUI_MULTIBUF.o [4]
GUI_MULTIBUF_Begin      0x08045e1b      0x8  Code  Gb  GUI_MULTIBUF.o [4]
GUI_MULTIBUF_BeginEx    0x08045d29     0x74  Code  Gb  GUI_MULTIBUF.o [4]
GUI_MULTIBUF_ConfigEx   0x08045e07     0x14  Code  Gb  GUI_MULTIBUF.o [4]
GUI_MULTIBUF_ConfirmEx  0x08045de7     0x20  Code  Gb  GUI_MULTIBUF.o [4]
GUI_MULTIBUF_End        0x08045e23      0x8  Code  Gb  GUI_MULTIBUF.o [4]
GUI_MULTIBUF_EndEx      0x08045d9d     0x4a  Code  Gb  GUI_MULTIBUF.o [4]
GUI_MergeRect           0x08041a4d     0x5e  Code  Gb  GUI_MergeRect.o [4]
GUI_MoveRect            0x08041991     0x1c  Code  Gb  GUI_MoveRect.o [4]
GUI_OrgX                0x200400c8      0x2  Data  Gb  GUI_Core.o [4]
GUI_OrgY                0x200400ca      0x2  Data  Gb  GUI_Core.o [4]
GUI_PID_GetCurrentState
                        0x080542c1     0x1c  Code  Gb  GUI_PID.o [4]
GUI_PID_GetState        0x08054279     0x48  Code  Gb  GUI_PID.o [4]
GUI_PID_IsEmpty         0x0805435f     0x12  Code  Gb  GUI_PID.o [4]
GUI_PID_StoreState      0x080542dd     0x82  Code  Gb  GUI_PID.o [4]
GUI_PixelsHeaderM       0x08092f0c     0x58  Data  Gb  GUI_CursorHeaderMPx.o [4]
GUI_PollKeyMsg          0x0804238f     0x34  Code  Gb  GUI_OnKey.o [4]
GUI_ReadRectEx          0x0806cd41     0x60  Code  Gb  LCD_ReadRect.o [4]
GUI_RectsIntersect      0x08041e21     0x38  Code  Gb  GUI_RectsIntersect.o [4]
GUI_RestoreContext      0x080424a7      0xc  Code  Gb  GUI_SaveContext.o [4]
GUI_SPRITE_Delete       0x080680f9     0x58  Code  Gb  GUI_SPRITE.o [4]
GUI_SPRITE_SetPosition  0x08068151     0x22  Code  Gb  GUI_SPRITE.o [4]
GUI_SPRITE_Show         0x08068173     0x5a  Code  Gb  GUI_SPRITE.o [4]
GUI_SPRITE__CreateEx    0x08068007     0xea  Code  Gb  GUI_SPRITE.o [4]
GUI_SaveContext_W       0x0804249d      0xa  Code  Gb  GUI_SaveContext.o [4]
GUI_SelectLCD           0x080434c1     0x1e  Code  Gb  GUI_SelectLCD.o [4]
GUI_SelectLayer         0x08042123     0x26  Code  Gb  GUI_SelectLayer.o [4]
GUI_SetBkColor          0x080424b9     0x16  Code  Gb  GUI_SetColor.o [4]
GUI_SetColor            0x080424cf     0x16  Code  Gb  GUI_SetColor.o [4]
GUI_SetColorIndex       0x08090239     0x20  Code  Gb  GUI_SetColorIndex.o [4]
GUI_SetDefaultFont      0x080416f9      0x8  Code  Gb  GUI_Core.o [4]
GUI_SetDialogStatusPtr  0x0804e569     0x26  Code  Gb  DIALOG.o [4]
GUI_SetDrawMode         0x08043565     0x18  Code  Gb  GUI_SetDrawMode.o [4]
GUI_SetFont             0x0804432d     0x24  Code  Gb  GUI_SetFont.o [4]
GUI_SetLayerPosEx       0x08042155     0x20  Code  Gb  GUI_SelectLayer.o [4]
GUI_SetLayerSizeEx      0x08042175     0x20  Code  Gb  GUI_SelectLayer.o [4]
GUI_SetLayerVisEx       0x08042195     0x20  Code  Gb  GUI_SelectLayer.o [4]
GUI_SetLineStyle        0x08044351     0x20  Code  Gb  GUI_SetLineStyle.o [4]
GUI_SetOrg              0x08043279     0x44  Code  Gb  GUI_SetOrg.o [4]
GUI_SetPenSize          0x080442c5     0x1c  Code  Gb  GUI_Pen.o [4]
GUI_SetTextAlign        0x080442e5     0x24  Code  Gb  GUI_SetTextAlign.o [4]
GUI_SetTextMode         0x08044309     0x24  Code  Gb  GUI_SetTextMode.o [4]
GUI_SignalEvent         0x08041aad      0xc  Code  Gb  GUI_WaitEvent.o [4]
GUI_StoreKey            0x0804233d      0xc  Code  Gb  GUI_OnKey.o [4]
GUI_StoreKeyMsg         0x08042349     0x46  Code  Gb  GUI_OnKey.o [4]
GUI_TIMER_Create        0x08043ee7     0x8a  Code  Gb  GUI_Timer.o [4]
GUI_TIMER_Delete        0x08043f71     0x66  Code  Gb  GUI_Timer.o [4]
GUI_TIMER_Exec          0x08043e7b     0x6c  Code  Gb  GUI_Timer.o [4]
GUI_TIMER_GetFlag       0x0804404b     0x3a  Code  Gb  GUI_Timer.o [4]
GUI_TIMER_Restart       0x0804400f     0x3c  Code  Gb  GUI_Timer.o [4]
GUI_TIMER_SetPeriod     0x08043fe9     0x26  Code  Gb  GUI_Timer.o [4]
GUI_TIMER__GetFirstTimer
                        0x08043e0f     0x28  Code  Gb  GUI_Timer.o [4]
GUI_TIMER__GetNextTimerLin
                        0x08043e37     0x38  Code  Gb  GUI_Timer.o [4]
GUI_TOUCH_StoreStateEx  0x080697f5     0x28  Code  Gb  GUI_TOUCH.o [4]
GUI_UC_None             0x0809322c     0x10  Data  Gb  GUI_UC_EncodeNone.o [4]
GUI_UC__GetCharCodeInc  0x0805ea15     0x26  Code  Gb  GUI_UC.o [4]
GUI_UC__NumChars2NumBytes
                        0x0805ea3b     0x24  Code  Gb  GUI_UC.o [4]
GUI_USAGE_AddRect       0x08043515     0x2c  Code  Gb  GUIDEV_Usage.o [4]
GUI_USAGE_BM_AddHLine   0x080432e9     0x6c  Code  Lc  GUIDEV_UsageBM.o [4]
GUI_USAGE_BM_AddPixel   0x080432bd     0x2c  Code  Lc  GUIDEV_UsageBM.o [4]
GUI_USAGE_BM_Clear      0x08043355      0xe  Code  Lc  GUIDEV_UsageBM.o [4]
GUI_USAGE_BM_Create     0x08043441     0x66  Code  Gb  GUIDEV_UsageBM.o [4]
GUI_USAGE_BM_GetNextDirty
                        0x08043363     0xda  Code  Lc  GUIDEV_UsageBM.o [4]
GUI_USAGE_DecUseCnt     0x080434e1     0x32  Code  Gb  GUIDEV_Usage.o [4]
GUI_Unlock              0x0804155f     0x10  Code  Gb  GUI_Task.o [4]
GUI_VNC_AttachToLayer   0x0806f8f7     0x54  Code  Gb  GUIVNC_Process.o [4]
GUI_VNC_DoDES           0x080787a3     0x7a  Code  Gb  GUIVNC_DES.o [4]
GUI_VNC_Process         0x0806f94b     0x1c  Code  Gb  GUIVNC_Process.o [4]
GUI_VNC_SetAuthentication
                        0x0806f96f      0x8  Code  Gb  GUIVNC_Process.o [4]
GUI_VNC_SetDESKey       0x0807881d    0x292  Code  Gb  GUIVNC_DES.o [4]
GUI_VNC_SetPassword     0x0807616b     0x58  Code  Gb  GUIVNC_Authentication.o [4]
GUI_VNC_SetProgName     0x0806f967      0x8  Code  Gb  GUIVNC_Process.o [4]
GUI_WaitForDialogExec   0x0804c2e1     0x2e  Code  Lc  audio_player_win.o [1]
GUI_WaitForDialogExec   0x080715e5     0x2e  Code  Lc  video_player_win.o [1]
GUI_X_Config            0x08042b59     0x10  Code  Gb  GUIConf.o [1]
GUI_X_Delay             0x08042a79      0x4  Code  Gb  GUI_X_OS.o [1]
GUI_X_GetTaskId         0x08042abb      0x4  Code  Gb  GUI_X_OS.o [1]
GUI_X_GetTime           0x08042a75      0x4  Code  Gb  GUI_X_OS.o [1]
GUI_X_Init              0x08042a7d      0x2  Code  Gb  GUI_X_OS.o [1]
GUI_X_InitOS            0x08042a7f     0x28  Code  Gb  GUI_X_OS.o [1]
GUI_X_Lock              0x08042aaf      0xc  Code  Gb  GUI_X_OS.o [1]
GUI_X_Unlock            0x08042aa7      0x8  Code  Gb  GUI_X_OS.o [1]
GUI__AllocAlphaBuffer   0x0806a9e9     0x7c  Code  Gb  GUI__Alpha.o [4]
GUI__AlphaSuppressMixing
                        0x08091cc5     0x20  Code  Gb  GUI_SetAlpha.o [4]
GUI__BufferSize         0x20040090      0x4  Data  Gb  GUI_Core.o [4]
GUI__CharHasTrans       0x20013e90      0x1  Data  Gb  GUI_EncExt.o [4]
GUI__CompactPixelIndices
                        0x080463c5    0x132  Code  Gb  GUI__CompactPixelIndices.o [4]
GUI__CompactPixelIndicesEx
                        0x08046641     0x10  Code  Gb  GUI__CompactPixelIndices.o [4]
GUI__Context            0x20013340     0x70  Data  Lc  GUI_Core.o [4]
GUI__ConvertColor2Index
                        0x080464f9    0x148  Code  Gb  GUI__CompactPixelIndices.o [4]
GUI__DispLine           0x0805e95d     0xa6  Code  Gb  GUI_CharLine.o [4]
GUI__DispStringInRect   0x080690e1    0x14c  Code  Gb  GUI_DispStringInRect.o [4]
GUI__DivideRound32      0x0806aa85     0x18  Code  Gb  GUI__DivideRound32.o [4]
GUI__DoAlphaBlending    0x0806a731    0x21a  Code  Gb  GUI__Alpha.o [4]
GUI__DrawTwinArc2       0x0808e4f5     0x6a  Code  Gb  GUI__DrawTwinArc.o [4]
GUI__DrawTwinArc4       0x0808e55f     0x68  Code  Gb  GUI__DrawTwinArc.o [4]
GUI__ExpandPixelIndices
                        0x0806cdf5     0xf4  Code  Gb  GUI__ExpandPixelIndices.o [4]
GUI__ExpandPixelIndicesEx
                        0x0806cee9    0x14e  Code  Gb  GUI__ExpandPixelIndices.o [4]
GUI__GetAlphaBuffer     0x0806a94b     0x9e  Code  Gb  GUI__Alpha.o [4]
GUI__GetFontSizeY       0x0806d46d     0x14  Code  Gb  GUI__GetFontSizeY.o [4]
GUI__GetLineDistX       0x0805e8f9     0x62  Code  Gb  GUI_CharLine.o [4]
GUI__GetLineNumChars    0x0805e8a1     0x3a  Code  Gb  GUI_CharLine.o [4]
GUI__GetNumChars        0x08064d69     0x1c  Code  Gb  GUI__GetNumChars.o [4]
GUI__GetOverlap         0x0805e8db     0x1e  Code  Gb  GUI_CharLine.o [4]
GUI__HandleEOLine       0x0806b137     0x16  Code  Gb  GUI__HandleEOLine.o [4]
GUI__IntersectRect      0x080419ad     0x40  Code  Gb  GUI__IntersectRect.o [4]
GUI__IntersectRects     0x080419ed     0x60  Code  Gb  GUI__IntersectRects.o [4]
GUI__ManageCache        0x0804248b      0xa  Code  Gb  GUI__ManageCache.o [4]
GUI__ManageCacheEx      0x080423c9     0xc2  Code  Gb  GUI__ManageCache.o [4]
GUI__MixColors          0x0806a6c5     0x68  Code  Gb  GUI__Alpha.o [4]
GUI__Read16             0x0806d481     0x12  Code  Gb  GUI__Read.o [4]
GUI__Read32             0x0806d493     0x1e  Code  Gb  GUI__Read.o [4]
GUI__ReduceRect         0x08056d2d     0x1a  Code  Gb  GUI__ReduceRect.o [4]
GUI__RegisterExit       0x080418ab      0xe  Code  Gb  GUI_Core.o [4]
GUI__SetPixelAlpha      0x080901d1     0x68  Code  Gb  GUI__SetPixelAlpha.o [4]
GUI__SetText            0x08056e3d     0x70  Code  Gb  GUI__SetText.o [4]
GUI__WrapGetNumBytesToNextLine
                        0x0806295d     0x14  Code  Gb  GUI__Wrap.o [4]
GUI__WrapGetNumCharsDisp
                        0x080628c1     0x1e  Code  Gb  GUI__Wrap.o [4]
GUI__WrapGetNumCharsToNextLine
                        0x080628df     0x78  Code  Gb  GUI__Wrap.o [4]
GUI__Wrap_pfGetCharWrap
                        0x20013ea4      0x4  Data  Gb  GUI__Wrap.o [4]
GUI__Wrap_pfGetWordWrap
                        0x20013ea0      0x4  Data  Gb  GUI__Wrap.o [4]
GUI__aConvert_255_31    0x08092870    0x100  Data  Gb  GUI__DivTbl_255_31.o [4]
GUI__aConvert_31_255    0x0809329c     0x20  Data  Gb  GUI__DivTbl_31_255.o [4]
GUI__aNumBuffers        0x200400c6      0x2  Data  Gb  GUI_Core.o [4]
GUI__apDevice           0x200133c8      0x8  Data  Gb  GUI_Core.o [4]
GUI__memset             0x0803e075    0x106  Code  Gb  GUI__memset.o [4]
GUI__memset16           0x08086715     0x58  Code  Gb  GUI__memset16.o [4]
GUI__pFontDefault       0x200133c0      0x4  Data  Gb  GUI_Core.o [4]
GUI__pfMixColors        0x20013ed0      0x4  Data  Gb  GUI__Alpha.o [4]
GUI__sqrt32             0x08056fb5     0x1a  Code  Gb  GUI__sqrt32.o [4]
GUI__strcmp_hp          0x0805e6d5     0x68  Code  Gb  GUI__strcmp.o [4]
GUI__strlen             0x0805b2a5     0x16  Code  Gb  GUI__strlen.o [4]
GUI_acFont6x8           0x0808abf4    0x518  Data  Lc  F6x8.o [4]
GUI_pContext            0x200133c4      0x4  Data  Gb  GUI_Core.o [4]
GUI_pLCD_APIList        0x20040098      0x4  Data  Gb  GUI_Core.o [4]
GUI_pUC_API             0x200133bc      0x4  Data  Gb  GUI_Core.o [4]
GUI_pfDispCharStyle     0x2004008c      0x4  Data  Gb  GUI_Core.o [4]
GUI_pfGetpPalConvTable  0x20013eb0      0x4  Data  Gb  GUI_Core.o [4]
GUI_pfTimerExec         0x20040084      0x4  Data  Gb  GUI_Core.o [4]
GUI_pfUpdateSoftLayer   0x20040080      0x4  Data  Gb  GUI_Core.o [4]
GUI_sin                 0x080733b5     0x56  Code  Gb  GUI_DrawLine.o [4]
GetBufferSize           0x0804308d     0x14  Code  Lc  LCDConf.o [1]
HAL_DMA_Abort           0x0805fc0f     0x50  Code  Gb  stm32f7xx_hal_dma.o [1]
HAL_DMA_DeInit          0x0805f777    0x402  Code  Gb  stm32f7xx_hal_dma.o [1]
HAL_DMA_IRQHandler      0x0805fc8d    0x9bc  Code  Gb  stm32f7xx_hal_dma.o [1]
HAL_DMA_Init            0x0805f70b     0x6c  Code  Gb  stm32f7xx_hal_dma.o [1]
HAL_DMA_Start_IT        0x0805fb9d     0x42  Code  Gb  stm32f7xx_hal_dma.o [1]
HAL_Delay               0x0805f16b     0x1c  Code  Gb  main.o [1]
HAL_ETH_DMARxDescListInit
                        0x0808b507     0x56  Code  Gb  stm32f7xx_hal_eth.o [1]
HAL_ETH_DMATxDescListInit
                        0x0808b4a1     0x66  Code  Gb  stm32f7xx_hal_eth.o [1]
HAL_ETH_ErrorCallback   0x0808b747      0x2  Code  Wk  stm32f7xx_hal_eth.o [1]
HAL_ETH_GetReceivedFrame_IT
                        0x0808b665     0x80  Code  Gb  stm32f7xx_hal_eth.o [1]
HAL_ETH_IRQHandler      0x0808b6e5     0x60  Code  Gb  stm32f7xx_hal_eth.o [1]
HAL_ETH_Init            0x0808b30d    0x180  Code  Gb  stm32f7xx_hal_eth.o [1]
HAL_ETH_MspInit         0x0808ba05     0xb4  Code  Gb  ethernetif.o [1]
HAL_ETH_ReadPHYRegister
                        0x0808b749     0x76  Code  Gb  stm32f7xx_hal_eth.o [1]
HAL_ETH_RxCpltCallback  0x0808bac1      0x8  Code  Gb  ethernetif.o [1]
HAL_ETH_Start           0x0808b831     0x50  Code  Gb  stm32f7xx_hal_eth.o [1]
HAL_ETH_TransmitFrame   0x0808b581     0xe4  Code  Gb  stm32f7xx_hal_eth.o [1]
HAL_ETH_TxCpltCallback  0x0808b745      0x2  Code  Wk  stm32f7xx_hal_eth.o [1]
HAL_ETH_WritePHYRegister
                        0x0808b7bf     0x66  Code  Gb  stm32f7xx_hal_eth.o [1]
HAL_GPIO_DeInit         0x08045a97    0x11a  Code  Gb  stm32f7xx_hal_gpio.o [1]
HAL_GPIO_EXTI_Callback  0x08045c05      0x2  Code  Wk  stm32f7xx_hal_gpio.o [1]
HAL_GPIO_EXTI_IRQHandler
                        0x08045bb9     0x14  Code  Gb  stm32f7xx_hal_gpio.o [1]
HAL_GPIO_Init           0x080458cd    0x1ca  Code  Gb  stm32f7xx_hal_gpio.o [1]
HAL_GPIO_WritePin       0x08045bb1      0x8  Code  Gb  stm32f7xx_hal_gpio.o [1]
HAL_GetTick             0x08047653      0x6  Code  Wk  stm32f7xx_hal.o [1]
HAL_HCD_Connect_Callback
                        0x08062a95     0x14  Code  Gb  usbh_conf.o [1]
HAL_HCD_Disconnect_Callback
                        0x08062aa9      0x8  Code  Gb  usbh_conf.o [1]
HAL_HCD_GetCurrentFrame
                        0x08068b73      0x6  Code  Gb  stm32f7xx_hal_hcd.o [1]
HAL_HCD_GetCurrentSpeed
                        0x08068b79      0x6  Code  Gb  stm32f7xx_hal_hcd.o [1]
HAL_HCD_HC_GetURBState  0x08068b5d      0xc  Code  Gb  stm32f7xx_hal_hcd.o [1]
HAL_HCD_HC_GetXferCount
                        0x08068b69      0xa  Code  Gb  stm32f7xx_hal_hcd.o [1]
HAL_HCD_HC_Halt         0x0806893f     0x18  Code  Gb  stm32f7xx_hal_hcd.o [1]
HAL_HCD_HC_Init         0x080688f1     0x4e  Code  Gb  stm32f7xx_hal_hcd.o [1]
HAL_HCD_HC_NotifyURBChange_Callback
                        0x08062ab1      0x8  Code  Gb  usbh_conf.o [1]
HAL_HCD_HC_SubmitRequest
                        0x08068957     0xa0  Code  Gb  stm32f7xx_hal_hcd.o [1]
HAL_HCD_IRQHandler      0x080689f7    0x10e  Code  Gb  stm32f7xx_hal_hcd.o [1]
HAL_HCD_Init            0x08068899     0x4e  Code  Gb  stm32f7xx_hal_hcd.o [1]
HAL_HCD_MspInit         0x08062995     0xc6  Code  Gb  usbh_conf.o [1]
HAL_HCD_ResetPort       0x08068b57      0x6  Code  Gb  stm32f7xx_hal_hcd.o [1]
HAL_HCD_SOF_Callback    0x08062a8d      0x8  Code  Gb  usbh_conf.o [1]
HAL_HCD_Start           0x08068b0b     0x20  Code  Gb  stm32f7xx_hal_hcd.o [1]
HAL_HCD_Stop            0x08068b3d     0x1a  Code  Gb  stm32f7xx_hal_hcd.o [1]
HAL_I2C_DeInit          0x0806d6d9     0x28  Code  Gb  stm32f7xx_hal_i2c.o [1]
HAL_I2C_GetState        0x0806d90b      0x6  Code  Gb  stm32f7xx_hal_i2c.o [1]
HAL_I2C_Init            0x0806d63d     0x9c  Code  Gb  stm32f7xx_hal_i2c.o [1]
HAL_I2C_Mem_Read        0x0806d7f1     0xca  Code  Gb  stm32f7xx_hal_i2c.o [1]
HAL_I2C_Mem_Write       0x0806d729     0xc0  Code  Gb  stm32f7xx_hal_i2c.o [1]
HAL_I2C_MspDeInit       0x0806d703      0x2  Code  Wk  stm32f7xx_hal_i2c.o [1]
HAL_I2C_MspInit         0x0806d701      0x2  Code  Wk  stm32f7xx_hal_i2c.o [1]
HAL_IncTick             0x08047649      0xa  Code  Wk  stm32f7xx_hal.o [1]
HAL_Init                0x08047605     0x20  Code  Gb  stm32f7xx_hal.o [1]
HAL_InitTick            0x08047625     0x24  Code  Wk  stm32f7xx_hal.o [1]
HAL_LTDC_ConfigCLUT     0x08046057     0x58  Code  Gb  stm32f7xx_hal_ltdc.o [1]
HAL_LTDC_ConfigColorKeying
                        0x08046017     0x40  Code  Gb  stm32f7xx_hal_ltdc.o [1]
HAL_LTDC_ConfigLayer    0x08045fd3     0x44  Code  Gb  stm32f7xx_hal_ltdc.o [1]
HAL_LTDC_DeInit         0x08045f29     0x18  Code  Gb  stm32f7xx_hal_ltdc.o [1]
HAL_LTDC_DisableColorKeying
                        0x080460d5     0x24  Code  Gb  stm32f7xx_hal_ltdc.o [1]
HAL_LTDC_EnableCLUT     0x08046109     0x26  Code  Gb  stm32f7xx_hal_ltdc.o [1]
HAL_LTDC_EnableColorKeying
                        0x080460af     0x26  Code  Gb  stm32f7xx_hal_ltdc.o [1]
HAL_LTDC_EnableDither   0x0804612f     0x1e  Code  Gb  stm32f7xx_hal_ltdc.o [1]
HAL_LTDC_ErrorCallback  0x08045fd1      0x2  Code  Wk  stm32f7xx_hal_ltdc.o [1]
HAL_LTDC_IRQHandler     0x08045f41     0x82  Code  Gb  stm32f7xx_hal_ltdc.o [1]
HAL_LTDC_Init           0x08045e39     0xf0  Code  Gb  stm32f7xx_hal_ltdc.o [1]
HAL_LTDC_LineEventCallback
                        0x08042cb5     0x5a  Code  Gb  LCDConf.o [1]
HAL_LTDC_MspDeInit      0x08042c9f     0x16  Code  Gb  LCDConf.o [1]
HAL_LTDC_MspInit        0x08042b69    0x120  Code  Gb  LCDConf.o [1]
HAL_LTDC_ProgramLineEvent
                        0x080461ff     0x2e  Code  Gb  stm32f7xx_hal_ltdc.o [1]
HAL_LTDC_SetAddress     0x080461eb     0x14  Code  Gb  stm32f7xx_hal_ltdc.o [1]
HAL_LTDC_SetAlpha       0x080461b1     0x12  Code  Gb  stm32f7xx_hal_ltdc.o [1]
HAL_LTDC_SetWindowPosition
                        0x0804615b     0x28  Code  Gb  stm32f7xx_hal_ltdc.o [1]
HAL_MPU_ConfigRegion    0x08045cbd     0x4a  Code  Gb  stm32f7xx_hal_cortex.o [1]
HAL_MspInit             0x0804770d      0x2  Code  Gb  stm32f7xx_hal_msp_template.o [1]
HAL_NVIC_DisableIRQ     0x08045c83      0xa  Code  Gb  stm32f7xx_hal_cortex.o [1]
HAL_NVIC_EnableIRQ      0x08045c77      0xc  Code  Gb  stm32f7xx_hal_cortex.o [1]
HAL_NVIC_SetPriority    0x08045c3d     0x3a  Code  Gb  stm32f7xx_hal_cortex.o [1]
HAL_NVIC_SetPriorityGrouping
                        0x08045c23     0x1a  Code  Gb  stm32f7xx_hal_cortex.o [1]
HAL_PWREx_EnableOverDrive
                        0x08064f3d     0x4a  Code  Gb  stm32f7xx_hal_pwr_ex.o [1]
HAL_QSPI_Abort          0x0805e34d     0x32  Code  Gb  stm32f7xx_hal_qspi.o [1]
HAL_QSPI_AutoPolling    0x0805e233     0x94  Code  Gb  stm32f7xx_hal_qspi.o [1]
HAL_QSPI_CmdCpltCallback
                        0x0805e341      0x2  Code  Wk  stm32f7xx_hal_qspi.o [1]
HAL_QSPI_Command        0x0805e09b     0x62  Code  Gb  stm32f7xx_hal_qspi.o [1]
HAL_QSPI_DeInit         0x0805df0d     0x32  Code  Gb  stm32f7xx_hal_qspi.o [1]
HAL_QSPI_ErrorCallback  0x0805e33f      0x2  Code  Wk  stm32f7xx_hal_qspi.o [1]
HAL_QSPI_FifoThresholdCallback
                        0x0805e347      0x2  Code  Wk  stm32f7xx_hal_qspi.o [1]
HAL_QSPI_IRQHandler     0x0805df43    0x146  Code  Gb  stm32f7xx_hal_qspi.o [1]
HAL_QSPI_Init           0x0805de71     0x94  Code  Gb  stm32f7xx_hal_qspi.o [1]
HAL_QSPI_MemoryMapped   0x0805e2cf     0x70  Code  Gb  stm32f7xx_hal_qspi.o [1]
HAL_QSPI_MspDeInit      0x0805df41      0x2  Code  Wk  stm32f7xx_hal_qspi.o [1]
HAL_QSPI_MspInit        0x0805df3f      0x2  Code  Wk  stm32f7xx_hal_qspi.o [1]
HAL_QSPI_Receive        0x0805e18d     0x88  Code  Gb  stm32f7xx_hal_qspi.o [1]
HAL_QSPI_RxCpltCallback
                        0x0805e343      0x2  Code  Wk  stm32f7xx_hal_qspi.o [1]
HAL_QSPI_StatusMatchCallback
                        0x0805e349      0x2  Code  Wk  stm32f7xx_hal_qspi.o [1]
HAL_QSPI_TimeOutCallback
                        0x0805e34b      0x2  Code  Wk  stm32f7xx_hal_qspi.o [1]
HAL_QSPI_Transmit       0x0805e105     0x88  Code  Gb  stm32f7xx_hal_qspi.o [1]
HAL_QSPI_TxCpltCallback
                        0x0805e345      0x2  Code  Wk  stm32f7xx_hal_qspi.o [1]
HAL_RCCEx_GetPeriphCLKConfig
                        0x080456ed    0x11a  Code  Gb  stm32f7xx_hal_rcc_ex.o [1]
HAL_RCCEx_GetPeriphCLKFreq
                        0x08045807     0x98  Code  Gb  stm32f7xx_hal_rcc_ex.o [1]
HAL_RCCEx_PeriphCLKConfig
                        0x08045299    0x42c  Code  Gb  stm32f7xx_hal_rcc_ex.o [1]
HAL_RCC_ClockConfig     0x08047a27    0x142  Code  Gb  stm32f7xx_hal_rcc.o [1]
HAL_RCC_GetHCLKFreq     0x08047be9     0x1e  Code  Gb  stm32f7xx_hal_rcc.o [1]
HAL_RCC_GetSysClockFreq
                        0x08047ba3     0x46  Code  Gb  stm32f7xx_hal_rcc.o [1]
HAL_RCC_OscConfig       0x08047711    0x2f8  Code  Gb  stm32f7xx_hal_rcc.o [1]
HAL_RNG_GenerateRandomNumber
                        0x0806a4d3     0x58  Code  Gb  stm32f7xx_hal_rng.o [1]
HAL_RNG_GetRandomNumber
                        0x0806a52b     0x14  Code  Gb  stm32f7xx_hal_rng.o [1]
HAL_RNG_Init            0x0806a495     0x3c  Code  Gb  stm32f7xx_hal_rng.o [1]
HAL_RNG_MspInit         0x0806a4d1      0x2  Code  Wk  stm32f7xx_hal_rng.o [1]
HAL_RTCEx_BKUPRead      0x0805ba33      0xa  Code  Gb  stm32f7xx_hal_rtc_ex.o [1]
HAL_RTCEx_BKUPWrite     0x0805ba29      0xa  Code  Gb  stm32f7xx_hal_rtc_ex.o [1]
HAL_RTC_Init            0x0805b955     0x82  Code  Gb  stm32f7xx_hal_rtc.o [1]
HAL_RTC_MspInit         0x08053d13     0x3c  Code  Gb  k_rtc.o [1]
HAL_SAI_DMAPause        0x0805ecab     0x1e  Code  Gb  stm32f7xx_hal_sai.o [1]
HAL_SAI_DMAResume       0x0805ecc9     0x2a  Code  Gb  stm32f7xx_hal_sai.o [1]
HAL_SAI_DMAStop         0x0805ecfd     0x3c  Code  Gb  stm32f7xx_hal_sai.o [1]
HAL_SAI_DeInit          0x0805ec67     0x2a  Code  Gb  stm32f7xx_hal_sai.o [1]
HAL_SAI_ErrorCallback   0x0805756b     0x40  Code  Gb  stm32746g_discovery_audio.o [1]
HAL_SAI_GetState        0x0805ee3f      0x6  Code  Gb  stm32f7xx_hal_sai.o [1]
HAL_SAI_Init            0x0805eb55    0x112  Code  Gb  stm32f7xx_hal_sai.o [1]
HAL_SAI_MspDeInit       0x0805ec93      0x2  Code  Wk  stm32f7xx_hal_sai.o [1]
HAL_SAI_MspInit         0x0805ec91      0x2  Code  Wk  stm32f7xx_hal_sai.o [1]
HAL_SAI_Receive_DMA     0x0805edbb     0x4e  Code  Gb  stm32f7xx_hal_sai.o [1]
HAL_SAI_RxCpltCallback  0x08057805      0x8  Code  Gb  stm32746g_discovery_audio.o [1]
HAL_SAI_RxHalfCpltCallback
                        0x0805780d      0x8  Code  Gb  stm32746g_discovery_audio.o [1]
HAL_SAI_Transmit_DMA    0x0805ed63     0x4c  Code  Gb  stm32f7xx_hal_sai.o [1]
HAL_SAI_TxCpltCallback  0x0805755b      0x8  Code  Gb  stm32746g_discovery_audio.o [1]
HAL_SAI_TxHalfCpltCallback
                        0x08057563      0x8  Code  Gb  stm32746g_discovery_audio.o [1]
HAL_SDRAM_Init          0x0806b14d     0x3a  Code  Gb  stm32f7xx_hal_sdram.o [1]
HAL_SDRAM_MspInit       0x0806b187      0x2  Code  Wk  stm32f7xx_hal_sdram.o [1]
HAL_SDRAM_ProgramRefreshRate
                        0x0806b1b1     0x16  Code  Gb  stm32f7xx_hal_sdram.o [1]
HAL_SDRAM_SendCommand   0x0806b189     0x28  Code  Gb  stm32f7xx_hal_sdram.o [1]
HAL_SYSTICK_Config      0x08045c95     0x28  Code  Gb  stm32f7xx_hal_cortex.o [1]
HCD_HC_IN_IRQHandler    0x08068b7f    0x17c  Code  Lc  stm32f7xx_hal_hcd.o [1]
HCD_HC_OUT_IRQHandler   0x08068d1d    0x14c  Code  Lc  stm32f7xx_hal_hcd.o [1]
HCD_Port_IRQHandler     0x08068ee9     0xb2  Code  Lc  stm32f7xx_hal_hcd.o [1]
HCD_RXQLVL_IRQHandler   0x08068e7b     0x66  Code  Lc  stm32f7xx_hal_hcd.o [1]
HEADER_AddItem          0x0805a973     0xbe  Code  Gb  HEADER.o [4]
HEADER_Callback         0x0805a54d    0x286  Code  Gb  HEADER.o [4]
HEADER_CreateEx         0x0805a7d3     0xe2  Code  Gb  HEADER.o [4]
HEADER_DrawSkinFlex     0x080907e1    0x120  Code  Gb  HEADER_SkinFlex.o [4]
HEADER_GetHeight        0x0805aac1     0x36  Code  Gb  HEADER.o [4]
HEADER_GetItemWidth     0x0805aaf7     0x46  Code  Gb  HEADER.o [4]
HEADER_GetNumItems      0x0805ab3d     0x2e  Code  Gb  HEADER.o [4]
HEADER_GetSel           0x0805b27b     0x28  Code  Gb  HEADER_GetSel.o [4]
HEADER_STSkin           0x0806a1e0      0xc  Data  Gb  STHEADER_Skin.o [3]
HEADER_SetDefaultBkColor
                        0x08069e8d      0xa  Code  Gb  HEADER_Default.o [4]
HEADER_SetDefaultFont   0x08069ea1      0xa  Code  Gb  HEADER_Default.o [4]
HEADER_SetDefaultSTSkin
                        0x0806a1c5      0xa  Code  Gb  STHEADER_Skin.o [3]
HEADER_SetDefaultTextColor
                        0x08069e97      0xa  Code  Gb  HEADER_Default.o [4]
HEADER_SetDirIndicator  0x0805ab6b     0x42  Code  Gb  HEADER.o [4]
HEADER_SetHeight        0x0805a8b5     0x32  Code  Gb  HEADER.o [4]
HEADER_SetItemWidth     0x0805aa49     0x78  Code  Gb  HEADER.o [4]
HEADER_SetScrollPos     0x0805a931     0x42  Code  Gb  HEADER.o [4]
HEADER_SetTextAlign     0x0805a8e7     0x4a  Code  Gb  HEADER.o [4]
HEADER__DefaultBorderH  0x20013ec0      0x4  Data  Gb  HEADER.o [4]
HEADER__DefaultBorderV  0x20013c68      0x4  Data  Gb  HEADER.o [4]
HEADER__DefaultProps    0x20013c54     0x14  Data  Gb  HEADER.o [4]
HEADER__Skin            0x20013e58      0xc  Data  Gb  HEADER_Skin.o [4]
HEADER__pDefaultCursor  0x20013e8c      0x4  Data  Gb  HEADER.o [4]
HEADER__pSkinDefault    0x20013c6c      0x4  Data  Gb  HEADER.o [4]
HEAP$$Base              0x200402d8            --   Gb  - Linker created -
HEAP$$Limit             0x200422d8            --   Gb  - Linker created -
HOME_hWin               0x2003ffb0      0x4  Data  Lc  home_alarm_win.o [1]
HardFault_Handler       0x08092ea7      0x2  Code  Gb  stm32f7xx_it.o [1]
HomeSettings            0x2003ffb4      0x4  Data  Lc  home_alarm_win.o [1]
I2C_IsAcknowledgeFailed
                        0x0806dacd     0x72  Code  Lc  stm32f7xx_hal_i2c.o [1]
I2C_RequestMemoryRead   0x0806d95d     0x40  Code  Lc  stm32f7xx_hal_i2c.o [1]
I2C_RequestMemoryWrite  0x0806d91b     0x42  Code  Lc  stm32f7xx_hal_i2c.o [1]
I2C_TransferConfig      0x0806db51     0x1e  Code  Lc  stm32f7xx_hal_i2c.o [1]
I2C_WaitOnFlagUntilTimeout
                        0x0806d9d5     0x5a  Code  Lc  stm32f7xx_hal_i2c.o [1]
I2C_WaitOnSTOPFlagUntilTimeout
                        0x0806da77     0x30  Code  Lc  stm32f7xx_hal_i2c.o [1]
I2C_WaitOnTXISFlagUntilTimeout
                        0x0806da41     0x36  Code  Lc  stm32f7xx_hal_i2c.o [1]
I2Cx_Error              0x0806d3a9     0x10  Code  Lc  stm32746g_discovery.o [1]
I2Cx_Init               0x0806d327     0x3e  Code  Lc  stm32746g_discovery.o [1]
I2Cx_MspInit            0x0806d221     0xf6  Code  Lc  stm32746g_discovery.o [1]
I2Cx_ReadMultiple       0x0806d365     0x10  Code  Lc  stm32746g_discovery.o [1]
I2Cx_WriteMultiple      0x0806d375      0xe  Code  Lc  stm32746g_discovery.o [1]
I2cAddress              0x2003fd0d      0x1  Data  Lc  stm32746g_discovery_ts.o [1]
ICONVIEW__DefaultProps_ST
                        0x20013884     0x40  Data  Gb  ST_AnimatedIconView.o [3]
IMAGE_Callback          0x0806c7fd    0x202  Code  Gb  IMAGE.o [4]
IMAGE_CreateEx          0x0806caad     0xac  Code  Gb  IMAGE.o [4]
IMAGE_CreateIndirect    0x0806cb79     0x38  Code  Gb  IMAGE.o [4]
IMAGE_CreateUser        0x0806c9ff     0xae  Code  Gb  IMAGE.o [4]
IMAGE_SetBitmap         0x0806a587     0x4a  Code  Gb  IMAGE_Bitmap.o [4]
IMAGE_SetGIF            0x0806a409     0x80  Code  Gb  IMAGE_GIF.o [4]
IMAGE__DefaultProps     0x200400a0      0x4  Data  Gb  IMAGE.o [4]
IMAGE__FreeAttached     0x0806c795     0x38  Code  Gb  IMAGE.o [4]
IMAGE__SetWindowSize    0x0806c7cd     0x30  Code  Gb  IMAGE.o [4]
InStream_Read           0x0809150d     0x22  Code  Lc  lz77_init.o [9]
LCD_AA_MixColors16      0x0805ea6f     0x2e  Code  Gb  LCD_AA.o [4]
LCD_AA_SetAndMask       0x0805ea65      0xa  Code  Gb  LCD_AA.o [4]
LCD_API_ColorConv_0     0x08093414     0x18  Data  Gb  GUICC_0.o [4]
LCD_API_ColorConv_8888  0x080933fc     0x18  Data  Gb  GUICC_8888.o [4]
LCD_API_ColorConv_M1555I
                        0x080933cc     0x18  Data  Gb  GUICC_M1555I.o [4]
LCD_API_ColorConv_M8888I
                        0x080933e4     0x18  Data  Gb  GUICC_M8888I.o [4]
LCD_Color2Index         0x080414af     0x12  Code  Gb  LCD.o [4]
LCD_Color2Index_8666    0x0806fa9d     0x5a  Code  Gb  GUICC_8666.o [4]
LCD_DrawBitmap          0x08041159    0x248  Code  Gb  LCD.o [4]
LCD_DrawHLine           0x08040e53     0x4a  Code  Gb  LCD.o [4]
LCD_DrawPixel           0x08040df5     0x5e  Code  Gb  LCD.o [4]
LCD_DrawVLine           0x08040e9d     0x4a  Code  Gb  LCD.o [4]
LCD_FillRect            0x08040ee7     0x58  Code  Gb  LCD.o [4]
LCD_GetBitsPerPixelEx   0x08040b6b     0x1c  Code  Gb  LCD_GetEx.o [4]
LCD_GetBkColorIndex     0x0803ece1      0xa  Code  Gb  LCD_GetColorIndex.o [4]
LCD_GetColorIndex       0x0803eceb      0xa  Code  Gb  LCD_GetColorIndex.o [4]
LCD_GetMirrorXEx        0x08040ba3     0x1c  Code  Gb  LCD_GetEx.o [4]
LCD_GetMirrorYEx        0x08040bbf     0x1c  Code  Gb  LCD_GetEx.o [4]
LCD_GetNextPixelAPI     0x080912c3     0x28  Code  Gb  LCD_NextPixelAPI.o [4]
LCD_GetNumColors        0x08040c3b      0xa  Code  Gb  LCD_GetEx.o [4]
LCD_GetNumColorsEx      0x08040b87     0x1c  Code  Gb  LCD_GetEx.o [4]
LCD_GetNumLayers        0x08044511     0x1c  Code  Gb  LCD_GetNumDisplays.o [4]
LCD_GetPalette          0x08040c53     0x22  Code  Gb  LCD_GetEx.o [4]
LCD_GetPixelColor       0x08064ed1     0x12  Code  Gb  LCD_GetPixelColor.o [4]
LCD_GetPixelIndex       0x0806933d     0x58  Code  Gb  LCD_GetP.o [4]
LCD_GetPosEx            0x08044211     0x32  Code  Gb  LCD_Set.o [4]
LCD_GetSwapXYEx         0x08040bdb     0x1c  Code  Gb  LCD_GetEx.o [4]
LCD_GetVXSizeEx         0x08040b33     0x1c  Code  Gb  LCD_GetEx.o [4]
LCD_GetVXSizeMax        0x08040c99     0x28  Code  Gb  LCD_GetEx.o [4]
LCD_GetVYSizeEx         0x08040b4f     0x1c  Code  Gb  LCD_GetEx.o [4]
LCD_GetXSize            0x08040bf7     0x22  Code  Gb  LCD_GetEx.o [4]
LCD_GetXSizeEx          0x08040afb     0x1c  Code  Gb  LCD_GetEx.o [4]
LCD_GetYSize            0x08040c19     0x22  Code  Gb  LCD_GetEx.o [4]
LCD_GetYSizeEx          0x08040b17     0x1c  Code  Gb  LCD_GetEx.o [4]
LCD_GetpPalConvTable    0x08042951     0x4c  Code  Gb  LCD_Color.o [4]
LCD_GetpPalConvTableBM  0x0804299d     0x4c  Code  Gb  LCD_Color.o [4]
LCD_GetpPalConvTableUncached
                        0x08042905     0x4a  Code  Gb  LCD_Color.o [4]
LCD_Index2Color         0x080414c1     0x12  Code  Gb  LCD.o [4]
LCD_Index2Color_8666    0x0806faf7     0x56  Code  Gb  GUICC_8666.o [4]
LCD_Index2Color_888     0x0803ecdf      0x2  Code  Gb  GUICC_888_Index2Color.o [4]
LCD_Index2Color_8888    0x080416d3      0x2  Code  Gb  GUICC_8888_Index2Color.o [4]
LCD_InitColors          0x080428dd     0x28  Code  Gb  LCD_Color.o [4]
LCD_InitLUT             0x080429e9     0x78  Code  Gb  LCD_Color.o [4]
LCD_LL_CopyBuffer       0x080430a1     0x36  Code  Lc  LCDConf.o [1]
LCD_LL_CopyRect         0x080430d9     0x58  Code  Lc  LCDConf.o [1]
LCD_LL_DrawBitmap32bpp  0x080431b9     0x56  Code  Lc  LCDConf.o [1]
LCD_LL_FillRect         0x08043131     0x7a  Code  Lc  LCDConf.o [1]
LCD_ReadRectEx          0x0806cbb1    0x190  Code  Lc  LCD_ReadRect.o [4]
LCD_ReadRectNoClip      0x0806cda5     0x4e  Code  Gb  LCD_ReadRect.o [4]
LCD_SelectLCD           0x08046351     0x44  Code  Gb  LCD_SelectLCD.o [4]
LCD_SetBkColor          0x080414f7      0x8  Code  Gb  LCD.o [4]
LCD_SetBkColorIndex     0x080414e5     0x12  Code  Gb  LCD.o [4]
LCD_SetClipRectEx       0x0804195d     0x34  Code  Gb  LCD_SetClipRectEx.o [4]
LCD_SetClipRectMax      0x080413a1     0x14  Code  Gb  LCD.o [4]
LCD_SetColor            0x080414ff      0x8  Code  Gb  LCD.o [4]
LCD_SetColorIndex       0x080414d3     0x12  Code  Gb  LCD.o [4]
LCD_SetDevFunc          0x08044243     0x32  Code  Gb  LCD_Set.o [4]
LCD_SetDrawMode         0x08040deb      0xa  Code  Gb  LCD.o [4]
LCD_SetLUTEntryEx       0x080441df     0x32  Code  Gb  LCD_Set.o [4]
LCD_SetPixelAA4_Trans   0x0805ea9d     0xa6  Code  Gb  LCD_AA.o [4]
LCD_SetPixelIndex       0x0803ec21     0x48  Code  Gb  GUI_SetPixelIndex.o [4]
LCD_SetPosEx            0x080441ad     0x32  Code  Gb  LCD_Set.o [4]
LCD_SetSizeEx           0x0804414d     0x32  Code  Gb  LCD_Set.o [4]
LCD_SetVRAMAddrEx       0x080440ed     0x2e  Code  Gb  LCD_Set.o [4]
LCD_SetVSizeEx          0x0804411b     0x32  Code  Gb  LCD_Set.o [4]
LCD_SetVisEx            0x0804417f     0x2e  Code  Gb  LCD_Set.o [4]
LCD_UpdateColorIndices  0x08043541     0x24  Code  Gb  LCD_UpdateColorIndices.o [4]
LCD_X_Config            0x08042d0f    0x196  Code  Gb  LCDConf.o [1]
LCD_X_DisplayDriver     0x08042eb9    0x16a  Code  Gb  LCDConf.o [1]
LCD__DrawBitmap_1bpp    0x08040f41    0x218  Code  Gb  LCD.o [4]
LCD__GetBPP             0x08040cc1     0x72  Code  Gb  LCD_GetEx.o [4]
LCD__GetBPPDevice       0x08040d33     0x32  Code  Gb  LCD_GetEx.o [4]
LCD__aConvTable         0x20013e1c      0x4  Data  Gb  LCD_Color.o [4]
LCD__pSetColorAPI       0x20013ebc      0x4  Data  Gb  LCD.o [4]
LCD_aMirror             0x08092770    0x100  Data  Gb  LCD_Mirror.o [4]
LISTBOX_AddString       0x08064623     0xb4  Code  Gb  LISTBOX.o [4]
LISTBOX_AddStringH      0x080648ab     0xba  Code  Gb  LISTBOX_AddStringH.o [4]
LISTBOX_Callback        0x0806412b    0x2cc  Code  Gb  LISTBOX.o [4]
LISTBOX_CreateAsChild   0x080647ed     0x26  Code  Gb  LISTBOX_Create.o [4]
LISTBOX_CreateEx        0x080643f7    0x130  Code  Gb  LISTBOX.o [4]
LISTBOX_DefaultProps    0x20013938     0x38  Data  Gb  LISTBOX.o [4]
LISTBOX_DeleteItem      0x08064b77     0x98  Code  Gb  LISTBOX_DeleteItem.o [4]
LISTBOX_GetSel          0x080647b1     0x2c  Code  Gb  LISTBOX.o [4]
LISTBOX_InsertString    0x08064ccf     0x9a  Code  Gb  LISTBOX_InsertString.o [4]
LISTBOX_InvalidateItem  0x0806453d     0xe6  Code  Gb  LISTBOX.o [4]
LISTBOX_OwnerDraw       0x08063ebf    0x26c  Code  Gb  LISTBOX.o [4]
LISTBOX_SetAutoScrollV  0x08064853     0x58  Code  Gb  LISTBOX_SetAutoScroll.o [4]
LISTBOX_SetBkColor      0x08064965     0x36  Code  Gb  LISTBOX_SetBkColor.o [4]
LISTBOX_SetFont         0x08064ab7     0x38  Code  Gb  LISTBOX_Font.o [4]
LISTBOX_SetItemDisabled
                        0x08064a1d     0x68  Code  Gb  LISTBOX_ItemDisabled.o [4]
LISTBOX_SetItemSpacing  0x08064a85     0x32  Code  Gb  LISTBOX_ItemSpacing.o [4]
LISTBOX_SetOwner        0x08064b1d     0x2e  Code  Gb  LISTBOX_SetOwner.o [4]
LISTBOX_SetScrollbarColor
                        0x080649d9     0x44  Code  Gb  LISTBOX_SetScrollbarColor.o [4]
LISTBOX_SetScrollbarWidth
                        0x08064813     0x40  Code  Gb  LISTBOX_SetScrollbarWidth.o [4]
LISTBOX_SetSel          0x080646d7     0xda  Code  Gb  LISTBOX.o [4]
LISTBOX_SetTextAlign    0x08064aef     0x2e  Code  Gb  LISTBOX_SetTextAlign.o [4]
LISTBOX_SetTextColor    0x0806499b     0x3e  Code  Gb  LISTBOX_SetTextColor.o [4]
LISTBOX_UpdateScrollers
                        0x08063747    0x118  Code  Gb  LISTBOX.o [4]
LISTBOX__AddSize        0x08063e7f     0x40  Code  Gb  LISTBOX.o [4]
LISTBOX__GetNumItems    0x08063cfb      0x6  Code  Gb  LISTBOX.o [4]
LISTBOX__InvalidateInsideArea
                        0x08063d23     0x18  Code  Gb  LISTBOX.o [4]
LISTBOX__InvalidateItem
                        0x08063d3b     0x5e  Code  Gb  LISTBOX.o [4]
LISTBOX__InvalidateItemAndBelow
                        0x08063d99     0x30  Code  Gb  LISTBOX.o [4]
LISTBOX__InvalidateItemSize
                        0x08063d01     0x22  Code  Gb  LISTBOX.o [4]
LISTBOX__SetScrollbarColor
                        0x08063e01     0x7e  Code  Gb  LISTBOX.o [4]
LISTBOX__SetScrollbarWidth
                        0x08063dc9     0x38  Code  Gb  LISTBOX.o [4]
LISTVIEW_AddColumn      0x08053039     0xd8  Code  Gb  LISTVIEW.o [4]
LISTVIEW_AddRow         0x08053111    0x148  Code  Gb  LISTVIEW.o [4]
LISTVIEW_Callback       0x08052b5d    0x2e2  Code  Gb  LISTVIEW.o [4]
LISTVIEW_CompareText    0x0805cf69      0xa  Code  Gb  LISTVIEW_SetSort.o [4]
LISTVIEW_CreateEx       0x08052f35     0xf4  Code  Gb  LISTVIEW.o [4]
LISTVIEW_CreateIndirect
                        0x080930f1     0x38  Code  Gb  LISTVIEW_CreateIndirect.o [4]
LISTVIEW_CreateUser     0x08052e3f     0xf6  Code  Gb  LISTVIEW.o [4]
LISTVIEW_DefaultProps   0x20013a0c     0x30  Data  Gb  LISTVIEW.o [4]
LISTVIEW_DeleteAllRows  0x0805bf4d     0x20  Code  Gb  LISTVIEW_DeleteAllRows.o [4]
LISTVIEW_DeleteRow      0x0805383f     0xea  Code  Gb  LISTVIEW_DeleteRow.o [4]
LISTVIEW_EnableSort     0x0805cfeb     0x2e  Code  Gb  LISTVIEW_SetSort.o [4]
LISTVIEW_GetHeader      0x0805b80f     0x28  Code  Gb  LISTVIEW_GetHeader.o [4]
LISTVIEW_GetItemText    0x0805d0b1     0x86  Code  Gb  LISTVIEW_GetItemText.o [4]
LISTVIEW_GetLBorder     0x0805ac93     0x2a  Code  Gb  LISTVIEW_SetLBorder.o [4]
LISTVIEW_GetNumColumns  0x0805a171     0x2e  Code  Gb  LISTVIEW_GetNumColumns.o [4]
LISTVIEW_GetNumRows     0x080537bf     0x2e  Code  Gb  LISTVIEW_GetNumRows.o [4]
LISTVIEW_GetRBorder     0x0805acf5     0x2a  Code  Gb  LISTVIEW_SetRBorder.o [4]
LISTVIEW_GetSel         0x0805437d     0x2a  Code  Gb  LISTVIEW_GetSel.o [4]
LISTVIEW_GetSelUnsorted
                        0x0805cf73     0x34  Code  Gb  LISTVIEW_SetSort.o [4]
LISTVIEW_GetUserDataRow
                        0x0805bff1     0x44  Code  Gb  LISTVIEW_UserData.o [4]
LISTVIEW_GetWrapMode    0x0805ac69     0x2a  Code  Gb  LISTVIEW_GetWrapMode.o [4]
LISTVIEW_OwnerDraw      0x08052a63     0xf8  Code  Gb  LISTVIEW.o [4]
LISTVIEW_RowIsDisabled  0x0805a14f     0x1c  Code  Gb  LISTVIEW_DisableRow.o [4]
LISTVIEW_SetAutoScrollH
                        0x080540bd     0x48  Code  Gb  LISTVIEW_SetAutoScroll.o [4]
LISTVIEW_SetAutoScrollV
                        0x08054105     0x48  Code  Gb  LISTVIEW_SetAutoScroll.o [4]
LISTVIEW_SetBkColor     0x0805414d     0x3c  Code  Gb  LISTVIEW_SetBkColor.o [4]
LISTVIEW_SetColumnWidth
                        0x0805dcbd     0x32  Code  Gb  LISTVIEW_SetColumnWidth.o [4]
LISTVIEW_SetCompareFunc
                        0x0805cfa7     0x44  Code  Gb  LISTVIEW_SetSort.o [4]
LISTVIEW_SetDefaultBkColor
                        0x08069bd1     0x14  Code  Gb  LISTVIEW_Default.o [4]
LISTVIEW_SetDefaultGridColor
                        0x08069be5      0xa  Code  Gb  LISTVIEW_Default.o [4]
LISTVIEW_SetFont        0x080541c5     0x3a  Code  Gb  LISTVIEW_SetFont.o [4]
LISTVIEW_SetGridVis     0x0805407d     0x40  Code  Gb  LISTVIEW_SetGridVis.o [4]
LISTVIEW_SetHeaderHeight
                        0x08053259     0x30  Code  Gb  LISTVIEW.o [4]
LISTVIEW_SetItemText    0x08053929     0xa2  Code  Gb  LISTVIEW_SetItemText.o [4]
LISTVIEW_SetItemTextColor
                        0x08053395     0xbe  Code  Gb  LISTVIEW_SetItemColor.o [4]
LISTVIEW_SetLBorder     0x0805acbd     0x38  Code  Gb  LISTVIEW_SetLBorder.o [4]
LISTVIEW_SetRowHeight   0x080541ff     0x48  Code  Gb  LISTVIEW_SetRowHeight.o [4]
LISTVIEW_SetSel         0x08053453     0x24  Code  Gb  LISTVIEW_SetSel.o [4]
LISTVIEW_SetSort        0x0805d019     0x98  Code  Gb  LISTVIEW_SetSort.o [4]
LISTVIEW_SetTextAlign   0x080738ad     0x50  Code  Gb  LISTVIEW_SetTextAlign.o [4]
LISTVIEW_SetTextColor   0x08054189     0x3c  Code  Gb  LISTVIEW_SetTextColor.o [4]
LISTVIEW_SetUserDataRow
                        0x0805bfaf     0x42  Code  Gb  LISTVIEW_UserData.o [4]
LISTVIEW__CreateCellInfoLocked
                        0x080532a1     0x8a  Code  Gb  LISTVIEW_SetItemColor.o [4]
LISTVIEW__GetNumColumns
                        0x0805a16b      0x6  Code  Gb  LISTVIEW_GetNumColumns.o [4]
LISTVIEW__GetNumRows    0x080537b9      0x6  Code  Gb  LISTVIEW_GetNumRows.o [4]
LISTVIEW__GetRowDistY   0x0805281f     0x18  Code  Gb  LISTVIEW.o [4]
LISTVIEW__GetpCellInfo  0x0805332b     0x6a  Code  Gb  LISTVIEW_SetItemColor.o [4]
LISTVIEW__GetpRow       0x080527a5     0x7a  Code  Gb  LISTVIEW.o [4]
LISTVIEW__InvalidateInsideArea
                        0x08052837     0x38  Code  Gb  LISTVIEW.o [4]
LISTVIEW__InvalidateRow
                        0x0805286f     0x70  Code  Gb  LISTVIEW.o [4]
LISTVIEW__InvalidateRowAndBelow
                        0x080537ed     0x52  Code  Gb  LISTVIEW_DeleteRow.o [4]
LISTVIEW__SetSel        0x080528df     0xa0  Code  Gb  LISTVIEW.o [4]
LISTVIEW__UpdateScrollParas
                        0x0805297f     0xe4  Code  Gb  LISTVIEW.o [4]
LOUDNESS_SPCORP_Symbol_000
                        0x080581bd     0xb2  Code  Gb  filter.o [7]
LOUDNESS_SPCORP_Symbol_001
                        0x0808d3b0     0x1a  Data  Gb  filter.o [7]
LOUDNESS_SPCORP_Symbol_002
                        0x0808d3e0    0x492  Data  Gb  filter.o [7]
LOUDNESS_SPCORP_Symbol_003
                        0x0808d3cc     0x14  Data  Gb  filter.o [7]
LOUDNESS_SPCORP_Symbol_004
                        0x0805826f     0x5a  Code  Gb  filter.o [7]
LOUDNESS_SPCORP_Symbol_005
                        0x080585b3    0x24c  Code  Gb  filter.o [7]
LOUDNESS_SPCORP_Symbol_006
                        0x080582dd      0x8  Code  Gb  filter.o [7]
LOUDNESS_SPCORP_Symbol_007
                        0x0805833b     0x54  Code  Gb  filter.o [7]
LOUDNESS_SPCORP_Symbol_008
                        0x0805830f     0x2c  Code  Gb  filter.o [7]
LOUDNESS_SPCORP_Symbol_009
                        0x080582c9     0x14  Code  Gb  filter.o [7]
LTDC_IRQHandler         0x08092ecf      0x6  Code  Gb  stm32f7xx_it.o [1]
LTDC_SetConfig          0x0804622d     0xfa  Code  Lc  stm32f7xx_hal_ltdc.o [1]
LfnOfs                  0x08050890     0x10  Data  Lc  ff.o [1]
LoadInt                 0x08058fa5     0x6e  Code  Lc  xprintffull.o [5]
LostFrames              0x20012448      0x4  Data  Lc  video_player_win.o [1]
MemManage_Handler       0x08092ea9      0x2  Code  Gb  stm32f7xx_it.o [1]
NMI_Handler             0x08092ea5      0x2  Code  Gb  stm32f7xx_it.o [1]
NVIC_SetPriority        0x08045c09     0x1a  Code  Lc  stm32f7xx_hal_cortex.o [1]
Netif_Config            0x080747c9     0x4c  Code  Lc  vnc_app.o [1]
OTG_HS_IRQHandler       0x08092ec9      0x6  Code  Gb  stm32f7xx_it.o [1]
OutStream_Write         0x0809152f     0x40  Code  Lc  lz77_init.o [9]
PendSV_Handler          0x08047661           Code  Gb  portasm.o [1]
PlayerSettings          0x20012970      0x4  Data  Lc  audio_player_win.o [1]
PrevFrameIndex          0x20012444      0x4  Data  Lc  video_player_win.o [1]
QSPIHandle              0x2003fb38     0x44  Data  Gb  stm32746g_discovery_qspi.o [1]
QSPI_AutoPollingMemReady
                        0x080557ef     0x4e  Code  Lc  stm32746g_discovery_qspi.o [1]
QSPI_Config             0x0805e3e5     0xf2  Code  Lc  stm32f7xx_hal_qspi.o [1]
QSPI_WaitFlagStateUntilTimeout
                        0x0805e39b     0x4a  Code  Lc  stm32f7xx_hal_qspi.o [1]
QSPI_WriteEnable        0x0805577f     0x64  Code  Lc  stm32746g_discovery_qspi.o [1]
QUADSPI_IRQHandler      0x08092eed      0x6  Code  Gb  stm32f7xx_it.o [1]
RTC_EnterInitMode       0x0805b9f5     0x34  Code  Gb  stm32f7xx_hal_rtc.o [1]
RecorderMode            0x2003eeb4      0x1  Data  Lc  audio_recorder_win.o [1]
Region$$Table$$Base     0x08093260            --   Gb  - Linker created -
Region$$Table$$Limit    0x0809329c            --   Gb  - Linker created -
RtcHandle               0x2003fe44     0x20  Data  Gb  k_rtc.o [1]
Rx_Buff                 0x2000e200   0x1dc4  Data  Gb  ethernetif.o [1]
SAI_BlockSynchroConfig  0x08064ee5     0x2e  Code  Gb  stm32f7xx_hal_sai_ex.o [1]
SAI_DMAError            0x0805ef65     0x1e  Code  Lc  stm32f7xx_hal_sai.o [1]
SAI_DMARxCplt           0x0805ef19     0x2e  Code  Lc  stm32f7xx_hal_sai.o [1]
SAI_DMARxHalfCplt       0x0805ef59      0xa  Code  Lc  stm32f7xx_hal_sai.o [1]
SAI_DMATxCplt           0x0805eea9     0x58  Code  Lc  stm32f7xx_hal_sai.o [1]
SAI_DMATxHalfCplt       0x0805ef0d      0xa  Code  Lc  stm32f7xx_hal_sai.o [1]
SAI_Disable             0x0805ee6b     0x3c  Code  Lc  stm32f7xx_hal_sai.o [1]
SAI_GetInputClock       0x08064f13     0x18  Code  Gb  stm32f7xx_hal_sai_ex.o [1]
SAI_InterruptFlag       0x0805ee51     0x1a  Code  Lc  stm32f7xx_hal_sai.o [1]
SAIx_In_DeInit          0x08057a79     0x10  Code  Lc  stm32746g_discovery_audio.o [1]
SAIx_In_Init            0x08057959     0xd4  Code  Lc  stm32746g_discovery_audio.o [1]
SAIx_Out_DeInit         0x08057703      0xa  Code  Lc  stm32746g_discovery_audio.o [1]
SCROLLBAR_Callback      0x080684cf    0x24a  Code  Gb  SCROLLBAR.o [4]
SCROLLBAR_CreateAttached
                        0x080627ed     0x36  Code  Gb  SCROLLBAR_Create.o [4]
SCROLLBAR_CreateEx      0x08068819     0x20  Code  Gb  SCROLLBAR.o [4]
SCROLLBAR_CreateUser    0x08068719     0xf6  Code  Gb  SCROLLBAR.o [4]
SCROLLBAR_DrawSkinFlex  0x0808f3d1    0x18e  Code  Gb  SCROLLBAR_SkinFlex.o [4]
SCROLLBAR_GetDefaultWidth
                        0x0805dc8d      0x8  Code  Gb  SCROLLBAR_Defaults.o [4]
SCROLLBAR_STSkin        0x08069e80      0xc  Data  Gb  STSCROLLBAR_Skin.o [3]
SCROLLBAR_SetColor      0x0806909f     0x40  Code  Gb  SCROLLBAR_SetColor.o [4]
SCROLLBAR_SetDefaultColor
                        0x0805dca1     0x14  Code  Gb  SCROLLBAR_Defaults.o [4]
SCROLLBAR_SetDefaultSTSkin
                        0x08069e67      0xa  Code  Gb  STSCROLLBAR_Skin.o [3]
SCROLLBAR_SetDefaultWidth
                        0x0805dc95      0xc  Code  Gb  SCROLLBAR_Defaults.o [4]
SCROLLBAR_SetValue      0x08068839     0x5e  Code  Gb  SCROLLBAR.o [4]
SCROLLBAR_SetWidth      0x08069079     0x26  Code  Gb  SCROLLBAR_SetWidth.o [4]
SCROLLBAR__DefaultProps
                        0x20013d1c     0x10  Data  Gb  SCROLLBAR.o [4]
SCROLLBAR__DefaultWidth
                        0x20013d2c      0x2  Data  Gb  SCROLLBAR.o [4]
SCROLLBAR__InvalidatePartner
                        0x080684b3     0x1c  Code  Gb  SCROLLBAR.o [4]
SCROLLBAR__Rect2VRect   0x0806847b     0x38  Code  Gb  SCROLLBAR.o [4]
SCROLLBAR__Skin         0x20013e64      0xc  Data  Gb  SCROLLBAR_Skin.o [4]
SCROLLBAR__ThumbSizeMin
                        0x20013ed6      0x2  Data  Gb  SCROLLBAR.o [4]
SCROLLBAR__pSkinDefault
                        0x20013d30      0x4  Data  Gb  SCROLLBAR.o [4]
SLIDER_Callback         0x0804f98f     0x76  Code  Gb  SLIDER.o [4]
SLIDER_CreateEx         0x0804fa05     0x94  Code  Gb  SLIDER.o [4]
SLIDER_Dec              0x0804faa5     0x48  Code  Gb  SLIDER.o [4]
SLIDER_DrawSkinFlex     0x0808ed25    0x120  Code  Gb  SLIDER_SkinFlex.o [4]
SLIDER_GetFlag          0x0804faed     0x24  Code  Gb  SLIDER.o [4]
SLIDER_GetValue         0x0804fbe7     0x28  Code  Gb  SLIDER.o [4]
SLIDER_Inc              0x0804fb11     0x48  Code  Gb  SLIDER.o [4]
SLIDER_SetBkColor       0x08053d6d     0x40  Code  Gb  SLIDER_Color.o [4]
SLIDER_SetFocusColor    0x08053dad     0x3a  Code  Gb  SLIDER_Color.o [4]
SLIDER_SetSTSkin        0x08053eff     0x26  Code  Gb  STSLIDER_SKIN.o [3]
SLIDER_SetValue         0x0804fb91     0x56  Code  Gb  SLIDER.o [4]
SLIDER_SetWidth         0x0804fb59     0x38  Code  Gb  SLIDER.o [4]
SLIDER__DefaultProps    0x20013c1c     0x18  Data  Gb  SLIDER.o [4]
SLIDER__STSkin          0x08053f24      0xc  Data  Gb  STSLIDER_SKIN.o [3]
SLIDER__Skin            0x20013e4c      0xc  Data  Gb  SLIDER_Skin.o [4]
SLIDER__pSkinDefault    0x20013c34      0x4  Data  Gb  SLIDER.o [4]
ST_AnimatedIconView_AddIcon
                        0x0805670b    0x152  Code  Gb  ST_AnimatedIconView.o [3]
ST_AnimatedIconView_Callback
                        0x0805612f    0x2e2  Code  Gb  ST_AnimatedIconView.o [3]
ST_AnimatedIconView_CreateEx
                        0x08056411     0xb6  Code  Gb  ST_AnimatedIconView.o [3]
ST_AnimatedIconView_GetSel
                        0x080566d5     0x1e  Code  Gb  ST_AnimatedIconView.o [3]
ST_AnimatedIconView_SetBkColor
                        0x08056559     0x32  Code  Gb  ST_AnimatedIconView.o [3]
ST_AnimatedIconView_SetDualFont
                        0x08056617     0x3e  Code  Gb  ST_AnimatedIconView.o [3]
ST_AnimatedIconView_SetDualTextColor
                        0x080565c7     0x50  Code  Gb  ST_AnimatedIconView.o [3]
ST_AnimatedIconView_SetFrame
                        0x08056655     0x40  Code  Gb  ST_AnimatedIconView.o [3]
ST_AnimatedIconView_SetItemText
                        0x080564c7     0x80  Code  Gb  ST_AnimatedIconView.o [3]
ST_AnimatedIconView_SetSel
                        0x080566f3      0xa  Code  Gb  ST_AnimatedIconView.o [3]
ST_AnimatedIconView_SetSpace
                        0x08056695     0x40  Code  Gb  ST_AnimatedIconView.o [3]
ST_AnimatedIconView_SetTextColor
                        0x0805658b     0x3c  Code  Gb  ST_AnimatedIconView.o [3]
SVC_Handler             0x080476bd           Code  Gb  portasm.o [1]
SelLayer                0x20012409      0x1  Data  Gb  video_player_win.o [1]
SpiritEQ_Apply          0x08058199     0x24  Code  Gb  flt.o [6]
SpiritEQ_FltGet         0x08058107     0x3e  Code  Gb  flt.o [6]
SpiritEQ_FltReset       0x08058145     0x54  Code  Gb  flt.o [6]
SpiritEQ_FltSet         0x080580d5     0x32  Code  Gb  flt.o [6]
SpiritEQ_Init           0x080580a3     0x32  Code  Gb  flt.o [6]
SpiritLdCtrl_Apply      0x08058861     0x3c  Code  Gb  filter.o [7]
SpiritLdCtrl_GetPrms    0x08058845     0x1c  Code  Gb  filter.o [7]
SpiritLdCtrl_Init       0x0805881b     0x14  Code  Gb  filter.o [7]
SpiritLdCtrl_Reset      0x080587ff     0x1c  Code  Gb  filter.o [7]
SpiritLdCtrl_SetPrms    0x0805882f     0x16  Code  Gb  filter.o [7]
StartIdleMonitor        0x08046caf     0x16  Code  Gb  cpu_utils.o [1]
Startup                 0x0804e253     0xbe  Code  Lc  audio_player_win.o [1]
Startup                 0x08065ec7     0x34  Code  Lc  audio_recorder_win.o [1]
Startup                 0x08080623     0x68  Code  Lc  games_win.o [1]
Startup                 0x0808f851     0x18  Code  Lc  gardening_control_win.o [1]
Startup                 0x080817ab     0x26  Code  Lc  home_alarm_win.o [1]
Startup                 0x0808dba9     0x28  Code  Lc  settings_win.o [1]
Startup                 0x08072c51     0x5a  Code  Lc  video_player_win.o [1]
Startup                 0x08073c9f     0x52  Code  Lc  vnc_server_win.o [1]
StorageEvent            0x2003dd50      0x4  Data  Gb  k_storage.o [1]
StorageStatus           0x2003dd54      0x4  Data  Lc  k_storage.o [1]
StorageThread           0x080534d7     0x46  Code  Lc  k_storage.o [1]
SysTick_Handler         0x08092eb1     0x18  Code  Gb  stm32f7xx_it.o [1]
SystemCoreClock         0x20013eac      0x4  Data  Gb  system_stm32f7xx.o [1]
SystemInit              0x08092f65     0x3a  Code  Gb  system_stm32f7xx.o [1]
TEXT_Callback           0x08053a95     0xc4  Code  Gb  TEXT.o [4]
TEXT_CreateEx           0x08053bef     0x94  Code  Gb  TEXT.o [4]
TEXT_CreateIndirect     0x080930b5     0x3c  Code  Gb  TEXT_CreateIndirect.o [4]
TEXT_CreateUser         0x08053b59     0x96  Code  Gb  TEXT.o [4]
TEXT_SetDefaultFont     0x0806a1ed      0x6  Code  Gb  TEXT_Default.o [4]
TEXT_SetDefaultTextColor
                        0x0806a1f3      0x6  Code  Gb  TEXT_Default.o [4]
TEXT_SetFont            0x08053cc1     0x34  Code  Gb  TEXT_SetFont.o [4]
TEXT_SetText            0x0804f86d     0x5a  Code  Gb  TEXT_SetText.o [4]
TEXT_SetTextColor       0x08053c8d     0x34  Code  Gb  TEXT_SetTextColor.o [4]
TEXT__DefaultProps      0x20013de8     0x10  Data  Gb  TEXT.o [4]
TS_IO_Delay             0x0806d469      0x4  Code  Gb  stm32746g_discovery.o [1]
TS_IO_Init              0x0806d3f5      0x2  Code  Gb  stm32746g_discovery.o [1]
TS_IO_Read              0x0806d439     0x10  Code  Gb  stm32746g_discovery.o [1]
TS_IO_Write             0x0806d3fb      0x6  Code  Gb  stm32746g_discovery.o [1]
Tbl                     0x08059c78    0x100  Data  Lc  unicode.o [1]
TimerCallback           0x0805f167      0x4  Code  Lc  main.o [1]
Timing                  0x20013668     0x1c  Data  Lc  stm32746g_discovery_sdram.o [1]
Tx_Buff                 0x2000ffc4   0x1dc4  Data  Gb  ethernetif.o [1]
USBDISK_Drive           0x2003dd58      0x4  Data  Gb  k_storage.o [1]
USBDISK_FatFs           0x2003e2c0    0x234  Data  Gb  k_storage.o [1]
USBH_AllocPipe          0x08062c15     0x34  Code  Gb  usbh_pipes.o [1]
USBH_BulkReceiveData    0x08069005     0x10  Code  Gb  usbh_ioreq.o [1]
USBH_BulkSendData       0x08068fd5      0xa  Code  Gb  usbh_ioreq.o [1]
USBH_ClosePipe          0x08062c0b      0xa  Code  Gb  usbh_pipes.o [1]
USBH_ClrFeature         0x08062d6d     0x18  Code  Gb  usbh_ctlreq.o [1]
USBH_CtlReceiveData     0x08068fbf     0x16  Code  Gb  usbh_ioreq.o [1]
USBH_CtlReq             0x08062ec1     0x4e  Code  Gb  usbh_ctlreq.o [1]
USBH_CtlSendData        0x08068fb3      0xc  Code  Gb  usbh_ioreq.o [1]
USBH_CtlSendSetup       0x08068f9b     0x18  Code  Gb  usbh_ioreq.o [1]
USBH_Delay              0x08062bed      0x4  Code  Gb  usbh_conf.o [1]
USBH_Driver             0x08093444     0x14  Data  Gb  usbh_diskio.o [1]
USBH_FindInterface      0x0805b43f     0x3e  Code  Gb  usbh_core.o [1]
USBH_FreePipe           0x08062c49     0x18  Code  Gb  usbh_pipes.o [1]
USBH_GetDescriptor      0x08062d05     0x34  Code  Gb  usbh_ctlreq.o [1]
USBH_GetNextDesc        0x08062eb1     0x10  Code  Gb  usbh_ctlreq.o [1]
USBH_Get_CfgDesc        0x08062c8f     0x2c  Code  Gb  usbh_ctlreq.o [1]
USBH_Get_DevDesc        0x08062c61     0x2e  Code  Gb  usbh_ctlreq.o [1]
USBH_Get_StringDesc     0x08062cbb     0x4a  Code  Gb  usbh_ctlreq.o [1]
USBH_HandleControl      0x08062f11    0x16c  Code  Lc  usbh_ctlreq.o [1]
USBH_HandleEnum         0x0805b5e5     0xdc  Code  Lc  usbh_core.o [1]
USBH_Init               0x0805b365     0x62  Code  Gb  usbh_core.o [1]
USBH_LL_ClosePipe       0x08062b59      0xe  Code  Gb  usbh_conf.o [1]
USBH_LL_Connect         0x0805b703     0x28  Code  Gb  usbh_core.o [1]
USBH_LL_Disconnect      0x0805b737     0x40  Code  Gb  usbh_core.o [1]
USBH_LL_DriverVBUS      0x08062b95      0xc  Code  Gb  usbh_conf.o [1]
USBH_LL_GetLastXferSize
                        0x08062b43      0x8  Code  Gb  usbh_conf.o [1]
USBH_LL_GetSpeed        0x08062b19     0x1c  Code  Gb  usbh_conf.o [1]
USBH_LL_GetToggle       0x08062bb9     0x16  Code  Gb  usbh_conf.o [1]
USBH_LL_GetURBState     0x08062b8d      0x8  Code  Gb  usbh_conf.o [1]
USBH_LL_IncTimer        0x0805b6e7     0x1c  Code  Gb  usbh_core.o [1]
USBH_LL_Init            0x08062ab9     0x44  Code  Gb  usbh_conf.o [1]
USBH_LL_NotifyURBChange
                        0x0805b7a1     0x12  Code  Gb  usbh_core.o [1]
USBH_LL_OpenPipe        0x08062b4b      0xe  Code  Gb  usbh_conf.o [1]
USBH_LL_ResetPort       0x08062b35      0xe  Code  Gb  usbh_conf.o [1]
USBH_LL_SetTimer        0x0805b6e1      0x6  Code  Gb  usbh_core.o [1]
USBH_LL_SetToggle       0x08062ba1     0x18  Code  Gb  usbh_conf.o [1]
USBH_LL_Start           0x08062afd      0xe  Code  Gb  usbh_conf.o [1]
USBH_LL_Stop            0x08062b0b      0xe  Code  Gb  usbh_conf.o [1]
USBH_LL_SubmitURB       0x08062b67      0xe  Code  Gb  usbh_conf.o [1]
USBH_MSC_BOT_Abort      0x0808d0f1     0x1e  Code  Lc  usbh_msc_bot.o [1]
USBH_MSC_BOT_Init       0x0808cf0d     0x1a  Code  Gb  usbh_msc_bot.o [1]
USBH_MSC_BOT_Process    0x0808cf29    0x1a8  Code  Gb  usbh_msc_bot.o [1]
USBH_MSC_BOT_REQ_GetMaxLUN
                        0x0808cef7     0x16  Code  Gb  usbh_msc_bot.o [1]
USBH_MSC_BOT_REQ_Reset  0x0808cee1     0x16  Code  Gb  usbh_msc_bot.o [1]
USBH_MSC_ClassRequest   0x0808cb0b     0x66  Code  Lc  usbh_msc.o [1]
USBH_MSC_GetLUNInfo     0x0808cdd5     0x26  Code  Gb  usbh_msc.o [1]
USBH_MSC_InterfaceDeInit
                        0x0808cabd     0x4e  Code  Lc  usbh_msc.o [1]
USBH_MSC_InterfaceInit  0x0808c9b1     0xe6  Code  Lc  usbh_msc.o [1]
USBH_MSC_Process        0x0808cb71    0x1aa  Code  Lc  usbh_msc.o [1]
USBH_MSC_RdWrProcess    0x0808cd33     0x76  Code  Lc  usbh_msc.o [1]
USBH_MSC_Read           0x0808cdfb     0x58  Code  Gb  usbh_msc.o [1]
USBH_MSC_SCSI_Inquiry   0x0808d1cd     0xaa  Code  Gb  usbh_msc_scsi.o [1]
USBH_MSC_SCSI_Read      0x0808d32b     0x22  Code  Gb  usbh_msc_scsi.o [1]
USBH_MSC_SCSI_ReadCapacity
                        0x0808d159     0x74  Code  Gb  usbh_msc_scsi.o [1]
USBH_MSC_SCSI_RequestSense
                        0x0808d277     0x6c  Code  Gb  usbh_msc_scsi.o [1]
USBH_MSC_SCSI_TestUnitReady
                        0x0808d10f     0x4a  Code  Gb  usbh_msc_scsi.o [1]
USBH_MSC_SCSI_Write     0x0808d309     0x22  Code  Gb  usbh_msc_scsi.o [1]
USBH_MSC_SOFProcess     0x0808cd2f      0x4  Code  Lc  usbh_msc.o [1]
USBH_MSC_UnitIsReady    0x0808cdb3     0x22  Code  Gb  usbh_msc.o [1]
USBH_MSC_Write          0x0808ce53     0x58  Code  Gb  usbh_msc.o [1]
USBH_OpenPipe           0x08062bf1     0x1a  Code  Gb  usbh_pipes.o [1]
USBH_ParseCfgDesc       0x08062ddd     0xd4  Code  Lc  usbh_ctlreq.o [1]
USBH_ParseDevDesc       0x08062d85     0x58  Code  Lc  usbh_ctlreq.o [1]
USBH_Process            0x0805b491    0x154  Code  Gb  usbh_core.o [1]
USBH_Process_OS         0x0805b77f     0x22  Code  Lc  usbh_core.o [1]
USBH_RegisterClass      0x0805b40d     0x1e  Code  Gb  usbh_core.o [1]
USBH_SelectInterface    0x0805b42b     0x14  Code  Gb  usbh_core.o [1]
USBH_SetAddress         0x08062d39     0x18  Code  Gb  usbh_ctlreq.o [1]
USBH_SetCfg             0x08062d51     0x16  Code  Gb  usbh_ctlreq.o [1]
USBH_Start              0x0805b47d     0x14  Code  Gb  usbh_core.o [1]
USBH_UserProcess        0x08053529     0x1a  Code  Lc  k_storage.o [1]
USBH_initialize         0x08091ce9      0x4  Code  Gb  usbh_diskio.o [1]
USBH_ioctl              0x08091df7     0x44  Code  Gb  usbh_diskio.o [1]
USBH_msc                0x20013b60     0x20  Data  Gb  usbh_msc.o [1]
USBH_read               0x08091d01     0x5e  Code  Gb  usbh_diskio.o [1]
USBH_status             0x08091ced     0x14  Code  Gb  usbh_diskio.o [1]
USBH_write              0x08091d5f     0x6c  Code  Gb  usbh_diskio.o [1]
USB_CoreInit            0x0806aac9     0x6a  Code  Gb  stm32f7xx_ll_usb.o [1]
USB_CoreReset           0x0806ac21     0x2a  Code  Lc  stm32f7xx_ll_usb.o [1]
USB_DisableGlobalInt    0x0806ab3b      0x6  Code  Gb  stm32f7xx_ll_usb.o [1]
USB_DoPing              0x0806b039     0x18  Code  Gb  stm32f7xx_ll_usb.o [1]
USB_DriveVbus           0x0806ad75     0x3e  Code  Gb  stm32f7xx_ll_usb.o [1]
USB_EnableGlobalInt     0x0806ab33      0x8  Code  Gb  stm32f7xx_ll_usb.o [1]
USB_FlushRxFifo         0x0806ab91     0x1a  Code  Gb  stm32f7xx_ll_usb.o [1]
USB_FlushTxFifo         0x0806ab73     0x1e  Code  Gb  stm32f7xx_ll_usb.o [1]
USB_GetCurrentFrame     0x0806adc7      0xa  Code  Gb  stm32f7xx_ll_usb.o [1]
USB_GetHostSpeed        0x0806adb3     0x14  Code  Gb  stm32f7xx_ll_usb.o [1]
USB_GetMode             0x0806ac19      0x8  Code  Gb  stm32f7xx_ll_usb.o [1]
USB_HC_Halt             0x0806afe3     0x56  Code  Gb  stm32f7xx_ll_usb.o [1]
USB_HC_Init             0x0806add1     0xc2  Code  Gb  stm32f7xx_ll_usb.o [1]
USB_HC_ReadInterrupt    0x0806afd9      0xa  Code  Gb  stm32f7xx_ll_usb.o [1]
USB_HC_StartXfer        0x0806ae93    0x134  Code  Gb  stm32f7xx_ll_usb.o [1]
USB_HostInit            0x0806ac4b     0xc0  Code  Gb  stm32f7xx_ll_usb.o [1]
USB_InitFSLSPClkSel     0x0806ad19     0x2e  Code  Gb  stm32f7xx_ll_usb.o [1]
USB_ReadInterrupts      0x0806ac11      0x8  Code  Gb  stm32f7xx_ll_usb.o [1]
USB_ReadPacket          0x0806abd7     0x24  Code  Gb  stm32f7xx_ll_usb.o [1]
USB_ResetPort           0x0806ad47     0x2e  Code  Gb  stm32f7xx_ll_usb.o [1]
USB_SetCurrentMode      0x0806ab47     0x26  Code  Gb  stm32f7xx_ll_usb.o [1]
USB_StopHost            0x0806b079     0x76  Code  Gb  stm32f7xx_ll_usb.o [1]
USB_WritePacket         0x0806abab     0x2c  Code  Gb  stm32f7xx_ll_usb.o [1]
UsageFault_Handler      0x08092ead      0x2  Code  Gb  stm32f7xx_it.o [1]
VNC_GetLockState        0x080748fb      0x6  Code  Gb  vnc_app.o [1]
VNC_GetState            0x080748ef      0x6  Code  Gb  vnc_app.o [1]
VNC_IsRunning           0x08073c87     0x10  Code  Gb  vnc_server_win.o [1]
VNC_LockState           0x200400d1      0x1  Data  Gb  vnc_app.o [1]
VNC_Process             0x0807471b     0xae  Code  Lc  vnc_app.o [1]
VNC_SERVER_LogMessage   0x08073cfb     0x1a  Code  Gb  vnc_server_win.o [1]
VNC_SERVER_Start        0x08074815     0x9e  Code  Gb  vnc_app.o [1]
VNC_SERVER_StatusChanged
                        0x08073d15     0x60  Code  Gb  vnc_server_win.o [1]
VNC_SERVER_Stop         0x080748b3     0x3c  Code  Gb  vnc_app.o [1]
VNC_SetLockState        0x08074901      0x6  Code  Gb  vnc_app.o [1]
VNC_SetState            0x080748f5      0x6  Code  Gb  vnc_app.o [1]
VNC_State               0x200400d0      0x1  Data  Gb  vnc_app.o [1]
VNC_Thread              0x08074907     0xf4  Code  Gb  vnc_app.o [1]
VNC_ThreadId            0x20040078      0x4  Data  Gb  vnc_app.o [1]
VideoList               0x20038c9c   0x181c  Data  Lc  video_player_win.o [1]
VideoPlayer_State       0x20012408      0x1  Data  Gb  video_player_win.o [1]
VideoWin                0x20012424      0x4  Data  Lc  video_player_win.o [1]
Video_File              0x20012484    0x22c  Data  Gb  video_player_win.o [1]
Video_FilePos           0x20012430      0x4  Data  Lc  video_player_win.o [1]
Video_Info              0x2001240c     0x10  Data  Gb  video_player_win.o [1]
Video_Path              0x200126b0    0x100  Data  Gb  video_player_win.o [1]
WIDGET_AndState         0x0804e7cb     0x38  Code  Gb  WIDGET.o [4]
WIDGET_Effect_None      0x0809334c     0x1c  Data  Gb  WIDGET_Effect_None.o [4]
WIDGET_Effect_Simple    0x08093368     0x1c  Data  Gb  WIDGET_Effect_Simple.o [4]
WIDGET_GetDefaultEffect
                        0x0804eb0f      0x6  Code  Gb  WIDGET.o [4]
WIDGET_GetState         0x0804e769     0x28  Code  Gb  WIDGET.o [4]
WIDGET_HandleActive     0x0804e811    0x1a2  Code  Gb  WIDGET.o [4]
WIDGET_OrState          0x0804e791     0x3a  Code  Gb  WIDGET.o [4]
WIDGET_SetEffect        0x08054247     0x1a  Code  Gb  WIDGET_SetEffect.o [4]
WIDGET_SetWidth         0x0806b0ef     0x3e  Code  Gb  WIDGET_SetWidth.o [4]
WIDGET__DrawTriangle    0x0804ea31     0x56  Code  Gb  WIDGET.o [4]
WIDGET__DrawVLine       0x0804e9d9     0x38  Code  Gb  WIDGET.o [4]
WIDGET__EFFECT_DrawDown
                        0x0804eb0b      0x4  Code  Gb  WIDGET.o [4]
WIDGET__EFFECT_DrawDownRect
                        0x0804ea87     0x84  Code  Gb  WIDGET.o [4]
WIDGET__FillRectEx      0x0804ea11     0x20  Code  Gb  WIDGET.o [4]
WIDGET__GetClientRect   0x0804e6c5     0x3a  Code  Gb  WIDGET.o [4]
WIDGET__GetWindowSizeX  0x0804e73b     0x2e  Code  Gb  WIDGET.o [4]
WIDGET__GetXSize        0x0804e6ff     0x1e  Code  Gb  WIDGET.o [4]
WIDGET__GetYSize        0x0804e71d     0x1e  Code  Gb  WIDGET.o [4]
WIDGET__Init            0x0804e803      0xe  Code  Gb  WIDGET.o [4]
WIDGET__RotateRect90    0x0804e69d     0x28  Code  Gb  WIDGET.o [4]
WIDGET__SetScrollState  0x0804e9b3     0x26  Code  Gb  WIDGET.o [4]
WINDOW_Callback         0x08080b49    0x136  Code  Gb  WINDOW.o [4]
WINDOW_CreateEx         0x08080ca9     0x62  Code  Gb  WINDOW.o [4]
WINDOW_CreateIndirect   0x08080d0b     0x7c  Code  Gb  WINDOW.o [4]
WINDOW_SetBkColor       0x08080c7f     0x2a  Code  Gb  WINDOW.o [4]
WINDOW_SetDefaultBkColor
                        0x08069bc5      0x6  Code  Gb  WINDOW_Default.o [4]
WINDOW__DefaultBkColor  0x20013eb8      0x4  Data  Gb  WINDOW.o [4]
WM_Activate             0x0804089b      0xc  Code  Gb  WM.o [4]
WM_BringToBottom        0x08041e99     0x90  Code  Gb  WM_BringToBottom.o [4]
WM_BringToTop           0x08056cb1     0x78  Code  Gb  WM_BringToTop.o [4]
WM_CheckScrollBounds    0x0805a19f     0x1c  Code  Gb  WM_CheckScrollPos.o [4]
WM_CheckScrollPos       0x0805a1bb     0x3e  Code  Gb  WM_CheckScrollPos.o [4]
WM_ClrHasTrans          0x0805b8eb     0x3e  Code  Gb  WM_SetTrans.o [4]
WM_CreateTimer          0x08041fff     0x64  Code  Gb  WM_Timer.o [4]
WM_CreateWindowAsChild  0x0803f69d    0x154  Code  Gb  WM.o [4]
WM_Deactivate           0x080408a7     0x20  Code  Gb  WM.o [4]
WM_DefaultProc          0x080408c7     0x46  Code  Gb  WM.o [4]
WM_DeleteTimer          0x08041fd1     0x2e  Code  Gb  WM_Timer.o [4]
WM_DeleteWindow         0x0803f7f9    0x130  Code  Gb  WM.o [4]
WM_DisableMemdev        0x08063381     0x22  Code  Gb  WM_MemDev.o [4]
WM_DisableWindow        0x08053a4d     0x48  Code  Gb  WM_EnableWindow.o [4]
WM_EnableWindow         0x08053a05     0x48  Code  Gb  WM_EnableWindow.o [4]
WM_Exec                 0x08040609    0x23a  Code  Gb  WM.o [4]
WM_ForEachDesc          0x0805e6b5     0x1e  Code  Gb  WM_ForEachDesc.o [4]
WM_GetActiveWindow      0x0803f9ad      0xa  Code  Gb  WM.o [4]
WM_GetCallback          0x0805dd91     0x28  Code  Gb  WM_GetCallback.o [4]
WM_GetClientRect        0x08042539     0x42  Code  Gb  WM_GetClientRect.o [4]
WM_GetClientRectEx      0x08042509     0x30  Code  Gb  WM_GetClientRect.o [4]
WM_GetClientWindow      0x08054261     0x18  Code  Gb  WM_GetClientWindow.o [4]
WM_GetDesktopWindow     0x08043261     0x18  Code  Gb  WM_GetDesktopWindow.o [4]
WM_GetDesktopWindowEx   0x08069029     0x14  Code  Gb  WM_GetDesktopWindowEx.o [4]
WM_GetDialogItem        0x0804fcbb     0x20  Code  Gb  WM_GetDialogItem.o [4]
WM_GetFirstChild        0x08041ac1     0x1a  Code  Gb  WM_GetFirstChild.o [4]
WM_GetFlags             0x08062729     0x20  Code  Gb  WM_GetFlags.o [4]
WM_GetFocussedWindow    0x080569c9     0x20  Code  Gb  WM_GetFocussedWindow.o [4]
WM_GetHasTrans          0x0805b92d     0x26  Code  Gb  WM_SetTrans.o [4]
WM_GetId                0x08054049     0x24  Code  Gb  WM_GetId.o [4]
WM_GetInsideRect        0x080626d9     0x1a  Code  Gb  WM_GetInsideRect.o [4]
WM_GetInsideRectEx      0x080626c5     0x14  Code  Gb  WM_GetInsideRect.o [4]
WM_GetInsideRectExScrollbar
                        0x0805abad     0xa8  Code  Gb  WM_GetInsideRectExScrollbar.o [4]
WM_GetNextSibling       0x08063269     0x1a  Code  Gb  WM_GetNextSibling.o [4]
WM_GetParent            0x08043d13     0x1a  Code  Gb  WM_GetParent.o [4]
WM_GetScrollPartner     0x0806aa9d     0x2c  Code  Gb  WM_GetScrollPartner.o [4]
WM_GetScrollState       0x0805b267     0x14  Code  Gb  WM_GetScrollState.o [4]
WM_GetScrollbarH        0x0805b223     0x22  Code  Gb  WM_GetScrollbar.o [4]
WM_GetScrollbarV        0x0805b245     0x22  Code  Gb  WM_GetScrollbar.o [4]
WM_GetTimerId           0x0804209f     0x28  Code  Gb  WM_Timer.o [4]
WM_GetWindowOrgX        0x0805daa1     0x20  Code  Gb  WM_GetOrg.o [4]
WM_GetWindowOrgY        0x0805dac1     0x22  Code  Gb  WM_GetOrg.o [4]
WM_GetWindowRectEx      0x080626f9     0x30  Code  Gb  WM_GetWindowRect.o [4]
WM_GetWindowSizeX       0x08056a95     0x38  Code  Gb  WM_GetWindowSize.o [4]
WM_GetWindowSizeY       0x08056acd     0x38  Code  Gb  WM_GetWindowSize.o [4]
WM_HandlePID            0x0805baeb    0x444  Code  Gb  WM_Touch.o [4]
WM_HasCaptured          0x08069059     0x20  Code  Gb  WM_HasCaptured.o [4]
WM_HasFocus             0x0805ad21     0x20  Code  Gb  WM_HasFocus.o [4]
WM_HideWindow           0x0805583d     0x3a  Code  Gb  WM_Hide.o [4]
WM_Init                 0x0804092b    0x178  Code  Gb  WM.o [4]
WM_InvalidateRect       0x0803f5cb     0xce  Code  Gb  WM.o [4]
WM_InvalidateWindow     0x0803f699      0x4  Code  Gb  WM.o [4]
WM_InvalidateWindowAndDescs
                        0x080568ad     0x34  Code  Gb  WM_Show.o [4]
WM_InvalidateWindowAndDescsEx
                        0x0803f145     0x64  Code  Gb  WM.o [4]
WM_IsFocussable         0x08059ac3     0x20  Code  Gb  WM_IsFocussable.o [4]
WM_IsWindow             0x0805e69d     0x18  Code  Gb  WM_IsWindow.o [4]
WM_MULTIBUF_Enable      0x080650a1     0x1c  Code  Gb  WM_MULTIBUF.o [4]
WM_MULTIBUF__pAPI       0x2003f8d4      0x4  Data  Gb  WM.o [4]
WM_MakeModal            0x080543a9     0x5e  Code  Gb  WM_MakeModal.o [4]
WM_MoveChildTo          0x08063283     0x64  Code  Gb  WM_MoveChildTo.o [4]
WM_MoveTo               0x0805dc0f     0x3e  Code  Gb  WM_Move.o [4]
WM_MoveWindow           0x0805dbf1     0x1e  Code  Gb  WM_Move.o [4]
WM_NotifyParent         0x080420d9     0x14  Code  Gb  WM_NotifyParent.o [4]
WM_OnKey                0x080444d1     0x40  Code  Gb  WM_OnKey.o [4]
WM_PID__SetPrevState    0x080631ed     0x14  Code  Gb  WM_PID__GetPrevState.o [4]
WM_Paint                0x0804fc41     0x36  Code  Gb  WM_Paint.o [4]
WM_ReleaseCapture       0x08059b27     0x2e  Code  Gb  WM_SetCapture.o [4]
WM_ResizeWindow         0x0805e5a1     0xfc  Code  Gb  WM_ResizeWindow.o [4]
WM_RestartTimer         0x08042069     0x36  Code  Gb  WM_Timer.o [4]
WM_Screen2hWin          0x080631bd     0x2a  Code  Gb  WM_Screen2Win.o [4]
WM_SelectWindow         0x0803f94d     0x60  Code  Gb  WM.o [4]
WM_SendMessage          0x0803f57d     0x24  Code  Gb  WM.o [4]
WM_SendMessageNoPara    0x080421b5     0x1e  Code  Gb  WM_SendMessageNoPara.o [4]
WM_SendToParent         0x08042585     0x2c  Code  Gb  WM_SendToParent.o [4]
WM_SetCallback          0x08053f31     0x32  Code  Gb  WM_SetCallback.o [4]
WM_SetCapture           0x08059ae5     0x42  Code  Gb  WM_SetCapture.o [4]
WM_SetCaptureMove       0x080632e9     0x98  Code  Gb  WM_SetCaptureMove.o [4]
WM_SetFocus             0x08056bf1     0xa4  Code  Gb  WM_SetFocus.o [4]
WM_SetFocusOnNextChild  0x080569e9     0x90  Code  Gb  WM_SetFocusOnNextChild.o [4]
WM_SetFocusOnPrevChild  0x08063205     0x64  Code  Gb  WM_SetFocusOnPrevChild.o [4]
WM_SetHasTrans          0x0805b8a1     0x4a  Code  Gb  WM_SetTrans.o [4]
WM_SetScrollState       0x08056d47     0x1a  Code  Gb  WM_SetScrollState.o [4]
WM_SetScrollValue       0x0805a1f9     0x26  Code  Gb  WM_CheckScrollPos.o [4]
WM_SetScrollbarH        0x0805b00d     0x24  Code  Gb  WM_SetScrollbar.o [4]
WM_SetScrollbarV        0x0805b031     0x24  Code  Gb  WM_SetScrollbar.o [4]
WM_SetSize              0x0805da4b     0x54  Code  Gb  WM_SetSize.o [4]
WM_SetUserClipRect      0x08062971     0x24  Code  Gb  WM_SetUserClipRect.o [4]
WM_SetWindowPos         0x0805dc6d     0x1e  Code  Gb  WM_SetWindowPos.o [4]
WM_SetXSize             0x0806d037     0x4e  Code  Gb  WM_SetXSize.o [4]
WM_SetYSize             0x0806d085     0x50  Code  Gb  WM_SetYSize.o [4]
WM_ShowWindow           0x080568e1     0x5a  Code  Gb  WM_Show.o [4]
WM_TOOLTIP_Delete       0x0805dcf1     0x98  Code  Gb  WM_ToolTip.o [4]
WM_Update               0x0804fc0f     0x32  Code  Gb  WM_Paint.o [4]
WM_ValidateWindow       0x0806307d     0x3c  Code  Gb  WM_ValidateWindow.o [4]
WM__ActivateClipRect    0x0803ef75     0x78  Code  Gb  WM.o [4]
WM__AddCriticalHandle   0x0804287d      0xa  Code  Gb  WM_CriticalHandle.o [4]
WM__CapturePoint        0x200400b8      0x4  Data  Lc  WM_SetCaptureMove.o [4]
WM__CaptureReleaseAuto  0x200400d4      0x1  Data  Gb  WM.o [4]
WM__CreateFlags         0x2003f8cc      0x4  Data  Gb  WM.o [4]
WM__DeleteAssocTimer    0x08041f59     0x78  Code  Gb  WM_Timer.o [4]
WM__DeleteSecure        0x080405e9     0x1c  Code  Gb  WM.o [4]
WM__FirstWin            0x2003f8bc      0x4  Data  Gb  WM.o [4]
WM__ForEachDesc         0x08064ea5     0x2c  Code  Gb  WM__ForEachDesc.o [4]
WM__GetClientRectEx     0x080424e5     0x24  Code  Gb  WM_GetClientRect.o [4]
WM__GetClientRectWin    0x0803f5b3     0x18  Code  Gb  WM.o [4]
WM__GetFirstSibling     0x08046651     0x14  Code  Gb  WM__GetFirstSibling.o [4]
WM__GetFocussedChild    0x0805e579     0x28  Code  Gb  WM__GetFocussedChild.o [4]
WM__GetLastSibling      0x0806903d     0x1a  Code  Gb  WM__GetLastSibling.o [4]
WM__GetNextIVR          0x0803fd09     0x9e  Code  Gb  WM.o [4]
WM__GetOrgX_AA          0x08056fd1     0x14  Code  Gb  WM__GetOrg_AA.o [4]
WM__GetOrgY_AA          0x08056fe5     0x14  Code  Gb  WM__GetOrg_AA.o [4]
WM__GetPrevSibling      0x08043ce9     0x2a  Code  Gb  WM__GetPrevSibling.o [4]
WM__GetTopLevelLayer    0x0803f929     0x24  Code  Gb  WM.o [4]
WM__GetUserDataEx       0x080633a9     0x40  Code  Gb  WM_UserData.o [4]
WM__GetWindowSizeX      0x08056a79      0xe  Code  Gb  WM_GetWindowSize.o [4]
WM__GetWindowSizeY      0x08056a87      0xe  Code  Gb  WM_GetWindowSize.o [4]
WM__InitIVRSearch       0x0803fda7    0x22a  Code  Gb  WM.o [4]
WM__InsertWindowIntoList
                        0x0803efed     0xaa  Code  Gb  WM.o [4]
WM__InvalidateDrawAndDescs
                        0x0803f0ed     0x58  Code  Gb  WM.o [4]
WM__InvalidateParent    0x0803ed51    0x176  Code  Gb  WM.o [4]
WM__InvalidateRect      0x0803f1a9     0xca  Code  Gb  WM.o [4]
WM__InvalidateRectEx    0x0803f273    0x160  Code  Gb  WM.o [4]
WM__IsAncestor          0x080630b9     0x2c  Code  Gb  WM__IsAncestor.o [4]
WM__IsAncestorOrSelf    0x080630e5     0x30  Code  Gb  WM__IsAncestor.o [4]
WM__IsChild             0x08064e7f     0x26  Code  Gb  WM__IsChild.o [4]
WM__IsEnabled           0x0805e51b     0x16  Code  Gb  WM__IsEnabled.o [4]
WM__IsInModalArea       0x0805ba51     0x56  Code  Gb  WM_Touch.o [4]
WM__IsWindow            0x0803f0d1     0x1c  Code  Gb  WM.o [4]
WM__ModalLayer          0x20013840      0x4  Data  Gb  WM_Touch.o [4]
WM__MoveWindow          0x0805db51     0xa0  Code  Gb  WM_Move.o [4]
WM__NumInvalidWindows   0x2003f8b4      0x2  Data  Gb  WM.o [4]
WM__NumWindows          0x2003f8b2      0x2  Data  Gb  WM.o [4]
WM__Paint               0x08040509     0xe0  Code  Gb  WM.o [4]
WM__Paint1              0x0803ffd1    0x130  Code  Gb  WM.o [4]
WM__PaintCallbackCnt    0x2003f8b0      0x1  Data  Gb  WM.o [4]
WM__PaintWinAndOverlays
                        0x08040251    0x25a  Code  Lc  WM.o [4]
WM__RemoveCriticalHandle
                        0x08042887     0x42  Code  Gb  WM_CriticalHandle.o [4]
WM__RemoveWindowFromList
                        0x0803f097     0x3a  Code  Gb  WM.o [4]
WM__Screen2Client       0x08056e29     0x14  Code  Gb  WM__Screen2Client.o [4]
WM__SendMessage         0x08041e59     0x40  Code  Gb  WM__SendMessage.o [4]
WM__SendMessageIfEnabled
                        0x08063115     0x20  Code  Gb  WM__SendMessageIfEnabled.o [4]
WM__SendMessageNoPara   0x08044275     0x2c  Code  Gb  WM__SendMessageNoPara.o [4]
WM__SendMsgNoData       0x0803f5a1     0x12  Code  Gb  WM.o [4]
WM__SendPIDMessage      0x0805baa7     0x44  Code  Gb  WM_Touch.o [4]
WM__SetUserDataEx       0x080633e9     0x40  Code  Gb  WM_UserData.o [4]
WM__TouchedLayer        0x2003f8b8      0x4  Data  Gb  WM.o [4]
WM__TransWindowCnt      0x2003f8d8      0x4  Data  Gb  WM.o [4]
WM__UpdateChildPositions
                        0x08056b05     0xea  Code  Gb  WM__UpdateChildPositions.o [4]
WM__aBkColor            0x2003f8c4      0x8  Data  Gb  WM.o [4]
WM__aCHWinLast          0x20013818     0x10  Data  Gb  WM_Touch.o [4]
WM__aCHWinModal         0x20013808     0x10  Data  Gb  WM_Touch.o [4]
WM__aCHWinMouseOver     0x20013828     0x10  Data  Gb  WM_Touch.o [4]
WM__ahCapture           0x2003f8a0      0x8  Data  Gb  WM.o [4]
WM__ahDesktopWin        0x2003f898      0x8  Data  Gb  WM.o [4]
WM__ahWinFocus          0x2003f8a8      0x8  Data  Gb  WM.o [4]
WM__hATransWindow       0x2003f8dc      0x4  Data  Gb  WM.o [4]
WM__hCreateStatic       0x2004009c      0x4  Data  Gb  WM.o [4]
WM__pExecGestures       0x2003f8e0      0x4  Data  Gb  WM.o [4]
WM__pFirstCriticalHandle
                        0x2003f8c0      0x4  Data  Gb  WM.o [4]
WM_pfHandlePID          0x20040088      0x4  Data  Gb  GUI_Core.o [4]
WM_pfPollPID            0x2003f8d0      0x4  Data  Gb  WM.o [4]
WavInfo                 0x20012934     0x2c  Data  Lc  audio_player_win.o [1]
WavList                 0x2003a7e4   0x181c  Data  Lc  audio_player_win.o [1]
WavProcess_HeaderInit   0x0805f619     0xb8  Code  Lc  audio_recorder_app.o [1]
_AddEntireFolder        0x0804c97d    0x120  Code  Lc  audio_player_win.o [1]
_AddEntireFolder        0x08072b99     0xb8  Code  Lc  video_player_win.o [1]
_AddFreeMemory          0x0803e1c5     0xa2  Code  Lc  GUI_Alloc.o [4]
_AddKey                 0x08051f59    0x164  Code  Lc  LISTVIEW.o [4]
_AddKey                 0x08063b69    0x192  Code  Lc  LISTBOX.o [4]
_Addr                   0x2003ff64     0x10  Data  Lc  vnc_app.o [1]
_AdjustControlls        0x08054c3f    0x17c  Code  Lc  CHOOSEFILE.o [4]
_AdjustControllsBottom  0x08054dbb      0x4  Code  Lc  CHOOSEFILE.o [4]
_Alloc                  0x0803e6c9    0x1a0  Code  Lc  GUI_Alloc.o [4]
_AndMask                0x20013ecc      0x4  Data  Lc  LCD_AA.o [4]
_Authentication         0x20013e00      0x8  Data  Lc  GUIVNC_Authentication.o [4]
_BitmapHeaderM          0x080932bc     0x14  Data  Lc  GUI_CursorHeaderM.o [4]
_Board                  0x2003f404     0x84  Data  Lc  games_win.o [1]
_BoardX0                0x2003fe34      0x4  Data  Lc  games_win.o [1]
_BoardY0                0x2003fe38      0x4  Data  Lc  games_win.o [1]
_BufferSize             0x2003fc24      0x4  Data  Lc  GUIAA_Lib.o [4]
_CalcBanding            0x0803b065    0x14e  Code  Lc  GUI_JPEG.o [4]
_CalcBoardDimensions    0x0807fb6d     0x38  Code  Lc  games_win.o [1]
_CalcClipRectHL         0x0805722f     0x40  Code  Lc  GUIAA_Lib.o [4]
_CalcMCUBlockOrder      0x08038cb1    0x214  Code  Lc  GUI_JPEG.o [4]
_CalcPositions          0x08069bf5    0x138  Code  Lc  STSCROLLBAR_Skin.o [3]
_CalcPositions          0x08090e41    0x160  Code  Lc  SCROLLBAR_Skin.o [4]
_CalcScore              0x0807fe2f     0x30  Code  Lc  games_win.o [1]
_CalcSizeOfChar         0x08093221      0x4  Code  Lc  GUI_UC_EncodeNone.o [4]
_CalcValidMoves         0x0807fc91     0xd8  Code  Lc  games_win.o [1]
_CellSize               0x2003fe3c      0x4  Data  Lc  games_win.o [1]
_CheckDirection         0x0807fc49     0x48  Code  Lc  games_win.o [1]
_CheckHuffmanTables     0x0803ae0d    0x170  Code  Lc  GUI_JPEG.o [4]
_ClearUnusedPixels      0x0806ba31     0xc8  Code  Lc  GUI_GIF.o [4]
_ClipContext            0x2003f880     0x18  Data  Lc  WM.o [4]
_ClipRect_HL            0x2003fc00      0x8  Data  Lc  GUIAA_Lib.o [4]
_CoeffBufferGetP_Locked
                        0x08038f77     0x84  Code  Lc  GUI_JPEG.o [4]
_Color2IndexBulk        0x080931d1     0x10  Code  Lc  GUICC_8888.o [4]
_Color2IndexBulk_M1555I
                        0x080925ad     0x4a  Code  Lc  GUICC_M1555I.o [4]
_Color2IndexBulk_M8888I
                        0x08092a8d     0x42  Code  Lc  GUICC_M8888I.o [4]
_Color2Index_0          0x08092b15     0x58  Code  Lc  GUICC_0.o [4]
_Color2Index_111        0x0806dcc3     0x16  Code  Lc  GUIVNC_Process.o [4]
_Color2Index_222        0x0806dc6f     0x2a  Code  Lc  GUIVNC_Process.o [4]
_Color2Index_233        0x0806dc3b     0x34  Code  Lc  GUIVNC_Process.o [4]
_Color2Index_565        0x0806dc0f     0x16  Code  Lc  GUIVNC_Process.o [4]
_Color2Index_8888       0x080931c9      0x2  Code  Lc  GUICC_8888.o [4]
_Color2Index_M111       0x0806dcd9     0x16  Code  Lc  GUIVNC_Process.o [4]
_Color2Index_M1555I     0x08092549     0x2c  Code  Lc  GUICC_M1555I.o [4]
_Color2Index_M222       0x0806dc99     0x2a  Code  Lc  GUIVNC_Process.o [4]
_Color2Index_M565       0x0806dc25     0x16  Code  Lc  GUIVNC_Process.o [4]
_Color2Index_M8888I     0x08092a45     0x20  Code  Lc  GUICC_M8888I.o [4]
_ColorsImageButtonUp    0x08092660      0xc  Data  Lc  CHOOSEFILE.o [4]
_ColorsImageCancel      0x0809272c      0x8  Data  Lc  CHOOSEFILE.o [4]
_ColorsImageOK_Disabled
                        0x080926c8      0x8  Data  Lc  CHOOSEFILE.o [4]
_ColorsImageOK_Enabled  0x080926c0      0x8  Data  Lc  CHOOSEFILE.o [4]
_Colorsback             0x0801d274      0x8  Data  Lc  audio_player_win.o [1]
_Colorsback             0x0804c1ac      0x8  Data  Lc  video_player_win.o [1]
_Colorsbackward         0x0801d530      0x8  Data  Lc  audio_player_win.o [1]
_Colorsbackward_des     0x0801d7ec      0x8  Data  Lc  audio_player_win.o [1]
_Colorsfore             0x0801d300      0x8  Data  Lc  audio_player_win.o [1]
_Colorsfore             0x0804c238      0x8  Data  Lc  video_player_win.o [1]
_Colorsforeward         0x0801d5bc      0x8  Data  Lc  audio_player_win.o [1]
_Colorsforeward_des     0x0801d878      0x8  Data  Lc  audio_player_win.o [1]
_Colorspause            0x0801d418      0x8  Data  Lc  audio_player_win.o [1]
_Colorspause            0x0808a884      0x8  Data  Lc  audio_recorder_win.o [1]
_Colorspause_des        0x0801d6d4      0x8  Data  Lc  audio_player_win.o [1]
_Colorspause_des        0x0808aa3c      0x8  Data  Lc  audio_recorder_win.o [1]
_Colorspause_pressed    0x0801d15c      0x8  Data  Lc  audio_player_win.o [1]
_Colorspause_pressed    0x0808a5f0      0x8  Data  Lc  audio_recorder_win.o [1]
_Colorspause_pressed    0x0804c094      0x8  Data  Lc  video_player_win.o [1]
_Colorsplay             0x0801d38c      0x8  Data  Lc  audio_player_win.o [1]
_Colorsplay             0x0808a7a8      0x8  Data  Lc  audio_recorder_win.o [1]
_Colorsplay_des         0x0801d648      0x8  Data  Lc  audio_player_win.o [1]
_Colorsplay_pressed     0x0801d0d0      0x8  Data  Lc  audio_player_win.o [1]
_Colorsplay_pressed     0x0808a514      0x8  Data  Lc  audio_recorder_win.o [1]
_Colorsplay_pressed     0x0804c008      0x8  Data  Lc  video_player_win.o [1]
_Colorsplay_unpressed   0x0808fa6c      0x8  Data  Lc  vnc_server_win.o [1]
_Colorsstop             0x0801d4a4      0x8  Data  Lc  audio_player_win.o [1]
_Colorsstop             0x0808a960      0x8  Data  Lc  audio_recorder_win.o [1]
_Colorsstop_des         0x0801d760      0x8  Data  Lc  audio_player_win.o [1]
_Colorsstop_des         0x0808ab18      0x8  Data  Lc  audio_recorder_win.o [1]
_Colorsstop_pressed     0x0801d1e8      0x8  Data  Lc  audio_player_win.o [1]
_Colorsstop_pressed     0x0808a6cc      0x8  Data  Lc  audio_recorder_win.o [1]
_Colorsstop_pressed     0x0804c120      0x8  Data  Lc  video_player_win.o [1]
_Colorsvnc_play_pressed
                        0x0808fb48      0x8  Data  Lc  vnc_server_win.o [1]
_Colorsvnc_stop         0x0808fd00      0x8  Data  Lc  vnc_server_win.o [1]
_Colorsvnc_stop_pressed
                        0x0808fc24      0x8  Data  Lc  vnc_server_win.o [1]
_ColumnScroll           0x08051d71    0x1e8  Code  Lc  LISTVIEW.o [4]
_CompareSize            0x08054425     0xb6  Code  Lc  CHOOSEFILE.o [4]
_Config                 0x2003f280      0xc  Data  Lc  GUI_Alloc.o [4]
_ConnectionCnt          0x200400a4      0x4  Data  Lc  GUIVNC_Process.o [4]
_ConstObjData           0x08064e30      0xc  Data  Lc  GUI_DRAW_BITMAP.o [4]
_Context                0x2003f958     0x54  Data  Lc  vnc_app.o [1]
_Context                0x20013970     0x28  Data  Lc  WM_ToolTip.o [4]
_Context                0x2003fda4     0x30  Data  Lc  LCD_NextPixelAPI.o [4]
_ConvertH1V1            0x0803c6f9    0x14e  Code  Lc  GUI_JPEG.o [4]
_ConvertH1V2            0x0803cd65    0x19c  Code  Lc  GUI_JPEG.o [4]
_ConvertH2V1            0x0803cb71    0x1f4  Code  Lc  GUI_JPEG.o [4]
_ConvertH2V2            0x0803c849    0x326  Code  Lc  GUI_JPEG.o [4]
_CopyBuffer             0x0807edbd     0x62  Code  Lc  GUIDRV_Lin_16.o [4]
_CopyBuffer             0x08081cc3     0x62  Code  Lc  GUIDRV_Lin_32.o [4]
_Create                 0x08053efd      0x2  Code  Lc  STSLIDER_SKIN.o [3]
_Create                 0x08069abf     0x36  Code  Lc  BUTTON_Skin.o [4]
_Create                 0x08069b81     0x28  Code  Lc  DROPDOWN_Skin.o [4]
_Create                 0x0806a1c3      0x2  Code  Lc  STHEADER_Skin.o [3]
_Create                 0x08069e4d     0x1a  Code  Lc  STSCROLLBAR_Skin.o [3]
_Create                 0x080914e9     0x24  Code  Lc  SLIDER_Skin.o [4]
_Create                 0x08091f4d     0x26  Code  Lc  FRAMEWIN_Skin.o [4]
_Create                 0x08092207     0x26  Code  Lc  HEADER_Skin.o [4]
_Create                 0x08091063     0x3e  Code  Lc  SCROLLBAR_Skin.o [4]
_CreateHuffmanTable     0x0803ac05    0x206  Code  Lc  GUI_JPEG.o [4]
_CreateNextButton       0x08055a41     0x5e  Code  Lc  ST_AnimatedIconView.o [3]
_CreateSortObject       0x0805ceff     0x60  Code  Lc  LISTVIEW_SetSort.o [4]
_CreateStaticDevice     0x08091b55    0x136  Code  Lc  GUIDEV_StaticDevices.o [4]
_CurrentTaskNo          0x20013c3c      0x4  Data  Lc  GUI_Task.o [4]
_DecodeBlockAC_First    0x08039321    0x688  Code  Lc  GUI_JPEG.o [4]
_DecodeBlockAC_FirstBanding
                        0x0803a569    0x45e  Code  Lc  GUI_JPEG.o [4]
_DecodeBlockAC_Refine   0x080399b5    0x8b0  Code  Lc  GUI_JPEG.o [4]
_DecodeBlockAC_RefineBanding
                        0x0803a9d5      0x4  Code  Lc  GUI_JPEG.o [4]
_DecodeBlockDC_First    0x08038ffb    0x1bc  Code  Lc  GUI_JPEG.o [4]
_DecodeBlockDC_FirstBanding
                        0x0803a265    0x1a6  Code  Lc  GUI_JPEG.o [4]
_DecodeBlockDC_Refine   0x080391b7    0x166  Code  Lc  GUI_JPEG.o [4]
_DecodeBlockDC_RefineBanding
                        0x0803a40b    0x156  Code  Lc  GUI_JPEG.o [4]
_DecodeNextRow          0x0803bbf9    0x69a  Code  Lc  GUI_JPEG.o [4]
_DecodeProgressive      0x0803b1b5    0x2de  Code  Lc  GUI_JPEG.o [4]
_DecodeScanProg         0x0803a9d9    0x22a  Code  Lc  GUI_JPEG.o [4]
_DeleteWindows          0x2003f8e8      0x4  Data  Lc  WM.o [4]
_Delim                  0x20013918      0x1  Data  Lc  CHOOSEFILE.o [4]
_Descend                0x0808000f     0xdc  Code  Lc  games_win.o [1]
_Desfunc                0x080785f1    0x1b2  Code  Lc  GUIVNC_DES.o [4]
_DispLine               0x0805e83b     0x66  Code  Lc  GUI_CharLine.o [4]
_DoColorConversion      0x08067f7b     0x8c  Code  Lc  GUI_SPRITE.o [4]
_DoDirection            0x0807fd75     0x32  Code  Lc  games_win.o [1]
_Draw                   0x0803d52d    0x3e0  Code  Lc  GUI_JPEG.o [4]
_Draw                   0x08074295    0x128  Code  Lc  GUI_JPEG_DrawScaled.o [4]
_DrawAPICopy            0x2003fbf8      0x8  Data  Lc  GUIAA_Lib.o [4]
_DrawBackground         0x08090bad    0x152  Code  Lc  DROPDOWN_SkinFlex.o [4]
_DrawBackground         0x08090629     0x74  Code  Lc  HEADER_SkinFlex.o [4]
_DrawBackgroundH        0x0808f2b5     0x5e  Code  Lc  SCROLLBAR_SkinFlex.o [4]
_DrawBackgroundV        0x0808f255     0x60  Code  Lc  SCROLLBAR_SkinFlex.o [4]
_DrawBanding            0x0803d201    0x32c  Code  Lc  GUI_JPEG.o [4]
_DrawBitLine1BPP        0x0807f2d5     0xee  Code  Lc  GUIDRV_Lin_16.o [4]
_DrawBitLine1BPP        0x0808208d    0x102  Code  Lc  GUIDRV_Lin_32.o [4]
_DrawBitLine1BPP        0x080853fd    0x124  Code  Lc  GUIDEV_32.o [4]
_DrawBitLine1BPP        0x08085d7d    0x154  Code  Lc  GUIDEV_16.o [4]
_DrawBitLine2BPP        0x0807f3c5    0x148  Code  Lc  GUIDRV_Lin_16.o [4]
_DrawBitLine2BPP        0x08082191     0x9c  Code  Lc  GUIDRV_Lin_32.o [4]
_DrawBitLine2BPP        0x08085521     0xec  Code  Lc  GUIDEV_32.o [4]
_DrawBitLine2BPP        0x08085ed1     0xec  Code  Lc  GUIDEV_16.o [4]
_DrawBitLine32BPP_DDB   0x08085339     0x82  Code  Lc  GUIDEV_32.o [4]
_DrawBitLine4BPP        0x0807f50d    0x148  Code  Lc  GUIDRV_Lin_16.o [4]
_DrawBitLine4BPP        0x0808222d     0x9c  Code  Lc  GUIDRV_Lin_32.o [4]
_DrawBitLine4BPP        0x0808560d    0x16c  Code  Lc  GUIDEV_32.o [4]
_DrawBitLine4BPP        0x08085fbd    0x16c  Code  Lc  GUIDEV_16.o [4]
_DrawBitLine8BPP        0x0807f655    0x1b4  Code  Lc  GUIDRV_Lin_16.o [4]
_DrawBitLine8BPP        0x080822c9    0x1b4  Code  Lc  GUIDRV_Lin_32.o [4]
_DrawBitmap             0x0809185d    0x17a  Code  Lc  GUI_DrawBitmap_24.o [4]
_DrawBitmap             0x0808fddd    0x2f0  Code  Lc  GUI_DrawBitmap_8888.o [4]
_DrawBitmap             0x08056707      0x4  Code  Lc  ST_AnimatedIconView.o [3]
_DrawBitmap             0x0807f809    0x186  Code  Lc  GUIDRV_Lin_16.o [4]
_DrawBitmap             0x0808247d    0x182  Code  Lc  GUIDRV_Lin_32.o [4]
_DrawBitmap             0x08085779    0x298  Code  Lc  GUIDEV_32.o [4]
_DrawBitmap             0x08086129    0x2c0  Code  Lc  GUIDEV_16.o [4]
_DrawBitmap             0x08064d85     0x34  Code  Lc  GUI_DRAW_BITMAP.o [4]
_DrawBitmap             0x0809069d     0x9c  Code  Lc  HEADER_SkinFlex.o [4]
_DrawBitmap             0x08066475    0x3c4  Code  Lc  GUI_SPRITE.o [4]
_DrawBitmapHW_8888      0x080900e9     0xda  Code  Lc  GUI_DrawBitmap_8888.o [4]
_DrawBitmap_8888        0x080900cd     0x1c  Code  Lc  GUI_DrawBitmap_8888.o [4]
_DrawCharAA4_NoTrans    0x08092297     0x8e  Code  Lc  GUIAA_Char4.o [4]
_DrawCharAA4_Trans      0x0809222d     0x6a  Code  Lc  GUIAA_Char4.o [4]
_DrawDown               0x0803e17b      0x2  Code  Lc  WIDGET_Effect_None.o [4]
_DrawDown               0x08092a0b     0x36  Code  Lc  WIDGET_Effect_Simple.o [4]
_DrawDownRect           0x0803e17f      0x2  Code  Lc  WIDGET_Effect_None.o [4]
_DrawDownRect           0x080929d9     0x32  Code  Lc  WIDGET_Effect_Simple.o [4]
_DrawDualText           0x08056039     0xf6  Code  Lc  ST_AnimatedIconView.o [3]
_DrawFlat               0x0803e183      0x2  Code  Lc  WIDGET_Effect_None.o [4]
_DrawFrame              0x0808f15d     0xf8  Code  Lc  SCROLLBAR_SkinFlex.o [4]
_DrawFromDataBlock      0x0806b69d    0x1c6  Code  Lc  GUI_GIF.o [4]
_DrawGraspH             0x0808f313     0x5e  Code  Lc  SCROLLBAR_SkinFlex.o [4]
_DrawGraspV             0x0808f371     0x5e  Code  Lc  SCROLLBAR_SkinFlex.o [4]
_DrawHLine              0x0807f2b5      0xe  Code  Lc  GUIDRV_Lin_16.o [4]
_DrawHLine              0x0808206d      0xe  Code  Lc  GUIDRV_Lin_32.o [4]
_DrawHLine              0x080570f1    0x13e  Code  Lc  GUIAA_Lib.o [4]
_DrawHLine              0x08085abf      0xe  Code  Lc  GUIDEV_32.o [4]
_DrawHLine              0x08086491      0xe  Code  Lc  GUIDEV_16.o [4]
_DrawHLine              0x08066851    0x1cc  Code  Lc  GUI_SPRITE.o [4]
_DrawImageAt            0x0806a541     0x24  Code  Lc  IMAGE_Bitmap.o [4]
_DrawImageAt            0x0806a3a1     0x3e  Code  Lc  IMAGE_GIF.o [4]
_DrawRoundedRect        0x0808dd4d    0x2fe  Code  Lc  GUIAA_DrawRoundedRect.o [4]
_DrawScanlineScaled     0x08073f35     0xba  Code  Lc  GUI_JPEG_DrawScaled.o [4]
_DrawScanlinesScaledAtOnce
                        0x08073fef     0xd8  Code  Lc  GUI_JPEG_DrawScaled.o [4]
_DrawScanlinesScaledBanding
                        0x080740c7    0x1ce  Code  Lc  GUI_JPEG_DrawScaled.o [4]
_DrawShaftH             0x0808ea0d     0x82  Code  Lc  SLIDER_SkinFlex.o [4]
_DrawShaftV             0x0808ea8f     0x7e  Code  Lc  SLIDER_SkinFlex.o [4]
_DrawText               0x08056021     0x18  Code  Lc  ST_AnimatedIconView.o [3]
_DrawText               0x08090739     0xa6  Code  Lc  HEADER_SkinFlex.o [4]
_DrawThumbH             0x0808eb0d    0x10e  Code  Lc  SLIDER_SkinFlex.o [4]
_DrawThumbV             0x0808ec1b    0x10a  Code  Lc  SLIDER_SkinFlex.o [4]
_DrawTwinArc2           0x0808e369    0x18c  Code  Lc  GUI__DrawTwinArc.o [4]
_DrawTwinArc4           0x0808e16d    0x1fa  Code  Lc  GUI__DrawTwinArc.o [4]
_DrawUp                 0x0803e17d      0x2  Code  Lc  WIDGET_Effect_None.o [4]
_DrawUp                 0x080929a3     0x36  Code  Lc  WIDGET_Effect_Simple.o [4]
_DrawUpRect             0x0803e181      0x2  Code  Lc  WIDGET_Effect_None.o [4]
_DrawUpRect             0x08092971     0x32  Code  Lc  WIDGET_Effect_Simple.o [4]
_DrawVLine              0x0807f2c3     0x10  Code  Lc  GUIDRV_Lin_16.o [4]
_DrawVLine              0x0808207b     0x10  Code  Lc  GUIDRV_Lin_32.o [4]
_DrawVLine              0x08085acd     0xaa  Code  Lc  GUIDEV_32.o [4]
_DrawVLine              0x0808649f     0xaa  Code  Lc  GUIDEV_16.o [4]
_DrawVLine              0x08066a35    0x1ba  Code  Lc  GUI_SPRITE.o [4]
_EnableKeyboardInput    0x20012190      0x4  Data  Lc  GUIVNC_Process.o [4]
_Encode                 0x08093225      0x6  Code  Lc  GUI_UC_EncodeNone.o [4]
_EncodingSb_Mbtowc      0x0806611f     0x30  Code  Gb  xencoding_sb.o [5]
_EncodingSb_Wctomb      0x08066105     0x1a  Code  Gb  xencoding_sb.o [5]
_EnlargeBlocks          0x0803e513     0xbe  Code  Lc  GUI_Alloc.o [4]
_EqualizeTextButtonSizeX
                        0x08054aeb    0x154  Code  Lc  CHOOSEFILE.o [4]
_Eval                   0x0807ffb1     0x56  Code  Lc  games_win.o [1]
_FillByte               0x20013ed8      0x1  Data  Lc  GUIDEV_StaticDevices.o [4]
_FillCircle             0x0804efd5    0x10a  Code  Lc  GUIAA_Circle.o [4]
_FillEllipse            0x0804f0e1     0xda  Code  Lc  GUIAA_Circle.o [4]
_FillInputBuffer        0x08038125     0x3c  Code  Lc  GUI_JPEG.o [4]
_FillRect               0x0807f287     0x2e  Code  Lc  GUIDRV_Lin_16.o [4]
_FillRect               0x0808203f     0x2e  Code  Lc  GUIDRV_Lin_32.o [4]
_FillRect               0x08085a11     0xae  Code  Lc  GUIDEV_32.o [4]
_FillRect               0x080863e9     0xa8  Code  Lc  GUIDEV_16.o [4]
_FillRect               0x08066c09    0x202  Code  Lc  GUI_SPRITE.o [4]
_FillRectOpt16          0x0807efd9    0x25a  Code  Lc  GUIDRV_Lin_16.o [4]
_FillRectOpt32          0x08081edd    0x10e  Code  Lc  GUIDRV_Lin_32.o [4]
_FillRoundedRect        0x08069821    0x140  Code  Lc  GUIAA_FillRoundedRect.o [4]
_FillTrans              0x20013ec4      0x4  Data  Lc  GUI_GIF.o [4]
_FindNext_IVR           0x0803f9bd    0x34c  Code  Lc  WM.o [4]
_Findx0                 0x0803f481     0x84  Code  Lc  WM.o [4]
_Findx1                 0x0803f505     0x78  Code  Lc  WM.o [4]
_Findy1                 0x0803f3d3     0xae  Code  Lc  WM.o [4]
_FlushBuffer            0x080670e9     0x6c  Code  Lc  GUI_SPRITE.o [4]
_FlushLine              0x08056ffd     0xf2  Code  Lc  GUIAA_Lib.o [4]
_Free                   0x0805cb5d     0x22  Code  Lc  LISTVIEW_SetSort.o [4]
_FreeAttached           0x08052715     0x90  Code  Lc  LISTVIEW.o [4]
_GL_FP_Cnt              0x2003fe84      0x4  Data  Lc  GUI_FillPolygon.o [4]
_GUI_USAGE_BM_Delete    0x0804343d      0x4  Code  Lc  GUIDEV_UsageBM.o [4]
_GameOver               0x2003fe30      0x4  Data  Lc  games_win.o [1]
_GenldFull              0x0805982f    0x24c  Code  Lc  xprintffull.o [5]
_GetBitsNoMarker        0x08038227    0x128  Code  Lc  GUI_JPEG.o [4]
_GetBlock               0x08072e81     0x98  Code  Lc  GUI_MOVIE.o [4]
_GetBlockOffset         0x08072e25     0x5c  Code  Lc  GUI_MOVIE.o [4]
_GetBorderSize          0x08091f75     0x3c  Code  Lc  FRAMEWIN_Skin.o [4]
_GetChallenge           0x0807610d     0x2c  Code  Lc  GUIVNC_Authentication.o [4]
_GetCharCode            0x08093219      0x4  Code  Lc  GUI_UC_EncodeNone.o [4]
_GetCharSize            0x0809321d      0x4  Code  Lc  GUI_UC_EncodeNone.o [4]
_GetCharWrap            0x08062895     0x2c  Code  Lc  GUI__Wrap.o [4]
_GetClipParam           0x08066355    0x11e  Code  Lc  GUI_SPRITE.o [4]
_GetClipRect            0x08066275     0xde  Code  Lc  GUI_SPRITE.o [4]
_GetContentsSizeX       0x080634a7     0xa2  Code  Lc  LISTBOX.o [4]
_GetData                0x08071a61     0x20  Code  Lc  video_player_win.o [1]
_GetDataBlock           0x0806b54d     0x62  Code  Lc  GUI_GIF.o [4]
_GetDevData             0x0807f9cd      0xc  Code  Lc  GUIDRV_Lin_16.o [4]
_GetDevData             0x0808263d      0xc  Code  Lc  GUIDRV_Lin_32.o [4]
_GetDevData             0x0806f8db      0x4  Code  Lc  GUIVNC_Process.o [4]
_GetDevData             0x08085c8d      0xe  Code  Lc  GUIDEV_32.o [4]
_GetDevData             0x0808665d      0xe  Code  Lc  GUIDEV_16.o [4]
_GetDevData             0x080670af      0x4  Code  Lc  GUI_SPRITE.o [4]
_GetDevFunc             0x0807fa69     0x98  Code  Lc  GUIDRV_Lin_16.o [4]
_GetDevFunc             0x080826d9     0x98  Code  Lc  GUIDRV_Lin_32.o [4]
_GetDevFunc             0x0806f8cf      0xc  Code  Lc  GUIVNC_Process.o [4]
_GetDevFunc             0x08085c9b      0xc  Code  Lc  GUIDEV_32.o [4]
_GetDevFunc             0x0808666b      0xc  Code  Lc  GUIDEV_16.o [4]
_GetDevFunc             0x080670bf     0x12  Code  Lc  GUI_SPRITE.o [4]
_GetDevProp             0x08040ad9     0x22  Code  Lc  LCD_GetEx.o [4]
_GetDevProp             0x0807f991     0x3c  Code  Lc  GUIDRV_Lin_16.o [4]
_GetDevProp             0x08082601     0x3c  Code  Lc  GUIDRV_Lin_32.o [4]
_GetDevProp             0x0806f8df      0x8  Code  Lc  GUIVNC_Process.o [4]
_GetDevProp             0x08085cb5      0xc  Code  Lc  GUIDEV_32.o [4]
_GetDevProp             0x08086691     0x10  Code  Lc  GUIDEV_16.o [4]
_GetDevProp             0x080670d1      0xc  Code  Lc  GUI_SPRITE.o [4]
_GetDeviceRect          0x08067155     0x40  Code  Lc  GUI_SPRITE.o [4]
_GetDialogItem          0x0804fc77     0x44  Code  Lc  WM_GetDialogItem.o [4]
_GetDialogItem          0x0805b1d1     0x52  Code  Lc  WM_GetScrollbar.o [4]
_GetDividerIndex        0x0805a221     0xaa  Code  Lc  HEADER.o [4]
_GetFiles               0x080545ad    0x26e  Code  Lc  CHOOSEFILE.o [4]
_GetImageDimension      0x0806b885     0x98  Code  Lc  GUI_GIF.o [4]
_GetImageSize           0x0806a565     0x22  Code  Lc  IMAGE_Bitmap.o [4]
_GetImageSize           0x0806a3df     0x2a  Code  Lc  IMAGE_GIF.o [4]
_GetImageSizes          0x080566fd      0xa  Code  Lc  ST_AnimatedIconView.o [3]
_GetIndexMask_0         0x08092b8f     0x4e  Code  Lc  GUICC_0.o [4]
_GetIndexMask_8888      0x080931cb      0x6  Code  Lc  GUICC_8888.o [4]
_GetIndexMask_M1555I    0x080925a5      0x6  Code  Lc  GUICC_M1555I.o [4]
_GetIndexMask_M8888I    0x08092a85      0x6  Code  Lc  GUICC_M8888I.o [4]
_GetItemFromPos         0x08063a07     0x78  Code  Lc  LISTBOX.o [4]
_GetItemIndex           0x0805a4c3     0x88  Code  Lc  HEADER.o [4]
_GetItemPosY            0x08063549     0xcc  Code  Lc  LISTBOX.o [4]
_GetItemSizeY           0x08063429     0x7e  Code  Lc  LISTBOX.o [4]
_GetMovieHeader         0x08072dd9     0x4c  Code  Lc  GUI_MOVIE.o [4]
_GetNextCode            0x0806b5af     0xae  Code  Lc  GUI_GIF.o [4]
_GetNumVisItems         0x08063615     0x60  Code  Lc  LISTBOX.o [4]
_GetNumVisibleRows      0x080520bd     0x44  Code  Lc  LISTVIEW.o [4]
_GetPixelIndex          0x0807f245     0x10  Code  Lc  GUIDRV_Lin_16.o [4]
_GetPixelIndex          0x08081ffd     0x10  Code  Lc  GUIDRV_Lin_32.o [4]
_GetPixelIndex          0x08085c11     0x3e  Code  Lc  GUIDEV_32.o [4]
_GetPixelIndex          0x080865e1     0x3e  Code  Lc  GUIDEV_16.o [4]
_GetPixelIndex          0x08066e25     0x94  Code  Lc  GUI_SPRITE.o [4]
_GetPos                 0x0807ec79     0x2a  Code  Lc  GUIDRV_Lin_16.o [4]
_GetPos                 0x08081b93     0x2a  Code  Lc  GUIDRV_Lin_32.o [4]
_GetRect                0x0807ec15     0x16  Code  Lc  GUIDRV_Lin_16.o [4]
_GetRect                0x08081b39     0x16  Code  Lc  GUIDRV_Lin_32.o [4]
_GetRect                0x08085c4f     0x3e  Code  Lc  GUIDEV_32.o [4]
_GetRect                0x0808661f     0x3e  Code  Lc  GUIDEV_16.o [4]
_GetRect                0x080670dd      0xc  Code  Lc  GUI_SPRITE.o [4]
_GetRelRectFromIndex    0x08055879     0xf0  Code  Lc  ST_AnimatedIconView.o [3]
_GetResponse            0x08076139     0x32  Code  Lc  GUIVNC_Authentication.o [4]
_GetSOF                 0x08038351    0x11e  Code  Lc  GUI_JPEG.o [4]
_GetSOS                 0x0803846f    0x17c  Code  Lc  GUI_JPEG.o [4]
_GetSelUnsorted         0x0805cb7f     0x42  Code  Lc  LISTVIEW_SetSort.o [4]
_GetSizeAndColorTable   0x0806b91d    0x114  Code  Lc  GUI_GIF.o [4]
_GetStone               0x0807fbe7     0x1a  Code  Lc  games_win.o [1]
_GetStuff               0x08038195     0x24  Code  Lc  GUI_JPEG.o [4]
_GetTaskNo              0x08041519     0x36  Code  Lc  GUI_Task.o [4]
_GetU8                  0x08038161     0x34  Code  Lc  GUI_JPEG.o [4]
_GetU8_NoMarker         0x080381b9     0x6e  Code  Lc  GUI_JPEG.o [4]
_GetValue               0x0806bafb     0x78  Code  Lc  GUI_GIF.o [4]
_GetWordWrap            0x08062825     0x70  Code  Lc  GUI__Wrap.o [4]
_GetXSize               0x08064db9     0x18  Code  Lc  GUI_DRAW_BITMAP.o [4]
_GetYSize               0x08064dd1     0x18  Code  Lc  GUI_DRAW_BITMAP.o [4]
_HL_APIList             0x080418dc      0x8  Data  Lc  GUI_Core.o [4]
_HandlePID              0x08080381     0xaa  Code  Lc  games_win.o [1]
_HandlePID              0x0805a3c3    0x100  Code  Lc  HEADER.o [4]
_HuffDecode             0x0803895d    0x34c  Code  Lc  GUI_JPEG.o [4]
_IDCT                   0x0803b839    0x3b0  Code  Lc  GUI_JPEG.o [4]
_Index2ColorBulk        0x080931e1     0x10  Code  Lc  GUICC_8888.o [4]
_Index2ColorBulk_M1555I
                        0x080925f7     0x5e  Code  Lc  GUICC_M1555I.o [4]
_Index2ColorBulk_M8888I
                        0x08092acf     0x40  Code  Lc  GUICC_M8888I.o [4]
_Index2Color_0          0x08092b6d     0x22  Code  Lc  GUICC_0.o [4]
_Index2Color_M1555I     0x08092575     0x30  Code  Lc  GUICC_M1555I.o [4]
_Index2Color_M8888I     0x08092a65     0x20  Code  Lc  GUICC_M8888I.o [4]
_Init                   0x0807ed21     0x34  Code  Lc  GUIDRV_Lin_16.o [4]
_Init                   0x08081c31     0x34  Code  Lc  GUIDRV_Lin_32.o [4]
_InitFrame              0x0803b5a1    0x296  Code  Lc  GUI_JPEG.o [4]
_InitOnce               0x0803e5d1     0xf8  Code  Lc  GUI_Alloc.o [4]
_InitScan               0x0803af7d     0xe8  Code  Lc  GUI_JPEG.o [4]
_Invalidate1Abs         0x0803eec7     0xac  Code  Lc  WM.o [4]
_InvalidateCell         0x0807fba5     0x42  Code  Lc  games_win.o [1]
_IsInited               0x2003f8b1      0x1  Data  Lc  WM.o [4]
_IsInitialized          0x200133d4      0x4  Data  Lc  GUI_Core.o [4]
_IsInitialized          0x2003ff24      0x4  Data  Lc  GUI_Timer.o [4]
_IsInitialized          0x2003fd68      0x4  Data  Lc  GUI_Curs1.o [4]
_IsInitialized          0x2003feb0      0x4  Data  Lc  GUI__Alpha.o [4]
_IsValidMove            0x0807fc25     0x24  Code  Lc  games_win.o [1]
_IsdstStr               0x200134f0      0x4  Data  Gb  setlocale.o [5]
_Key                    0x20013568      0x4  Data  Lc  GUI_OnKey.o [4]
_LdtobFull              0x0805942d    0x3fc  Code  Lc  xprintffull.o [5]
_LimitDragWitdh         0x0805a2cb     0xf8  Code  Lc  HEADER.o [4]
_Link                   0x08043d79     0x96  Code  Lc  GUI_Timer.o [4]
_ListenAtTcpAddr        0x080746c9     0x52  Code  Lc  vnc_app.o [1]
_LitobFull              0x08059325    0x106  Code  Lc  xprintffull.o [5]
_LoadNextRow            0x0803c351    0x356  Code  Lc  GUI_JPEG.o [4]
_LocaleEncoding         0x080660f1      0xe  Code  Gb  setlocale.o [5]
_LocaleReturnString     0x20013510     0x50  Data  Lc  setlocale.o [5]
_Locale_Profile         0x200134f4     0x1c  Data  Gb  setlocale.o [5]
_Locale_aeabi_lconv     0x200134b4     0x38  Data  Gb  localeconv.o [5]
_Locale_lconv           0x20013464     0x50  Data  Gb  localeconv.o [5]
_LockFrame              0x2001219c      0x4  Data  Lc  GUIVNC_Process.o [4]
_Log2VisBuffered        0x0805e839      0x2  Code  Lc  GUI_CharLine.o [4]
_MakeMove               0x0807fda7     0x7c  Code  Lc  games_win.o [1]
_MaxTask                0x20013c44      0x4  Data  Lc  GUI_Task.o [4]
_Mbtowc                 0x08060695     0x20  Code  Gb  xmbtowc.o [5]
_MoveBack               0x08054921     0xa0  Code  Lc  CHOOSEFILE.o [4]
_MoveDescendents        0x0805dae5     0x6c  Code  Lc  WM_Move.o [4]
_MoveSel                0x08051c19     0x3c  Code  Lc  LISTVIEW.o [4]
_MoveSel                0x08063a7f     0xea  Code  Lc  LISTBOX.o [4]
_MoveSelCol             0x08051c55     0x48  Code  Lc  LISTVIEW.o [4]
_NextDrawWin            0x2003f8e4      0x4  Data  Lc  WM.o [4]
_NextFrame              0x08072f55     0x46  Code  Lc  GUI_MOVIE.o [4]
_NextPixel_API          0x20013e08     0x10  Data  Lc  LCD_NextPixelAPI.o [4]
_NextPixel_End          0x080912a5     0x1e  Code  Lc  LCD_NextPixelAPI.o [4]
_NextPixel_FlushBuffer  0x080910a9     0x48  Code  Lc  LCD_NextPixelAPI.o [4]
_NextPixel_NextLine     0x0809128d     0x18  Code  Lc  LCD_NextPixelAPI.o [4]
_NextPixel_SetPixel     0x08091185    0x108  Code  Lc  LCD_NextPixelAPI.o [4]
_NextPixel_Start        0x080910f1     0x94  Code  Lc  LCD_NextPixelAPI.o [4]
_NumColors              0x20013e18      0x4  Data  Lc  LCD_Color.o [4]
_NumRects               0x200121a0      0x4  Data  Lc  GUIVNC_Process.o [4]
_Off                    0x0807ed5f      0xa  Code  Lc  GUIDRV_Lin_16.o [4]
_Off                    0x08081c6f      0xa  Code  Lc  GUIDRV_Lin_32.o [4]
_On                     0x0807ed55      0xa  Code  Lc  GUIDRV_Lin_16.o [4]
_On                     0x08081c65      0xa  Code  Lc  GUIDRV_Lin_32.o [4]
_OnExit                 0x080416d5     0x24  Code  Lc  GUI_Core.o [4]
_OnExit                 0x0804090d     0x1e  Code  Lc  WM.o [4]
_OnExit                 0x0803e4e1     0x32  Code  Lc  GUI_Alloc.o [4]
_OnExit                 0x0804154f     0x10  Code  Lc  GUI_Task.o [4]
_OnExit                 0x0805726f     0x10  Code  Lc  GUIAA_Lib.o [4]
_OnExit                 0x080428cd     0x10  Code  Lc  LCD_Color.o [4]
_OnExit                 0x08043e6f      0xc  Code  Lc  GUI_Timer.o [4]
_OnExit                 0x08062549      0xe  Code  Lc  GUI_Curs1.o [4]
_OnExit                 0x0806a69d     0x26  Code  Lc  GUI__Alpha.o [4]
_OnKey                  0x08055e21     0xc8  Code  Lc  ST_AnimatedIconView.o [3]
_OnOk                   0x080549c1     0xe0  Code  Lc  CHOOSEFILE.o [4]
_OnPage                 0x08051c9d     0x6c  Code  Lc  LISTVIEW.o [4]
_OnPaint                0x08080435    0x122  Code  Lc  games_win.o [1]
_OnPaint                0x08052101    0x4cc  Code  Lc  LISTVIEW.o [4]
_OnPaint                0x08055a9f    0x324  Code  Lc  ST_AnimatedIconView.o [3]
_OnPaint                0x0806385f    0x116  Code  Lc  LISTBOX.o [4]
_OnPidStateChange       0x08055ee9    0x138  Code  Lc  ST_AnimatedIconView.o [3]
_OnTimer                0x08072f9d    0x16c  Code  Lc  GUI_MOVIE.o [4]
_OnTouch                0x0804f8c9     0xc6  Code  Lc  SLIDER.o [4]
_OnTouch                0x08068201    0x27a  Code  Lc  SCROLLBAR.o [4]
_OnTouchDefault         0x0804ec21     0x9e  Code  Lc  BUTTON.o [4]
_Paint                  0x08053de9    0x114  Code  Lc  STSLIDER_SKIN.o [3]
_Paint                  0x0806c691     0x28  Code  Lc  IMAGE.o [4]
_Paint                  0x08069a45     0x7a  Code  Lc  BUTTON_Skin.o [4]
_Paint                  0x08069b15     0x6c  Code  Lc  DROPDOWN_Skin.o [4]
_Paint                  0x08069eb1    0x312  Code  Lc  STHEADER_Skin.o [3]
_Paint                  0x08069d2d    0x120  Code  Lc  STSCROLLBAR_Skin.o [3]
_Paint                  0x08091301    0x1e8  Code  Lc  SLIDER_Skin.o [4]
_Paint                  0x08091e4d    0x100  Code  Lc  FRAMEWIN_Skin.o [4]
_Paint                  0x080920f1    0x116  Code  Lc  HEADER_Skin.o [4]
_Paint                  0x08090fa1     0xc2  Code  Lc  SCROLLBAR_Skin.o [4]
_PaintTiled             0x0806c6b9     0xdc  Code  Lc  IMAGE.o [4]
_PaintTransChildren     0x08040101    0x148  Code  Lc  WM.o [4]
_PalImageButtonUp       0x0809266c      0xc  Data  Lc  CHOOSEFILE.o [4]
_PalImageCancel         0x08092734      0xc  Data  Lc  CHOOSEFILE.o [4]
_PalImageOK_Disabled    0x080926dc      0xc  Data  Lc  CHOOSEFILE.o [4]
_PalImageOK_Enabled     0x080926d0      0xc  Data  Lc  CHOOSEFILE.o [4]
_Palback                0x0801d27c      0xc  Data  Lc  audio_player_win.o [1]
_Palback                0x0804c1b4      0xc  Data  Lc  video_player_win.o [1]
_Palbackward            0x0801d538      0xc  Data  Lc  audio_player_win.o [1]
_Palbackward_des        0x0801d7f4      0xc  Data  Lc  audio_player_win.o [1]
_Palfore                0x0801d308      0xc  Data  Lc  audio_player_win.o [1]
_Palfore                0x0804c240      0xc  Data  Lc  video_player_win.o [1]
_Palforeward            0x0801d5c4      0xc  Data  Lc  audio_player_win.o [1]
_Palforeward_des        0x0801d880      0xc  Data  Lc  audio_player_win.o [1]
_Palpause               0x0801d420      0xc  Data  Lc  audio_player_win.o [1]
_Palpause               0x0808a88c      0xc  Data  Lc  audio_recorder_win.o [1]
_Palpause_des           0x0801d6dc      0xc  Data  Lc  audio_player_win.o [1]
_Palpause_des           0x0808aa44      0xc  Data  Lc  audio_recorder_win.o [1]
_Palpause_pressed       0x0801d164      0xc  Data  Lc  audio_player_win.o [1]
_Palpause_pressed       0x0808a5f8      0xc  Data  Lc  audio_recorder_win.o [1]
_Palpause_pressed       0x0804c09c      0xc  Data  Lc  video_player_win.o [1]
_Palplay                0x0801d394      0xc  Data  Lc  audio_player_win.o [1]
_Palplay                0x0808a7b0      0xc  Data  Lc  audio_recorder_win.o [1]
_Palplay_des            0x0801d650      0xc  Data  Lc  audio_player_win.o [1]
_Palplay_pressed        0x0801d0d8      0xc  Data  Lc  audio_player_win.o [1]
_Palplay_pressed        0x0808a51c      0xc  Data  Lc  audio_recorder_win.o [1]
_Palplay_pressed        0x0804c010      0xc  Data  Lc  video_player_win.o [1]
_Palplay_unpressed      0x0808fa74      0xc  Data  Lc  vnc_server_win.o [1]
_Palstop                0x0801d4ac      0xc  Data  Lc  audio_player_win.o [1]
_Palstop                0x0808a968      0xc  Data  Lc  audio_recorder_win.o [1]
_Palstop_des            0x0801d768      0xc  Data  Lc  audio_player_win.o [1]
_Palstop_des            0x0808ab20      0xc  Data  Lc  audio_recorder_win.o [1]
_Palstop_pressed        0x0801d1f0      0xc  Data  Lc  audio_player_win.o [1]
_Palstop_pressed        0x0808a6d4      0xc  Data  Lc  audio_recorder_win.o [1]
_Palstop_pressed        0x0804c128      0xc  Data  Lc  video_player_win.o [1]
_Palvnc_play_pressed    0x0808fb50      0xc  Data  Lc  vnc_server_win.o [1]
_Palvnc_stop            0x0808fd08      0xc  Data  Lc  vnc_server_win.o [1]
_Palvnc_stop_pressed    0x0808fc2c      0xc  Data  Lc  vnc_server_win.o [1]
_PeriodFirst            0x2001399c      0x4  Data  Lc  WM_ToolTip.o [4]
_PeriodNext             0x200139a4      0x4  Data  Lc  WM_ToolTip.o [4]
_PeriodShow             0x200139a0      0x4  Data  Lc  WM_ToolTip.o [4]
_PlayFile               0x0804cab1     0x84  Code  Lc  audio_player_win.o [1]
_PlayerAI_SmartGecko    0x080800eb     0x8c  Code  Lc  games_win.o [1]
_PrintfFull             0x08058971    0x61e  Code  Gb  xprintffull.o [5]
_ProcessRestart         0x08038ec5     0xb2  Code  Lc  GUI_JPEG.o [4]
_ProcessVNC             0x0806e6cd    0xc0a  Code  Lc  GUIVNC_Process.o [4]
_Props                  0x20013c70     0x1c  Data  Lc  HEADER_SkinFlex.o [4]
_PropsActive            0x200136ec     0x2c  Data  Lc  FRAMEWIN_SkinFlex.o [4]
_PropsDisabled          0x20013be0     0x20  Data  Lc  BUTTON_SkinFlex.o [4]
_PropsDisabled          0x20013aec     0x2c  Data  Lc  DROPDOWN_SkinFlex.o [4]
_PropsEnabled           0x20013bc0     0x20  Data  Lc  BUTTON_SkinFlex.o [4]
_PropsEnabled           0x20013ac0     0x2c  Data  Lc  DROPDOWN_SkinFlex.o [4]
_PropsFocussed          0x20013ba0     0x20  Data  Lc  BUTTON_SkinFlex.o [4]
_PropsFocussed          0x20013a94     0x2c  Data  Lc  DROPDOWN_SkinFlex.o [4]
_PropsInactive          0x20013718     0x2c  Data  Lc  FRAMEWIN_SkinFlex.o [4]
_PropsOpen              0x20013a68     0x2c  Data  Lc  DROPDOWN_SkinFlex.o [4]
_PropsPressed           0x20013b80     0x20  Data  Lc  BUTTON_SkinFlex.o [4]
_PropsPressed           0x20013694     0x2c  Data  Lc  SLIDER_SkinFlex.o [4]
_PropsPressed           0x20013770     0x2c  Data  Lc  SCROLLBAR_SkinFlex.o [4]
_PropsUnpressed         0x200136c0     0x2c  Data  Lc  SLIDER_SkinFlex.o [4]
_PropsUnpressed         0x20013744     0x2c  Data  Lc  SCROLLBAR_SkinFlex.o [4]
_PutcharsFull           0x08059a7b     0x2e  Code  Lc  xprintffull.o [5]
_PutstrFull             0x08059013    0x30c  Code  Lc  xprintffull.o [5]
_Rand_idx               0x200133e0      0x4  Data  Lc  rand.o [5]
_Rand_rv                0x200133e4     0x80  Data  Lc  rand.o [5]
_Randinit               0x200133d8      0x1  Data  Gb  rand.o [5]
_Randseed               0x200133dc      0x4  Data  Gb  rand.o [5]
_ReadMarkers            0x080385ed    0x370  Code  Lc  GUI_JPEG.o [4]
_ReadRect               0x0807f9d9     0x3e  Code  Lc  GUIDRV_Lin_16.o [4]
_ReadRect               0x08082649     0x3e  Code  Lc  GUIDRV_Lin_32.o [4]
_ReadRect               0x0806f86b     0x64  Code  Lc  GUIVNC_Process.o [4]
_Recv                   0x080746b3     0x16  Code  Lc  vnc_app.o [1]
_RemoveFreeBlock        0x0803e185     0x3e  Code  Lc  GUI_Alloc.o [4]
_RingBell               0x20012198      0x4  Data  Lc  GUIVNC_Process.o [4]
_SProut                 0x0803ec17      0xa  Code  Gb  xsprout.o [5]
_Screen2hWin            0x08063135     0x88  Code  Lc  WM_Screen2Win.o [4]
_SelectDirectory        0x08054825     0xf2  Code  Lc  CHOOSEFILE.o [4]
_SelectEntry            0x08054aa1     0x4a  Code  Lc  CHOOSEFILE.o [4]
_Send                   0x0807469d     0x16  Code  Lc  vnc_app.o [1]
_SendFrame              0x0806e221    0x3f2  Code  Lc  GUIVNC_Process.o [4]
_SendTile               0x0806dcf1    0x50e  Code  Lc  GUIVNC_Process.o [4]
_SetAlpha               0x0807eca3     0x3a  Code  Lc  GUIDRV_Lin_16.o [4]
_SetAlpha               0x08081bbd     0x3a  Code  Lc  GUIDRV_Lin_32.o [4]
_SetAlphaMode           0x0807ed69     0x14  Code  Lc  GUIDRV_Lin_16.o [4]
_SetAlphaMode           0x08081c79     0x14  Code  Lc  GUIDRV_Lin_32.o [4]
_SetBkColor             0x08040d65     0x30  Code  Lc  LCD.o [4]
_SetChroma              0x0807ed91     0x22  Code  Lc  GUIDRV_Lin_16.o [4]
_SetChroma              0x08081ca1     0x22  Code  Lc  GUIDRV_Lin_32.o [4]
_SetChromaMode          0x0807ed7d     0x14  Code  Lc  GUIDRV_Lin_16.o [4]
_SetChromaMode          0x08081c8d     0x14  Code  Lc  GUIDRV_Lin_32.o [4]
_SetClipRectUserIntersect
                        0x0803ecf9     0x58  Code  Lc  WM.o [4]
_SetColor               0x08040d95     0x30  Code  Lc  LCD.o [4]
_SetColorAPI            0x0809351c      0xc  Data  Lc  LCD.o [4]
_SetDevFunc             0x0807fa17     0x52  Code  Lc  GUIDRV_Lin_16.o [4]
_SetDevFunc             0x08082687     0x52  Code  Lc  GUIDRV_Lin_32.o [4]
_SetDrawMode            0x08040dc5     0x26  Code  Lc  LCD.o [4]
_SetLineColor           0x08073491     0x88  Code  Lc  GUI_DrawLine.o [4]
_SetOrg                 0x0807ee59     0xb6  Code  Lc  GUIDRV_Lin_16.o [4]
_SetOrg                 0x08081d5d     0xb6  Code  Lc  GUIDRV_Lin_32.o [4]
_SetOrg                 0x08085cc1      0x8  Code  Lc  GUIDEV_32.o [4]
_SetOrg                 0x08086685      0xc  Code  Lc  GUIDEV_16.o [4]
_SetOrg                 0x080670b3      0xc  Code  Lc  GUI_SPRITE.o [4]
_SetPixelIndex          0x0807f233     0x12  Code  Lc  GUIDRV_Lin_16.o [4]
_SetPixelIndex          0x08081feb     0x12  Code  Lc  GUIDRV_Lin_32.o [4]
_SetPixelIndex          0x08085b77     0x46  Code  Lc  GUIDEV_32.o [4]
_SetPixelIndex          0x08086549     0x46  Code  Lc  GUIDEV_16.o [4]
_SetPixelIndex          0x08066eb9     0xee  Code  Lc  GUI_SPRITE.o [4]
_SetPlayer              0x08080295     0xae  Code  Lc  games_win.o [1]
_SetPos                 0x0807ec2b     0x44  Code  Lc  GUIDRV_Lin_16.o [4]
_SetPos                 0x08081b4f     0x44  Code  Lc  GUIDRV_Lin_32.o [4]
_SetPosition            0x08067371    0x7d2  Code  Lc  GUI_SPRITE.o [4]
_SetScrollbar           0x0805afb5     0x58  Code  Lc  WM_SetScrollbar.o [4]
_SetSel                 0x08055dc3     0x5c  Code  Lc  ST_AnimatedIconView.o [3]
_SetSelFromPos          0x080525cd    0x148  Code  Lc  LISTVIEW.o [4]
_SetSelUnsorted         0x0805cbc1     0x8c  Code  Lc  LISTVIEW_SetSort.o [4]
_SetSize                0x0807ef83     0x56  Code  Lc  GUIDRV_Lin_16.o [4]
_SetSize                0x08081e87     0x56  Code  Lc  GUIDRV_Lin_32.o [4]
_SetStone               0x0807fc01     0x24  Code  Lc  games_win.o [1]
_SetVRAMAddr            0x0807ef0f     0x3c  Code  Lc  GUIDRV_Lin_16.o [4]
_SetVRAMAddr            0x08081e13     0x3c  Code  Lc  GUIDRV_Lin_32.o [4]
_SetVSize               0x0807ef4b     0x38  Code  Lc  GUIDRV_Lin_16.o [4]
_SetVSize               0x08081e4f     0x38  Code  Lc  GUIDRV_Lin_32.o [4]
_SetVis                 0x0807ece1     0x3a  Code  Lc  GUIDRV_Lin_16.o [4]
_SetVis                 0x08081bf7     0x3a  Code  Lc  GUIDRV_Lin_32.o [4]
_Show                   0x08062557     0x34  Code  Lc  GUI_Curs1.o [4]
_ShowBuffer             0x0807ee1f     0x38  Code  Lc  GUIDRV_Lin_16.o [4]
_ShowBuffer             0x08081d25     0x38  Code  Lc  GUIDRV_Lin_32.o [4]
_ShowMessageBox         0x0808019d     0xe2  Code  Lc  games_win.o [1]
_SkinPrivate            0x20013dd4      0x8  Data  Lc  FRAMEWIN_Skin.o [4]
_Sock                   0x2004006c      0x4  Data  Gb  vnc_app.o [1]
_Sort                   0x0805cc4d    0x2b2  Code  Lc  LISTVIEW_SetSort.o [4]
_SpriteDraw             0x08067b4d    0x42e  Code  Lc  GUI_SPRITE.o [4]
_Sprite_API             0x080681cc     0x34  Data  Lc  GUI_SPRITE.o [4]
_StartNewGame           0x0808034b     0x36  Code  Lc  games_win.o [1]
_StartPlay              0x0807254b    0x178  Code  Lc  video_player_win.o [1]
_StartTimer             0x0806a323     0x7e  Code  Lc  IMAGE_GIF.o [4]
_State                  0x2003ffe8      0xc  Data  Lc  GUI_TOUCH.o [4]
_State                  0x2003fff4      0xc  Data  Lc  GUI_MOUSE.o [4]
_StopMovie              0x08072f19     0x3c  Code  Lc  GUI_MOVIE.o [4]
_StopPlay               0x0807273d     0x32  Code  Lc  video_player_win.o [1]
_StorePixel             0x0806dbb5     0x5a  Code  Lc  GUIVNC_Process.o [4]
_SuppressMixing         0x2003fe78      0x4  Data  Lc  GUI_SetAlpha.o [4]
_TaskIDLock             0x20013c40      0x4  Data  Lc  GUI_Task.o [4]
_TestRAM                0x0803e269    0x278  Code  Lc  GUI_Alloc.o [4]
_ToggleMultiSel         0x08063975     0x92  Code  Lc  LISTBOX.o [4]
_TzoneStr               0x200134ec      0x4  Data  Gb  setlocale.o [5]
_U32ToString            0x080544dd     0xce  Code  Lc  CHOOSEFILE.o [4]
_Undraw                 0x08067199    0x1d0  Code  Lc  GUI_SPRITE.o [4]
_Unlink                 0x08043d2d     0x4c  Code  Lc  GUI_Timer.o [4]
_UpdateScrollPos        0x08051d09     0x68  Code  Lc  LISTVIEW.o [4]
_UpdateScrollPos        0x08063675     0xd2  Code  Lc  LISTBOX.o [4]
_UseSingleFrame         0x2003fe20      0x4  Data  Lc  GUI_MULTIBUF.o [4]
_VNC_API                0x0806fa68     0x34  Data  Gb  GUIVNC_Process.o [4]
_VNC_DrawBitmap         0x0806f309    0x118  Code  Lc  GUIVNC_Process.o [4]
_VNC_DrawHLine          0x0806f425     0xda  Code  Lc  GUIVNC_Process.o [4]
_VNC_DrawVLine          0x0806f505     0xda  Code  Lc  GUIVNC_Process.o [4]
_VNC_FillRect           0x0806f5df     0xe2  Code  Lc  GUIVNC_Process.o [4]
_VNC_GetPixelIndex      0x0806f8e7      0x8  Code  Lc  GUIVNC_Process.o [4]
_VNC_GetRect            0x0806f8ef      0x8  Code  Lc  GUIVNC_Process.o [4]
_VNC_SetOrg             0x0806e613     0xb6  Code  Lc  GUIVNC_Process.o [4]
_VNC_SetPixelIndex      0x0806f6c1     0xd8  Code  Lc  GUIVNC_Process.o [4]
_VNC_XorPixel           0x0806f799     0xd2  Code  Lc  GUIVNC_Process.o [4]
_VXSizeMax              0x2003feac      0x4  Data  Lc  GUI__Alpha.o [4]
_Wctomb                 0x08061c09     0x1a  Code  Gb  xwctomb.o [5]
_Write                  0x0806db79     0x3c  Code  Lc  GUIVNC_Process.o [4]
_WritePixels            0x0803b493     0x52  Code  Lc  GUI_JPEG.o [4]
_WritePixelsOptRGB16    0x0803b541     0x5c  Code  Lc  GUI_JPEG.o [4]
_WritePixelsOptRGB32    0x0803b4e5     0x5c  Code  Lc  GUI_JPEG.o [4]
_WriteToActiveOpaque_8  0x0804357d    0x402  Code  Lc  GUIDEV_WriteToActiveOpaque.o [4]
_WriteToActiveOpaque_HT
                        0x08043981    0x312  Code  Lc  GUIDEV_WriteToActiveOpaque.o [4]
_XY2PTR                 0x080853bb     0x40  Code  Lc  GUIDEV_32.o [4]
_XY2PTR                 0x08085d3d     0x40  Code  Lc  GUIDEV_16.o [4]
_XorPixel               0x0807f255     0x32  Code  Lc  GUIDRV_Lin_16.o [4]
_XorPixel               0x0808200d     0x32  Code  Lc  GUIDRV_Lin_32.o [4]
_XorPixel               0x08085bbd     0x54  Code  Lc  GUIDEV_32.o [4]
_XorPixel               0x0808658f     0x52  Code  Lc  GUIDEV_16.o [4]
_XorPixel               0x08066fa7    0x108  Code  Lc  GUI_SPRITE.o [4]
__aeabi_cdcmple         0x08061d55           Code  Gb  DblCmpLe.o [8]
__aeabi_cdrcmple        0x08061d85           Code  Gb  DblCmpGe.o [8]
__aeabi_d2iz            0x08061ec9           Code  Gb  DblToI32.o [8]
__aeabi_d2uiz           0x08061ef5           Code  Gb  DblToI32.o [8]
__aeabi_ddiv            0x08062275           Code  Gb  DblDiv.o [8]
__aeabi_dmul            0x080620d1           Code  Gb  DblMul.o [8]
__aeabi_dsub            0x08061f51           Code  Gb  DblSub.o [8]
__aeabi_i2d             0x08061f21           Code  Gb  I32ToDbl.o [8]
__aeabi_ldiv0           0x08066199           Code  Gb  I64DivZer.o [9]
__aeabi_memclr          0x080416cd           Code  Gb  ABImemclr.o [9]
__aeabi_memclr4         0x0805b7d1           Code  Gb  ABImemclr4.o [9]
__aeabi_memset          0x08042acd           Code  Gb  ABImemset.o [9]
__aeabi_memset4         0x08046ea5           Code  Gb  ABImemset48.o [9]
__aeabi_memset8         0x08046ea5           Code  Gb  ABImemset48.o [9]
__aeabi_ui2d            0x08061f35           Code  Gb  I32ToDbl.o [8]
__aeabi_uldivmod        0x08061c25           Code  Gb  I64DivMod.o [9]
__cmain                 0x08093385           Code  Gb  cmain.o [9]
__data_GetMemChunk      0x0806616d     0x2c  Code  Gb  xgetmemchunk.o [5]
__exit                  0x0806a5d9           Code  Gb  XXexit.o [9]
__iar_Dnorm             0x08061d13     0x42  Code  Gb  xdnorm.o [8]
__iar_Dscale            0x08061db5    0x114  Code  Gb  xdscale.o [8]
__iar_Locale_lconv_init
                        0x080624cd     0x3a  Code  Gb  localeconv.o [5]
__iar_Mbcurmax          0x0806070d      0xa  Code  Gb  xmbcurmax.o [5]
__iar_Memchr            0x080606b5           Code  Gb  memchr.o [9]
__iar_Memset            0x08042acd           Code  Gb  ABImemset.o [9]
__iar_Memset4_word      0x08046ead           Code  Gb  ABImemset48.o [9]
__iar_Memset8_word      0x08046ead           Code  Gb  ABImemset48.o [9]
__iar_Memset_word       0x08042ad5           Code  Gb  ABImemset.o [9]
__iar_Strchr            0x0805a139           Code  Gb  strchr.o [9]
__iar_Strrchr           0x080569b1     0x18  Code  Gb  strrchr.o [5]
__iar_Strstr            0x08051b21     0x2c  Code  Gb  strstr.o [5]
__iar_d2uiz             0x08061f01           Code  Gb  DblToI32.o [8]
__iar_dadd              0x0806619d           Code  Gb  DblAdd.o [8]
__iar_data_init3        0x080931f1     0x28  Code  Gb  data_init.o [9]
__iar_dlfree            0x080616ef    0x510  Code  Gb  dlmalloc.o [5]
__iar_dlib_perthread_access
                        0x08066271      0x2  Code  Gb  xtls.o [5]
__iar_dlmalloc          0x08061439    0x2aa  Code  Gb  dlmalloc.o [5]
__iar_dsub              0x08061f65           Code  Gb  DblSub.o [8]
__iar_dsubStart         0x08061f77           Code  Gb  DblSub.o [8]
__iar_init_vfp          0x0809323d           Code  Gb  fpinit_M.o [8]
__iar_lz77_init3        0x0809156f    0x160  Code  Gb  lz77_init.o [9]
__iar_program_start     0x08093535           Code  Gb  cstartup_M.o [9]
__iar_ui2d              0x08061f39           Code  Gb  I32ToDbl.o [8]
__iar_unaligned___aeabi_memcpy
                        0x0803ec69           Code  Gb  ABImemcpy_unaligned.o [9]
__iar_unaligned___aeabi_memcpy4
                        0x0803ec89           Code  Gb  ABImemcpy_unaligned.o [9]
__iar_unaligned___aeabi_memcpy8
                        0x0803ec89           Code  Gb  ABImemcpy_unaligned.o [9]
__iar_unaligned___aeabi_memmove
                        0x080418e5           Code  Gb  ABImemmove_unaligned.o [9]
__iar_unaligned___aeabi_memmove4
                        0x080418e5           Code  Gb  ABImemmove_unaligned.o [9]
__iar_unaligned___aeabi_memmove8
                        0x080418e5           Code  Gb  ABImemmove_unaligned.o [9]
__iar_unaligned_memcmp  0x0806b45d           Code  Gb  memcmp_unaligned.o [9]
__iar_unaligned_strcmp  0x0805bf6d           Code  Gb  strcmp_unaligned.o [9]
__iar_unaligned_strcpy  0x08051b4d           Code  Gb  strcpy_unaligned.o [9]
__iar_unaligned_strncpy
                        0x08051bad           Code  Gb  strncpy_unaligned.o [9]
__iar_zero_init3        0x08093039     0x40  Code  Gb  zero_init3.o [9]
__low_level_init        0x0809339f      0x4  Code  Gb  low_level_init.o [5]
__vector_table          0x08000000           Data  Gb  startup_stm32f746xx.o [1]
_aAlpha                 0x2003fe6c      0x2  Data  Lc  GUI_SetAlpha.o [4]
_aAttrib                0x20012cb8     0x28  Data  Lc  k_storage.o [1]
_aBelongsToTask         0x08042874      0x8  Data  Lc  GUI_Device.o [4]
_aBoardStack            0x2003d424    0x528  Data  Lc  games_win.o [1]
_aBuffer                0x2003efd0    0x100  Data  Lc  GUI_GIF.o [4]
_aCSRect                0x200121c8    0x240  Data  Lc  GUIVNC_Process.o [4]
_aCoeffOrder            0x0803c6a8     0x50  Data  Lc  GUI_JPEG.o [4]
_aColor                 0x200400b0      0x4  Data  Lc  WIDGET_Effect_Simple.o [4]
_aColor                 0x0809342c      0xc  Data  Lc  GUI_CursorPal.o [4]
_aCursorContext         0x2003fd40     0x28  Data  Lc  GUI_Curs1.o [4]
_aCursorLayer           0x20040038      0x8  Data  Lc  GUI_SelectLayer.o [4]
_aDialog                0x08066048     0xa8  Data  Lc  audio_recorder_win.o [1]
_aDialog                0x0808f940     0xa8  Data  Lc  gardening_control_win.o [1]
_aDialog                0x08081a90     0xa8  Data  Lc  home_alarm_win.o [1]
_aDialog                0x0808dbfc    0x150  Data  Lc  settings_win.o [1]
_aDialog                0x0804c2c4     0x1c  Data  Lc  video_player_win.o [1]
_aDialog                0x08073ec4     0x70  Data  Lc  vnc_server_win.o [1]
_aDialogCreate          0x0804e390    0x118  Data  Lc  audio_player_win.o [1]
_aExtendOffset          0x0803c310     0x40  Data  Lc  GUI_JPEG.o [4]
_aExtendTest            0x0803c2d0     0x40  Data  Lc  GUI_JPEG.o [4]
_aFileErrorDialogCreate
                        0x08072ab4     0x70  Data  Lc  video_player_win.o [1]
_aFileInfoDialogCreate  0x08072a60     0x54  Data  Lc  video_player_win.o [1]
_aFlags                 0x200121a4     0x20  Data  Lc  GUIVNC_Process.o [4]
_aHWIndex               0x20011d88    0x400  Data  Lc  GUIVNC_Process.o [4]
_aID                    0x080866a0     0x40  Data  Lc  GUIDEV_16.o [4]
_aKnL                   0x2003f694     0x80  Data  Lc  GUIVNC_DES.o [4]
_aLimit                 0x0803cf00    0x300  Data  Lc  GUI_JPEG.o [4]
_aLock                  0x2003fe10      0x8  Data  Lc  GUI_MULTIBUF.o [4]
_aMask                  0x0806e200     0x20  Data  Lc  GUIVNC_Process.o [4]
_aMaskTbl               0x0806b65c     0x40  Data  Lc  GUI_GIF.o [4]
_aPC1                   0x080792b4     0x38  Data  Lc  GUIVNC_DES.o [4]
_aPC2                   0x080792fc     0x30  Data  Lc  GUIVNC_DES.o [4]
_aPend                  0x2003fe18      0x8  Data  Lc  GUI_MULTIBUF.o [4]
_aPlaylistDialogCreate  0x08072b24     0x54  Data  Lc  video_player_win.o [1]
_aPrevState             0x2003feec     0x18  Data  Lc  WM_PID__GetPrevState.o [4]
_aSP1                   0x08078ab4    0x100  Data  Lc  GUIVNC_DES.o [4]
_aSP2                   0x08078bb4    0x100  Data  Lc  GUIVNC_DES.o [4]
_aSP3                   0x08078cb4    0x100  Data  Lc  GUIVNC_DES.o [4]
_aSP4                   0x08078db4    0x100  Data  Lc  GUIVNC_DES.o [4]
_aSP5                   0x08078eb4    0x100  Data  Lc  GUIVNC_DES.o [4]
_aSP6                   0x08078fb4    0x100  Data  Lc  GUIVNC_DES.o [4]
_aSP7                   0x080790b4    0x100  Data  Lc  GUIVNC_DES.o [4]
_aSP8                   0x080791b4    0x100  Data  Lc  GUIVNC_DES.o [4]
_aState                 0x200137a8     0x48  Data  Lc  GUI_PID.o [4]
_aState                 0x20013570     0x58  Data  Lc  GUI_OnKey.o [4]
_aStateLast             0x200137f0     0x18  Data  Lc  WM_Touch.o [4]
_aTotRot                0x080792ec     0x10  Data  Lc  GUIVNC_DES.o [4]
_aVNCKey2GUIKey         0x0806f9ac     0x70  Data  Lc  GUIVNC_Process.o [4]
_aView                  0x2003fe00      0x8  Data  Lc  GUI_MULTIBUF.o [4]
_aWork                  0x2003fe08      0x8  Data  Lc  GUI_MULTIBUF.o [4]
_aX                     0x2003fe88     0x18  Data  Lc  GUI_FillPolygon.o [4]
_aaSafe                 0x2003ed24    0x190  Data  Lc  games_win.o [1]
_aaValues               0x080809a0    0x100  Data  Lc  games_win.o [1]
_abColorFormat_111      0x0806fa60      0x4  Data  Lc  GUIVNC_Process.o [4]
_abColorFormat_222      0x0806fa58      0x4  Data  Lc  GUIVNC_Process.o [4]
_abColorFormat_233      0x0806fa54      0x4  Data  Lc  GUIVNC_Process.o [4]
_abColorFormat_565      0x0806fa4c      0x4  Data  Lc  GUIVNC_Process.o [4]
_abColorFormat_M111     0x0806fa64      0x4  Data  Lc  GUIVNC_Process.o [4]
_abColorFormat_M222     0x0806fa5c      0x4  Data  Lc  GUIVNC_Process.o [4]
_abColorFormat_M565     0x0806fa50      0x4  Data  Lc  GUIVNC_Process.o [4]
_abPixelFormat_16bpp    0x0806fa1c      0xc  Data  Lc  GUIVNC_Process.o [4]
_abPixelFormat_3bpp     0x0806fa40      0xc  Data  Lc  GUIVNC_Process.o [4]
_abPixelFormat_6bpp     0x0806fa28      0xc  Data  Lc  GUIVNC_Process.o [4]
_abPixelFormat_8bpp     0x0806fa34      0xc  Data  Lc  GUIVNC_Process.o [4]
_acB1_DES               0x905daf40   0x1fa4  Data  Lc  home_alarm_win.o [1]
_acB1_OFF               0x905dcee4   0x1fa4  Data  Lc  home_alarm_win.o [1]
_acB1_ON                0x905dee88   0x1fa4  Data  Lc  home_alarm_win.o [1]
_acB2_DES               0x905be134   0x35b4  Data  Lc  home_alarm_win.o [1]
_acB2_OFF               0x905c16e8   0x35b4  Data  Lc  home_alarm_win.o [1]
_acB2_ON                0x905c4c9c   0x35b4  Data  Lc  home_alarm_win.o [1]
_acB3_DES               0x905d22a0   0x2ee0  Data  Lc  home_alarm_win.o [1]
_acB3_OFF               0x905d5180   0x2ee0  Data  Lc  home_alarm_win.o [1]
_acB3_ON                0x905d8060   0x2ee0  Data  Lc  home_alarm_win.o [1]
_acB4_DES               0x905b3b44   0x3750  Data  Lc  home_alarm_win.o [1]
_acB4_OFF               0x905b7294   0x3750  Data  Lc  home_alarm_win.o [1]
_acB4_ON                0x905ba9e4   0x3750  Data  Lc  home_alarm_win.o [1]
_acB5_DES               0x9036da24   0x9678  Data  Lc  home_alarm_win.o [1]
_acB5_OFF               0x9037709c   0x9678  Data  Lc  home_alarm_win.o [1]
_acB5_ON                0x90380714   0x9678  Data  Lc  home_alarm_win.o [1]
_acB6_DES               0x905c8250   0x3570  Data  Lc  home_alarm_win.o [1]
_acB6_OFF               0x905cb7c0   0x3570  Data  Lc  home_alarm_win.o [1]
_acB6_ON                0x905ced30   0x3570  Data  Lc  home_alarm_win.o [1]
_acBedroom              0x9005fa00  0x5fa00  Data  Lc  home_alarm_win.o [1]
_acChallenge            0x2003ff84     0x10  Data  Lc  GUIVNC_Authentication.o [4]
_acF7Logo               0x905673d4   0x4b00  Data  Lc  settings_win.o [1]
_acFVersion_10          0x9050a38c   0x7530  Data  Lc  settings_win.o [1]
_acFVersion_6           0x904ececc   0x7530  Data  Lc  settings_win.o [1]
_acFVersion_7           0x904f43fc   0x7530  Data  Lc  settings_win.o [1]
_acFVersion_8           0x904fb92c   0x7530  Data  Lc  settings_win.o [1]
_acFVersion_9           0x90502e5c   0x7530  Data  Lc  settings_win.o [1]
_acFversion_1           0x9058fd0c   0x396c  Data  Lc  settings_win.o [1]
_acFversion_2           0x90593678   0x396c  Data  Lc  settings_win.o [1]
_acFversion_3           0x90596fe4   0x396c  Data  Lc  settings_win.o [1]
_acFversion_4           0x9059a950   0x396c  Data  Lc  settings_win.o [1]
_acFversion_5           0x9059e2bc   0x396c  Data  Lc  settings_win.o [1]
_acImageButtonUp        0x08092678     0x34  Data  Lc  CHOOSEFILE.o [4]
_acImageCancel          0x08092740     0x1c  Data  Lc  CHOOSEFILE.o [4]
_acImageOK              0x080926e8     0x1c  Data  Lc  CHOOSEFILE.o [4]
_acLivingRoom1          0x9017e800  0x5fa00  Data  Lc  home_alarm_win.o [1]
_acPassword             0x20013df8      0x8  Data  Lc  GUIVNC_Authentication.o [4]
_acProgName             0x080934e4     0x10  Data  Lc  GUIVNC_Process.o [4]
_acSTLogo               0x90212dc0  0x13fb0  Data  Lc  k_startup.o [1]
_acVideo1               0x9045782c   0x7e90  Data  Lc  video_player_win.o [1]
_acVideo2               0x9045f6bc   0x7e90  Data  Lc  video_player_win.o [1]
_acVideo3               0x9046754c   0x7e90  Data  Lc  video_player_win.o [1]
_acVideo4               0x9046f3dc   0x7e90  Data  Lc  video_player_win.o [1]
_acVideo5               0x9047726c   0x7e90  Data  Lc  video_player_win.o [1]
_acadd                  0x0800ea84   0x1484  Data  Lc  audio_player_win.o [1]
_acadd1                 0x90226d70  0x13560  Data  Lc  video_player_win.o [1]
_acadd2                 0x9023a2d0  0x13560  Data  Lc  video_player_win.o [1]
_acadd3                 0x9024d830  0x13560  Data  Lc  video_player_win.o [1]
_acadd4                 0x90260d90  0x13560  Data  Lc  video_player_win.o [1]
_acadd5                 0x902742f0  0x13560  Data  Lc  video_player_win.o [1]
_acalarm                0x905118bc   0x6978  Data  Lc  home_alarm_win.o [1]
_acaudio1               0x90389d8c   0x7e90  Data  Lc  audio_player_win.o [1]
_acaudio2               0x90391c1c   0x7e90  Data  Lc  audio_player_win.o [1]
_acaudio3               0x90399aac   0x7e90  Data  Lc  audio_player_win.o [1]
_acaudio4               0x903a193c   0x7e90  Data  Lc  audio_player_win.o [1]
_acaudio5               0x903a97cc   0x7e90  Data  Lc  audio_player_win.o [1]
_acback                 0x0801d288     0x78  Data  Lc  audio_player_win.o [1]
_acback                 0x0804c1c0     0x78  Data  Lc  video_player_win.o [1]
_acbackground           0x0801138c   0x1484  Data  Lc  audio_player_win.o [1]
_acbackward             0x0801d544     0x78  Data  Lc  audio_player_win.o [1]
_acbackward_des         0x0801d800     0x78  Data  Lc  audio_player_win.o [1]
_acbathroom             0x900bf400  0x5fa00  Data  Lc  home_alarm_win.o [1]
_acbg                   0x905e6bec   0x12c0  Data  Lc  vnc_server_win.o [1]
_acboard_1              0x9056bed4   0x396c  Data  Lc  settings_win.o [1]
_acboard_10             0x904e599c   0x7530  Data  Lc  settings_win.o [1]
_acboard_2              0x9056f840   0x396c  Data  Lc  settings_win.o [1]
_acboard_3              0x905731ac   0x396c  Data  Lc  settings_win.o [1]
_acboard_4              0x90576b18   0x396c  Data  Lc  settings_win.o [1]
_acboard_5              0x9057a484   0x396c  Data  Lc  settings_win.o [1]
_acboard_6              0x904c84dc   0x7530  Data  Lc  settings_win.o [1]
_acboard_7              0x904cfa0c   0x7530  Data  Lc  settings_win.o [1]
_acboard_8              0x904d6f3c   0x7530  Data  Lc  settings_win.o [1]
_acboard_9              0x904de46c   0x7530  Data  Lc  settings_win.o [1]
_accamera               0x90518234   0x6978  Data  Lc  home_alarm_win.o [1]
_accamera1              0x9040868c   0x7e90  Data  Lc  home_alarm_win.o [1]
_accamera2              0x9041051c   0x7e90  Data  Lc  home_alarm_win.o [1]
_accamera3              0x904183ac   0x7e90  Data  Lc  home_alarm_win.o [1]
_accamera4              0x9042023c   0x7e90  Data  Lc  home_alarm_win.o [1]
_accamera5              0x904280cc   0x7e90  Data  Lc  home_alarm_win.o [1]
_accancel               0x905e20ec   0x12c0  Data  Lc  audio_recorder_win.o [1]
_accancel_unpressed     0x905e592c   0x12c0  Data  Lc  audio_recorder_win.o [1]
_acconnect              0x901de200  0x1d4c0  Data  Lc  vnc_server_win.o [1]
_acconnection_ko        0x902f67c8   0xce40  Data  Lc  vnc_server_win.o [1]
_acconnection_ok        0x90303608   0xce40  Data  Lc  vnc_server_win.o [1]
_accontrol1             0x903e0dbc   0x7e90  Data  Lc  gardening_control_win.o [1]
_accontrol2             0x903e8c4c   0x7e90  Data  Lc  gardening_control_win.o [1]
_accontrol3             0x903f0adc   0x7e90  Data  Lc  gardening_control_win.o [1]
_accontrol4             0x903f896c   0x7e90  Data  Lc  gardening_control_win.o [1]
_accontrol5             0x904007fc   0x7e90  Data  Lc  gardening_control_win.o [1]
_accontrol_sub          0x9034bea8   0xbb08  Data  Lc  gardening_control_win.o [1]
_accpu_1                0x9057ddf0   0x396c  Data  Lc  settings_win.o [1]
_accpu_10               0x904c0fac   0x7530  Data  Lc  settings_win.o [1]
_accpu_2                0x9058175c   0x396c  Data  Lc  settings_win.o [1]
_accpu_3                0x905850c8   0x396c  Data  Lc  settings_win.o [1]
_accpu_4                0x90588a34   0x396c  Data  Lc  settings_win.o [1]
_accpu_5                0x9058c3a0   0x396c  Data  Lc  settings_win.o [1]
_accpu_6                0x904a3aec   0x7530  Data  Lc  settings_win.o [1]
_accpu_7                0x904ab01c   0x7530  Data  Lc  settings_win.o [1]
_accpu_8                0x904b254c   0x7530  Data  Lc  settings_win.o [1]
_accpu_9                0x904b9a7c   0x7530  Data  Lc  settings_win.o [1]
_acdes_alarm            0x9051ebac   0x6978  Data  Lc  home_alarm_win.o [1]
_acdes_camera           0x90525524   0x6978  Data  Lc  home_alarm_win.o [1]
_acdes_control_sub      0x90334898   0xbb08  Data  Lc  gardening_control_win.o [1]
_acdes_garden_sub       0x90328d90   0xbb08  Data  Lc  gardening_control_win.o [1]
_acdes_water_sub        0x903403a0   0xbb08  Data  Lc  gardening_control_win.o [1]
_acfore                 0x0801d314     0x78  Data  Lc  audio_player_win.o [1]
_acfore                 0x0804c24c     0x78  Data  Lc  video_player_win.o [1]
_acforeward             0x0801d5d0     0x78  Data  Lc  audio_player_win.o [1]
_acforeward_des         0x0801d88c     0x78  Data  Lc  audio_player_win.o [1]
_acframe0               0x903b165c   0x7e90  Data  Lc  audio_recorder_win.o [1]
_acgame1                0x903b94ec   0x7e90  Data  Lc  games_win.o [1]
_acgame2                0x903c137c   0x7e90  Data  Lc  games_win.o [1]
_acgame3                0x903c920c   0x7e90  Data  Lc  games_win.o [1]
_acgame4                0x903d109c   0x7e90  Data  Lc  games_win.o [1]
_acgame5                0x903d8f2c   0x7e90  Data  Lc  games_win.o [1]
_acgarden_sub           0x9031d288   0xbb08  Data  Lc  gardening_control_win.o [1]
_acinfo1                0x9042ff5c   0x7e90  Data  Lc  settings_win.o [1]
_acinfo2                0x90437dec   0x7e90  Data  Lc  settings_win.o [1]
_acinfo3                0x9043fc7c   0x7e90  Data  Lc  settings_win.o [1]
_acinfo4                0x90447b0c   0x7e90  Data  Lc  settings_win.o [1]
_acinfo5                0x9044f99c   0x7e90  Data  Lc  settings_win.o [1]
_ackitchen              0x9011ee00  0x5fa00  Data  Lc  home_alarm_win.o [1]
_aclivingRoom           0x90000000  0x5fa00  Data  Lc  home_alarm_win.o [1]
_aclock                 0x905e916c   0x12c0  Data  Lc  vnc_server_win.o [1]
_acmcu_1                0x905a1c28   0x396c  Data  Lc  settings_win.o [1]
_acmcu_10               0x9049c5bc   0x7530  Data  Lc  settings_win.o [1]
_acmcu_2                0x905a5594   0x396c  Data  Lc  settings_win.o [1]
_acmcu_3                0x905a8f00   0x396c  Data  Lc  settings_win.o [1]
_acmcu_4                0x905ac86c   0x396c  Data  Lc  settings_win.o [1]
_acmcu_5                0x905b01d8   0x396c  Data  Lc  settings_win.o [1]
_acmcu_6                0x9047f0fc   0x7530  Data  Lc  settings_win.o [1]
_acmcu_7                0x9048662c   0x7530  Data  Lc  settings_win.o [1]
_acmcu_8                0x9048db5c   0x7530  Data  Lc  settings_win.o [1]
_acmcu_9                0x9049508c   0x7530  Data  Lc  settings_win.o [1]
_acno_connection        0x90310448   0xce40  Data  Lc  vnc_server_win.o [1]
_acopen                 0x0800ff08   0x1484  Data  Lc  audio_player_win.o [1]
_acopen1                0x90287850  0x13560  Data  Lc  video_player_win.o [1]
_acopen2                0x9029adb0  0x13560  Data  Lc  video_player_win.o [1]
_acopen3                0x902ae310  0x13560  Data  Lc  video_player_win.o [1]
_acopen4                0x902c1870  0x13560  Data  Lc  video_player_win.o [1]
_acopen5                0x902d4dd0  0x13560  Data  Lc  video_player_win.o [1]
_acpause                0x0801d42c     0x78  Data  Lc  audio_player_win.o [1]
_acpause                0x0808a898     0xc8  Data  Lc  audio_recorder_win.o [1]
_acpause_des            0x0801d6e8     0x78  Data  Lc  audio_player_win.o [1]
_acpause_des            0x0808aa50     0xc8  Data  Lc  audio_recorder_win.o [1]
_acpause_pressed        0x0801d170     0x78  Data  Lc  audio_player_win.o [1]
_acpause_pressed        0x0808a604     0xc8  Data  Lc  audio_recorder_win.o [1]
_acpause_pressed        0x0804c0a8     0x78  Data  Lc  video_player_win.o [1]
_acplay                 0x0801d3a0     0x78  Data  Lc  audio_player_win.o [1]
_acplay                 0x0808a7bc     0xc8  Data  Lc  audio_recorder_win.o [1]
_acplay_des             0x0801d65c     0x78  Data  Lc  audio_player_win.o [1]
_acplay_pressed         0x0801d0e4     0x78  Data  Lc  audio_player_win.o [1]
_acplay_pressed         0x0808a528     0xc8  Data  Lc  audio_recorder_win.o [1]
_acplay_pressed         0x0804c01c     0x78  Data  Lc  video_player_win.o [1]
_acplay_unpressed       0x0808fa80     0xc8  Data  Lc  vnc_server_win.o [1]
_acpochette             0x08012810   0xa8c0  Data  Lc  audio_player_win.o [1]
_acrecord               0x905e0e2c   0x12c0  Data  Lc  audio_recorder_win.o [1]
_acrecord_disabled      0x905e33ac   0x12c0  Data  Lc  audio_recorder_win.o [1]
_acrecord_pressed       0x905e466c   0x12c0  Data  Lc  audio_recorder_win.o [1]
_acrecorder             0x901fb6c0  0x17700  Data  Lc  audio_recorder_win.o [1]
_acrecorder1            0x9052be9c   0x5eec  Data  Lc  audio_recorder_win.o [1]
_acrecorder2            0x90531d88   0x5eec  Data  Lc  audio_recorder_win.o [1]
_acrecorder3            0x90537c74   0x5eec  Data  Lc  audio_recorder_win.o [1]
_acrecorder4            0x9053db60   0x5eec  Data  Lc  audio_recorder_win.o [1]
_acrecorder5            0x90543a4c   0x5eec  Data  Lc  audio_recorder_win.o [1]
_acspeaker1             0x0800d56c    0xa8c  Data  Lc  audio_player_win.o [1]
_acstop                 0x0801d4b8     0x78  Data  Lc  audio_player_win.o [1]
_acstop                 0x0808a974     0xc8  Data  Lc  audio_recorder_win.o [1]
_acstop_des             0x0801d774     0x78  Data  Lc  audio_player_win.o [1]
_acstop_des             0x0808ab2c     0xc8  Data  Lc  audio_recorder_win.o [1]
_acstop_pressed         0x0801d1fc     0x78  Data  Lc  audio_player_win.o [1]
_acstop_pressed         0x0808a6e0     0xc8  Data  Lc  audio_recorder_win.o [1]
_acstop_pressed         0x0804c134     0x78  Data  Lc  video_player_win.o [1]
_acunlock               0x905e7eac   0x12c0  Data  Lc  vnc_server_win.o [1]
_acvnc1                 0x90549938   0x5eec  Data  Lc  vnc_server_win.o [1]
_acvnc2                 0x9054f824   0x5eec  Data  Lc  vnc_server_win.o [1]
_acvnc3                 0x90555710   0x5eec  Data  Lc  vnc_server_win.o [1]
_acvnc4                 0x9055b5fc   0x5eec  Data  Lc  vnc_server_win.o [1]
_acvnc5                 0x905614e8   0x5eec  Data  Lc  vnc_server_win.o [1]
_acvnc_play_pressed     0x0808fb5c     0xc8  Data  Lc  vnc_server_win.o [1]
_acvnc_stop             0x0808fd14     0xc8  Data  Lc  vnc_server_win.o [1]
_acvnc_stop_pressed     0x0808fc38     0xc8  Data  Lc  vnc_server_win.o [1]
_acwarning              0x08047e04   0x4204  Data  Lc  video_player_win.o [1]
_acwater_sub            0x903579b0   0xbb08  Data  Lc  gardening_control_win.o [1]
_apButtonBitmap         0x20013900     0x18  Data  Lc  CHOOSEFILE.o [4]
_apDevice               0x2003fe64      0x8  Data  Lc  GUI_SetAlpha.o [4]
_apProps                0x08090b9c     0x10  Data  Lc  BUTTON_SkinFlex.o [4]
_apProps                0x08090e30     0x10  Data  Lc  DROPDOWN_SkinFlex.o [4]
_atan2                  0x0807340b     0x84  Code  Lc  GUI_DrawLine.o [4]
_bmImageButtonUp        0x080926ac     0x14  Data  Lc  CHOOSEFILE.o [4]
_bmImageCancel          0x0809275c     0x14  Data  Lc  CHOOSEFILE.o [4]
_bmImageOK_Disabled     0x08092718     0x14  Data  Lc  CHOOSEFILE.o [4]
_bmImageOK_Enabled      0x08092704     0x14  Data  Lc  CHOOSEFILE.o [4]
_call_main              0x08093391           Code  Gb  cmain.o [9]
_cbAudioProcess         0x0804c881     0xf4  Code  Lc  audio_player_win.o [1]
_cbAudioProcess         0x08065987     0xc8  Code  Lc  audio_recorder_win.o [1]
_cbBk                   0x080650bd    0x104  Code  Lc  k_menu.o [1]
_cbButtonBack           0x080559d5     0x64  Code  Lc  ST_AnimatedIconView.o [3]
_cbButtonNext           0x08055969     0x64  Code  Lc  ST_AnimatedIconView.o [3]
_cbButton_add           0x0804c4a1     0x26  Code  Lc  audio_player_win.o [1]
_cbButton_add2PL        0x080717db     0x34  Code  Lc  video_player_win.o [1]
_cbButton_alarm         0x08080ecf     0x44  Code  Lc  home_alarm_win.o [1]
_cbButton_back          0x08071671     0x16  Code  Lc  video_player_win.o [1]
_cbButton_background    0x0804c4dd     0x24  Code  Lc  audio_player_win.o [1]
_cbButton_bg            0x080738fd     0x36  Code  Lc  vnc_server_win.o [1]
_cbButton_cam1          0x08080f13     0x3e  Code  Lc  home_alarm_win.o [1]
_cbButton_cam2          0x08080f61     0x40  Code  Lc  home_alarm_win.o [1]
_cbButton_cam3          0x08080fa1     0x40  Code  Lc  home_alarm_win.o [1]
_cbButton_cam4          0x08080fff     0x40  Code  Lc  home_alarm_win.o [1]
_cbButton_cam5          0x0808103f     0x40  Code  Lc  home_alarm_win.o [1]
_cbButton_cam5_1        0x0808107f     0x40  Code  Lc  home_alarm_win.o [1]
_cbButton_camera        0x08080e93     0x3c  Code  Lc  home_alarm_win.o [1]
_cbButton_close         0x0804c559     0x40  Code  Lc  audio_player_win.o [1]
_cbButton_close_equal   0x0804c5a1     0x3e  Code  Lc  audio_player_win.o [1]
_cbButton_control       0x0808f627     0x36  Code  Lc  gardening_control_win.o [1]
_cbButton_drowise       0x0808f6a3     0x36  Code  Lc  gardening_control_win.o [1]
_cbButton_equal         0x0804c83b     0x32  Code  Lc  audio_player_win.o [1]
_cbButton_exit          0x080655e1     0x56  Code  Lc  audio_recorder_win.o [1]
_cbButton_exit          0x08080567     0x52  Code  Lc  games_win.o [1]
_cbButton_exit          0x0808f5d5     0x52  Code  Lc  gardening_control_win.o [1]
_cbButton_exit          0x08080e75     0x1e  Code  Lc  home_alarm_win.o [1]
_cbButton_exit          0x0808d899     0x52  Code  Lc  settings_win.o [1]
_cbButton_exit          0x08071789     0x36  Code  Lc  video_player_win.o [1]
_cbButton_exit          0x080739d5     0x54  Code  Lc  vnc_server_win.o [1]
_cbButton_exit1         0x080810bf     0x3e  Code  Lc  home_alarm_win.o [1]
_cbButton_exit1         0x080716f5     0x40  Code  Lc  video_player_win.o [1]
_cbButton_fore          0x0807169d     0x16  Code  Lc  video_player_win.o [1]
_cbButton_lock          0x08073999     0x3c  Code  Lc  vnc_server_win.o [1]
_cbButton_menu          0x080810fd     0x10  Code  Lc  home_alarm_win.o [1]
_cbButton_menu          0x0807173d     0x38  Code  Lc  video_player_win.o [1]
_cbButton_next          0x0804c3cd     0x32  Code  Lc  audio_player_win.o [1]
_cbButton_okMessage     0x0807186b     0x34  Code  Lc  video_player_win.o [1]
_cbButton_okPL          0x0807181f     0x32  Code  Lc  video_player_win.o [1]
_cbButton_open          0x0804c51d     0x26  Code  Lc  audio_player_win.o [1]
_cbButton_pause         0x0804c7b5     0x2e  Code  Lc  audio_player_win.o [1]
_cbButton_pause         0x080656ad     0x5e  Code  Lc  audio_recorder_win.o [1]
_cbButton_play          0x0804c319     0x2e  Code  Lc  audio_player_win.o [1]
_cbButton_play          0x0807161d     0x2a  Code  Lc  video_player_win.o [1]
_cbButton_previous      0x0804c439     0x32  Code  Lc  audio_player_win.o [1]
_cbButton_record        0x08065737     0x9e  Code  Lc  audio_recorder_win.o [1]
_cbButton_repeat_all    0x0804c66d     0x36  Code  Lc  audio_player_win.o [1]
_cbButton_repeat_off    0x0804c6e5     0x3c  Code  Lc  audio_player_win.o [1]
_cbButton_repeat_one    0x0804c60d     0x36  Code  Lc  audio_player_win.o [1]
_cbButton_speaker       0x0804c751     0x3c  Code  Lc  audio_player_win.o [1]
_cbButton_sprinklers    0x0808f65d     0x36  Code  Lc  gardening_control_win.o [1]
_cbButton_start         0x08073933     0x66  Code  Lc  vnc_server_win.o [1]
_cbButton_stop          0x0804c371     0x32  Code  Lc  audio_player_win.o [1]
_cbButton_stop          0x08065637     0x4c  Code  Lc  audio_recorder_win.o [1]
_cbButton_stop          0x080716c9     0x16  Code  Lc  video_player_win.o [1]
_cbCameraWindow         0x0808114b    0x192  Code  Lc  home_alarm_win.o [1]
_cbDialog               0x08065ad3    0x3b6  Code  Lc  audio_recorder_win.o [1]
_cbDialog               0x0808f6d9    0x152  Code  Lc  gardening_control_win.o [1]
_cbDialog               0x080812dd    0x448  Code  Lc  home_alarm_win.o [1]
_cbDialog               0x0808d8eb    0x286  Code  Lc  settings_win.o [1]
_cbDialog               0x080727b7    0x2a8  Code  Lc  video_player_win.o [1]
_cbDialog               0x08073a29    0x234  Code  Lc  vnc_server_win.o [1]
_cbEqualDialog          0x0804ce89    0x46c  Code  Lc  audio_player_win.o [1]
_cbFileInfoDialog       0x08072119     0x64  Code  Lc  video_player_win.o [1]
_cbHint                 0x0804ce29     0x40  Code  Lc  audio_player_win.o [1]
_cbInvalidateOne        0x08056cad      0x4  Code  Lc  WM_BringToTop.o [4]
_cbMainDialog           0x0804d4eb    0xb8c  Code  Lc  audio_player_win.o [1]
_cbMediaConnection      0x0804cbfd    0x1e2  Code  Lc  audio_player_win.o [1]
_cbMediaConnection      0x08065839    0x13c  Code  Lc  audio_recorder_win.o [1]
_cbMediaConnection      0x080718ed    0x168  Code  Lc  video_player_win.o [1]
_cbMessageBox           0x08080177     0x26  Code  Lc  games_win.o [1]
_cbNotify               0x08072441     0xee  Code  Gb  video_player_win.o [1]
_cbNotifyStateChange    0x08065a57     0x72  Code  Gb  audio_recorder_win.o [1]
_cbPaintMemDev          0x080404ab     0x58  Code  Lc  WM.o [4]
_cbPlaylistDialog       0x08072191    0x25c  Code  Lc  video_player_win.o [1]
_cbReversiWin           0x080805b9     0x5a  Code  Lc  games_win.o [1]
_cbTimer                0x08041f29     0x30  Code  Lc  WM_Timer.o [4]
_cbTimer                0x0806a2a9     0x7a  Code  Lc  IMAGE_GIF.o [4]
_cbTouch                0x080718a9     0x44  Code  Lc  video_player_win.o [1]
_cbVideoWindow          0x08072799     0x1e  Code  Lc  video_player_win.o [1]
_cbplaybackwin          0x08071a81    0x560  Code  Lc  video_player_win.o [1]
_exit                   0x080933a9           Code  Gb  cexit.o [9]
_fpClearLine            0x20013e94      0x4  Data  Lc  GUI_EncExt.o [4]
_gm_                    0x2003eb4c    0x1d8  Data  Lc  dlmalloc.o [5]
_hActiveTimer           0x2003ff20      0x4  Data  Lc  GUI_Timer.o [4]
_hData                  0x2001391c      0x4  Data  Lc  CHOOSEFILE.o [4]
_hFirst                 0x20013998      0x4  Data  Lc  WM_ToolTip.o [4]
_hFirstTimer            0x2003ff1c      0x4  Data  Lc  GUI_Timer.o [4]
_hFrame                 0x2003fe2c      0x4  Data  Lc  games_win.o [1]
_main                   0x0809339b           Code  Gb  cmain.o [9]
_pAABuffer              0x2003fc08      0x4  Data  Lc  GUIAA_Lib.o [4]
_pAuthentication        0x2001218c      0x4  Data  Lc  GUIVNC_Process.o [4]
_pBuffer                0x2003fc0c      0x4  Data  Lc  GUIAA_Lib.o [4]
_pColor                 0x2003fe74      0x4  Data  Lc  GUI_SetAlpha.o [4]
_pConvert               0x2003fea4      0x4  Data  Lc  GUI__Alpha.o [4]
_pCurrent               0x2003fea0      0x4  Data  Lc  GUI__Alpha.o [4]
_pData                  0x2003fea8      0x4  Data  Lc  GUI__Alpha.o [4]
_pEffectDefault         0x20013eb4      0x4  Data  Gb  WIDGET.o [4]
_pFirstContext          0x2003ff74      0x4  Data  Lc  GUIVNC_Process.o [4]
_pFirstExit             0x200133d0      0x4  Data  Lc  GUI_Core.o [4]
_pFuncRefreshHook       0x2003ff30      0x4  Data  Lc  GUI__ManageCache.o [4]
_pIndex                 0x2003fe70      0x4  Data  Lc  GUI_SetAlpha.o [4]
_pLCD_HLPrev            0x2003fc28      0x4  Data  Lc  GUIAA_Lib.o [4]
_pOldCursor             0x20013e88      0x4  Data  Lc  HEADER.o [4]
_pPlayerAI              0x2003fe24      0x8  Data  Lc  games_win.o [1]
_pRead                  0x2001379c      0x4  Data  Lc  GUI_PID.o [4]
_pReadKey               0x20013560      0x4  Data  Lc  GUI_OnKey.o [4]
_pSave                  0x20013c38      0x4  Data  Lc  GUI_Task.o [4]
_pWrite                 0x200137a0      0x4  Data  Lc  GUI_PID.o [4]
_pWriteKey              0x20013564      0x4  Data  Lc  GUI_OnKey.o [4]
_pcbMotion              0x20013838      0x4  Data  Lc  WM_Touch.o [4]
_pcbSetAlpha            0x200400b4      0x4  Data  Lc  GUIDEV_Banding.o [4]
_pcbToolTip             0x2001383c      0x4  Data  Lc  WM_Touch.o [4]
_pfAdjustControlls      0x20013920      0x4  Data  Lc  CHOOSEFILE.o [4]
_pfAlphaBlending        0x200400bc      0x4  Data  Lc  GUI__Alpha.o [4]
_pfColor2Index          0x20012188      0x4  Data  Lc  GUIVNC_Process.o [4]
_pfColor2IndexBulk      0x20040040      0x4  Data  Lc  GUICC_M1555I.o [4]
_pfColor2IndexBulk      0x20040048      0x4  Data  Lc  GUICC_M8888I.o [4]
_pfCreateToolTips       0x20013924      0x4  Data  Lc  CHOOSEFILE.o [4]
_pfDrawCharAA4_Trans    0x20013e98      0x4  Data  Lc  GUIAA_Char4.o [4]
_pfDrawCharAA4_TransCust
                        0x20013e9c      0x4  Data  Lc  GUIAA_Char4.o [4]
_pfHook                 0x200137a4      0x4  Data  Lc  GUI_PID.o [4]
_pfHook                 0x2001356c      0x4  Data  Lc  GUI_OnKey.o [4]
_pfIndex2Color          0x200121c4      0x4  Data  Lc  GUIVNC_Process.o [4]
_pfIndex2ColorBulk      0x20040044      0x4  Data  Lc  GUICC_M1555I.o [4]
_pfIndex2ColorBulk      0x2004004c      0x4  Data  Lc  GUICC_M8888I.o [4]
_pfOnPidStateChange     0x20013e84      0x4  Data  Lc  BUTTON.o [4]
_pfOnTouch              0x20013e80      0x4  Data  Lc  BUTTON.o [4]
_pfSignalEvent          0x200400a8      0x4  Data  Lc  GUI_WaitEvent.o [4]
_px                     0x20040000      0x4  Data  Lc  games_win.o [1]
_py                     0x20040004      0x4  Data  Lc  games_win.o [1]
_sProgName              0x20012194      0x4  Data  Lc  GUIVNC_Process.o [4]
_valuePieces            0x0807fe5f    0x152  Code  Lc  games_win.o [1]
_x0                     0x2003fc10      0x4  Data  Lc  GUIAA_Lib.o [4]
_x0_InUse               0x2003fc1c      0x4  Data  Lc  GUIAA_Lib.o [4]
_x1                     0x2003fc14      0x4  Data  Lc  GUIAA_Lib.o [4]
_x1_InUse               0x2003fc20      0x4  Data  Lc  GUIAA_Lib.o [4]
_xSize                  0x2003ff78      0x4  Data  Lc  GUIVNC_Process.o [4]
_xs                     0x080807c0     0xf0  Data  Lc  games_win.o [1]
_y                      0x2003fc18      0x4  Data  Lc  GUIAA_Lib.o [4]
_ySize                  0x2003ff7c      0x4  Data  Lc  GUIVNC_Process.o [4]
_ys                     0x080808b0     0xf0  Data  Lc  games_win.o [1]
aID                     0x08085cc8     0x40  Data  Lc  GUIDEV_32.o [4]
aMemory                 0x20013edc  0x20000  Data  Gb  GUIConf.o [1]
aSin                    0x08073864     0x24  Data  Lc  GUI_DrawLine.o [4]
aTan                    0x08073888     0x24  Data  Gb  GUI_DrawLine.o [4]
abort                   0x08066165      0x6  Code  Gb  abort.o [5]
acAttrib                0x20012ce0      0xc  Data  Lc  k_storage.o [1]
acExt                   0x20012cec      0x4  Data  Lc  k_storage.o [1]
acFont10_1_160          0x08088dac      0xc  Data  Lc  F10_1.o [4]
acFont10_1_161          0x08088db8      0xc  Data  Lc  F10_1.o [4]
acFont10_1_162          0x08088dc4      0xc  Data  Lc  F10_1.o [4]
acFont10_1_163          0x08088dd0      0xc  Data  Lc  F10_1.o [4]
acFont10_1_164          0x08088ddc      0xc  Data  Lc  F10_1.o [4]
acFont10_1_165          0x08088de8      0xc  Data  Lc  F10_1.o [4]
acFont10_1_166          0x08088df4      0xc  Data  Lc  F10_1.o [4]
acFont10_1_167          0x08088e00      0xc  Data  Lc  F10_1.o [4]
acFont10_1_168          0x08088e0c      0xc  Data  Lc  F10_1.o [4]
acFont10_1_169          0x08088e18      0xc  Data  Lc  F10_1.o [4]
acFont10_1_170          0x08088e24      0xc  Data  Lc  F10_1.o [4]
acFont10_1_171          0x08088e30      0xc  Data  Lc  F10_1.o [4]
acFont10_1_172          0x08088e3c      0xc  Data  Lc  F10_1.o [4]
acFont10_1_173          0x08088e48      0xc  Data  Lc  F10_1.o [4]
acFont10_1_174          0x08088e54      0xc  Data  Lc  F10_1.o [4]
acFont10_1_175          0x08088e60      0xc  Data  Lc  F10_1.o [4]
acFont10_1_176          0x08088e6c      0xc  Data  Lc  F10_1.o [4]
acFont10_1_177          0x08088e78      0xc  Data  Lc  F10_1.o [4]
acFont10_1_178          0x08088e84      0xc  Data  Lc  F10_1.o [4]
acFont10_1_179          0x08088e90      0xc  Data  Lc  F10_1.o [4]
acFont10_1_180          0x08088e9c      0xc  Data  Lc  F10_1.o [4]
acFont10_1_181          0x08088ea8      0xc  Data  Lc  F10_1.o [4]
acFont10_1_182          0x08088eb4      0xc  Data  Lc  F10_1.o [4]
acFont10_1_183          0x08088ec0      0xc  Data  Lc  F10_1.o [4]
acFont10_1_184          0x08088ecc      0xc  Data  Lc  F10_1.o [4]
acFont10_1_185          0x08088ed8      0xc  Data  Lc  F10_1.o [4]
acFont10_1_186          0x08088ee4      0xc  Data  Lc  F10_1.o [4]
acFont10_1_187          0x08088ef0      0xc  Data  Lc  F10_1.o [4]
acFont10_1_188          0x08088efc     0x14  Data  Lc  F10_1.o [4]
acFont10_1_189          0x08088f10     0x14  Data  Lc  F10_1.o [4]
acFont10_1_190          0x08088f24     0x14  Data  Lc  F10_1.o [4]
acFont10_1_191          0x08088f38      0xc  Data  Lc  F10_1.o [4]
acFont10_1_192          0x08088f44      0xc  Data  Lc  F10_1.o [4]
acFont10_1_193          0x08088f50      0xc  Data  Lc  F10_1.o [4]
acFont10_1_194          0x08088f5c      0xc  Data  Lc  F10_1.o [4]
acFont10_1_195          0x08088f68      0xc  Data  Lc  F10_1.o [4]
acFont10_1_196          0x08088f74      0xc  Data  Lc  F10_1.o [4]
acFont10_1_197          0x08088f80      0xc  Data  Lc  F10_1.o [4]
acFont10_1_198          0x08088f8c     0x14  Data  Lc  F10_1.o [4]
acFont10_1_199          0x08088fa0      0xc  Data  Lc  F10_1.o [4]
acFont10_1_200          0x08088fac      0xc  Data  Lc  F10_1.o [4]
acFont10_1_201          0x08088fb8      0xc  Data  Lc  F10_1.o [4]
acFont10_1_202          0x08088fc4      0xc  Data  Lc  F10_1.o [4]
acFont10_1_203          0x08088fd0      0xc  Data  Lc  F10_1.o [4]
acFont10_1_204          0x08088fdc      0xc  Data  Lc  F10_1.o [4]
acFont10_1_205          0x08088fe8      0xc  Data  Lc  F10_1.o [4]
acFont10_1_206          0x08088ff4      0xc  Data  Lc  F10_1.o [4]
acFont10_1_207          0x08089000      0xc  Data  Lc  F10_1.o [4]
acFont10_1_208          0x0808900c      0xc  Data  Lc  F10_1.o [4]
acFont10_1_209          0x08089018      0xc  Data  Lc  F10_1.o [4]
acFont10_1_210          0x08089024      0xc  Data  Lc  F10_1.o [4]
acFont10_1_211          0x08089030      0xc  Data  Lc  F10_1.o [4]
acFont10_1_212          0x0808903c      0xc  Data  Lc  F10_1.o [4]
acFont10_1_213          0x08089048      0xc  Data  Lc  F10_1.o [4]
acFont10_1_214          0x08089054      0xc  Data  Lc  F10_1.o [4]
acFont10_1_215          0x08089060      0xc  Data  Lc  F10_1.o [4]
acFont10_1_216          0x0808906c      0xc  Data  Lc  F10_1.o [4]
acFont10_1_217          0x08089078      0xc  Data  Lc  F10_1.o [4]
acFont10_1_218          0x08089084      0xc  Data  Lc  F10_1.o [4]
acFont10_1_219          0x08089090      0xc  Data  Lc  F10_1.o [4]
acFont10_1_220          0x0808909c      0xc  Data  Lc  F10_1.o [4]
acFont10_1_221          0x080890a8      0xc  Data  Lc  F10_1.o [4]
acFont10_1_222          0x080890b4      0xc  Data  Lc  F10_1.o [4]
acFont10_1_223          0x080890c0      0xc  Data  Lc  F10_1.o [4]
acFont10_1_224          0x080890cc      0xc  Data  Lc  F10_1.o [4]
acFont10_1_225          0x080890d8      0xc  Data  Lc  F10_1.o [4]
acFont10_1_226          0x080890e4      0xc  Data  Lc  F10_1.o [4]
acFont10_1_227          0x080890f0      0xc  Data  Lc  F10_1.o [4]
acFont10_1_228          0x080890fc      0xc  Data  Lc  F10_1.o [4]
acFont10_1_229          0x08089108      0xc  Data  Lc  F10_1.o [4]
acFont10_1_230          0x08089114     0x14  Data  Lc  F10_1.o [4]
acFont10_1_231          0x08089128      0xc  Data  Lc  F10_1.o [4]
acFont10_1_232          0x08089134      0xc  Data  Lc  F10_1.o [4]
acFont10_1_233          0x08089140      0xc  Data  Lc  F10_1.o [4]
acFont10_1_234          0x0808914c      0xc  Data  Lc  F10_1.o [4]
acFont10_1_235          0x08089158      0xc  Data  Lc  F10_1.o [4]
acFont10_1_236          0x08089164      0xc  Data  Lc  F10_1.o [4]
acFont10_1_237          0x08089170      0xc  Data  Lc  F10_1.o [4]
acFont10_1_238          0x0808917c      0xc  Data  Lc  F10_1.o [4]
acFont10_1_239          0x08089188      0xc  Data  Lc  F10_1.o [4]
acFont10_1_240          0x08089194      0xc  Data  Lc  F10_1.o [4]
acFont10_1_241          0x080891a0      0xc  Data  Lc  F10_1.o [4]
acFont10_1_242          0x080891ac      0xc  Data  Lc  F10_1.o [4]
acFont10_1_243          0x080891b8      0xc  Data  Lc  F10_1.o [4]
acFont10_1_244          0x080891c4      0xc  Data  Lc  F10_1.o [4]
acFont10_1_245          0x080891d0      0xc  Data  Lc  F10_1.o [4]
acFont10_1_246          0x080891dc      0xc  Data  Lc  F10_1.o [4]
acFont10_1_247          0x080891e8      0xc  Data  Lc  F10_1.o [4]
acFont10_1_248          0x080891f4      0xc  Data  Lc  F10_1.o [4]
acFont10_1_249          0x08089200      0xc  Data  Lc  F10_1.o [4]
acFont10_1_250          0x0808920c      0xc  Data  Lc  F10_1.o [4]
acFont10_1_251          0x08089218      0xc  Data  Lc  F10_1.o [4]
acFont10_1_252          0x08089224      0xc  Data  Lc  F10_1.o [4]
acFont10_1_253          0x08089230      0xc  Data  Lc  F10_1.o [4]
acFont10_1_254          0x0808923c      0xc  Data  Lc  F10_1.o [4]
acFont10_1_255          0x08089248      0xc  Data  Lc  F10_1.o [4]
acFont10_ASCII_100      0x080898cc      0xc  Data  Lc  F10_ASCII.o [4]
acFont10_ASCII_101      0x080898d8      0xc  Data  Lc  F10_ASCII.o [4]
acFont10_ASCII_102      0x080898e4      0xc  Data  Lc  F10_ASCII.o [4]
acFont10_ASCII_103      0x080898f0      0xc  Data  Lc  F10_ASCII.o [4]
acFont10_ASCII_104      0x080898fc      0xc  Data  Lc  F10_ASCII.o [4]
acFont10_ASCII_105      0x08089908      0xc  Data  Lc  F10_ASCII.o [4]
acFont10_ASCII_106      0x08089914      0xc  Data  Lc  F10_ASCII.o [4]
acFont10_ASCII_107      0x08089920      0xc  Data  Lc  F10_ASCII.o [4]
acFont10_ASCII_108      0x0808992c      0xc  Data  Lc  F10_ASCII.o [4]
acFont10_ASCII_109      0x08089938      0xc  Data  Lc  F10_ASCII.o [4]
acFont10_ASCII_110      0x08089944      0xc  Data  Lc  F10_ASCII.o [4]
acFont10_ASCII_111      0x08089950      0xc  Data  Lc  F10_ASCII.o [4]
acFont10_ASCII_112      0x0808995c      0xc  Data  Lc  F10_ASCII.o [4]
acFont10_ASCII_113      0x08089968      0xc  Data  Lc  F10_ASCII.o [4]
acFont10_ASCII_114      0x08089974      0xc  Data  Lc  F10_ASCII.o [4]
acFont10_ASCII_115      0x08089980      0xc  Data  Lc  F10_ASCII.o [4]
acFont10_ASCII_116      0x0808998c      0xc  Data  Lc  F10_ASCII.o [4]
acFont10_ASCII_117      0x08089998      0xc  Data  Lc  F10_ASCII.o [4]
acFont10_ASCII_118      0x080899a4      0xc  Data  Lc  F10_ASCII.o [4]
acFont10_ASCII_119      0x080899b0     0x14  Data  Lc  F10_ASCII.o [4]
acFont10_ASCII_120      0x080899c4      0xc  Data  Lc  F10_ASCII.o [4]
acFont10_ASCII_121      0x080899d0      0xc  Data  Lc  F10_ASCII.o [4]
acFont10_ASCII_122      0x080899dc      0xc  Data  Lc  F10_ASCII.o [4]
acFont10_ASCII_123      0x080899e8      0xc  Data  Lc  F10_ASCII.o [4]
acFont10_ASCII_124      0x080899f4      0xc  Data  Lc  F10_ASCII.o [4]
acFont10_ASCII_125      0x08089a00      0xc  Data  Lc  F10_ASCII.o [4]
acFont10_ASCII_126      0x08089a0c      0xc  Data  Lc  F10_ASCII.o [4]
acFont10_ASCII_32       0x08089584      0xc  Data  Lc  F10_ASCII.o [4]
acFont10_ASCII_33       0x08089590      0xc  Data  Lc  F10_ASCII.o [4]
acFont10_ASCII_34       0x0808959c      0xc  Data  Lc  F10_ASCII.o [4]
acFont10_ASCII_35       0x080895a8      0xc  Data  Lc  F10_ASCII.o [4]
acFont10_ASCII_36       0x080895b4      0xc  Data  Lc  F10_ASCII.o [4]
acFont10_ASCII_37       0x080895c0     0x14  Data  Lc  F10_ASCII.o [4]
acFont10_ASCII_38       0x080895d4      0xc  Data  Lc  F10_ASCII.o [4]
acFont10_ASCII_39       0x080895e0      0xc  Data  Lc  F10_ASCII.o [4]
acFont10_ASCII_40       0x080895ec      0xc  Data  Lc  F10_ASCII.o [4]
acFont10_ASCII_41       0x080895f8      0xc  Data  Lc  F10_ASCII.o [4]
acFont10_ASCII_42       0x08089604      0xc  Data  Lc  F10_ASCII.o [4]
acFont10_ASCII_43       0x08089610      0xc  Data  Lc  F10_ASCII.o [4]
acFont10_ASCII_44       0x0808961c      0xc  Data  Lc  F10_ASCII.o [4]
acFont10_ASCII_45       0x08089628      0xc  Data  Lc  F10_ASCII.o [4]
acFont10_ASCII_46       0x08089634      0xc  Data  Lc  F10_ASCII.o [4]
acFont10_ASCII_47       0x08089640      0xc  Data  Lc  F10_ASCII.o [4]
acFont10_ASCII_48       0x0808964c      0xc  Data  Lc  F10_ASCII.o [4]
acFont10_ASCII_49       0x08089658      0xc  Data  Lc  F10_ASCII.o [4]
acFont10_ASCII_50       0x08089664      0xc  Data  Lc  F10_ASCII.o [4]
acFont10_ASCII_51       0x08089670      0xc  Data  Lc  F10_ASCII.o [4]
acFont10_ASCII_52       0x0808967c      0xc  Data  Lc  F10_ASCII.o [4]
acFont10_ASCII_53       0x08089688      0xc  Data  Lc  F10_ASCII.o [4]
acFont10_ASCII_54       0x08089694      0xc  Data  Lc  F10_ASCII.o [4]
acFont10_ASCII_55       0x080896a0      0xc  Data  Lc  F10_ASCII.o [4]
acFont10_ASCII_56       0x080896ac      0xc  Data  Lc  F10_ASCII.o [4]
acFont10_ASCII_57       0x080896b8      0xc  Data  Lc  F10_ASCII.o [4]
acFont10_ASCII_58       0x080896c4      0xc  Data  Lc  F10_ASCII.o [4]
acFont10_ASCII_59       0x080896d0      0xc  Data  Lc  F10_ASCII.o [4]
acFont10_ASCII_60       0x080896dc      0xc  Data  Lc  F10_ASCII.o [4]
acFont10_ASCII_61       0x080896e8      0xc  Data  Lc  F10_ASCII.o [4]
acFont10_ASCII_62       0x080896f4      0xc  Data  Lc  F10_ASCII.o [4]
acFont10_ASCII_63       0x08089700      0xc  Data  Lc  F10_ASCII.o [4]
acFont10_ASCII_64       0x0808970c     0x14  Data  Lc  F10_ASCII.o [4]
acFont10_ASCII_65       0x08089720      0xc  Data  Lc  F10_ASCII.o [4]
acFont10_ASCII_66       0x0808972c      0xc  Data  Lc  F10_ASCII.o [4]
acFont10_ASCII_67       0x08089738      0xc  Data  Lc  F10_ASCII.o [4]
acFont10_ASCII_68       0x08089744      0xc  Data  Lc  F10_ASCII.o [4]
acFont10_ASCII_69       0x08089750      0xc  Data  Lc  F10_ASCII.o [4]
acFont10_ASCII_70       0x0808975c      0xc  Data  Lc  F10_ASCII.o [4]
acFont10_ASCII_71       0x08089768      0xc  Data  Lc  F10_ASCII.o [4]
acFont10_ASCII_72       0x08089774      0xc  Data  Lc  F10_ASCII.o [4]
acFont10_ASCII_73       0x08089780      0xc  Data  Lc  F10_ASCII.o [4]
acFont10_ASCII_74       0x0808978c      0xc  Data  Lc  F10_ASCII.o [4]
acFont10_ASCII_75       0x08089798      0xc  Data  Lc  F10_ASCII.o [4]
acFont10_ASCII_76       0x080897a4      0xc  Data  Lc  F10_ASCII.o [4]
acFont10_ASCII_77       0x080897b0      0xc  Data  Lc  F10_ASCII.o [4]
acFont10_ASCII_78       0x080897bc      0xc  Data  Lc  F10_ASCII.o [4]
acFont10_ASCII_79       0x080897c8      0xc  Data  Lc  F10_ASCII.o [4]
acFont10_ASCII_80       0x080897d4      0xc  Data  Lc  F10_ASCII.o [4]
acFont10_ASCII_81       0x080897e0      0xc  Data  Lc  F10_ASCII.o [4]
acFont10_ASCII_82       0x080897ec      0xc  Data  Lc  F10_ASCII.o [4]
acFont10_ASCII_83       0x080897f8      0xc  Data  Lc  F10_ASCII.o [4]
acFont10_ASCII_84       0x08089804      0xc  Data  Lc  F10_ASCII.o [4]
acFont10_ASCII_85       0x08089810      0xc  Data  Lc  F10_ASCII.o [4]
acFont10_ASCII_86       0x0808981c      0xc  Data  Lc  F10_ASCII.o [4]
acFont10_ASCII_87       0x08089828     0x14  Data  Lc  F10_ASCII.o [4]
acFont10_ASCII_88       0x0808983c      0xc  Data  Lc  F10_ASCII.o [4]
acFont10_ASCII_89       0x08089848      0xc  Data  Lc  F10_ASCII.o [4]
acFont10_ASCII_90       0x08089854      0xc  Data  Lc  F10_ASCII.o [4]
acFont10_ASCII_91       0x08089860      0xc  Data  Lc  F10_ASCII.o [4]
acFont10_ASCII_92       0x0808986c      0xc  Data  Lc  F10_ASCII.o [4]
acFont10_ASCII_93       0x08089878      0xc  Data  Lc  F10_ASCII.o [4]
acFont10_ASCII_94       0x08089884      0xc  Data  Lc  F10_ASCII.o [4]
acFont10_ASCII_95       0x08089890      0xc  Data  Lc  F10_ASCII.o [4]
acFont10_ASCII_96       0x0808989c      0xc  Data  Lc  F10_ASCII.o [4]
acFont10_ASCII_97       0x080898a8      0xc  Data  Lc  F10_ASCII.o [4]
acFont10_ASCII_98       0x080898b4      0xc  Data  Lc  F10_ASCII.o [4]
acFont10_ASCII_99       0x080898c0      0xc  Data  Lc  F10_ASCII.o [4]
acFont13ASCII_0020      0x08088470     0x10  Data  Lc  F13_ASCII.o [4]
acFont13ASCII_0021      0x08088480     0x10  Data  Lc  F13_ASCII.o [4]
acFont13ASCII_0022      0x08088490     0x10  Data  Lc  F13_ASCII.o [4]
acFont13ASCII_0023      0x080884a0     0x10  Data  Lc  F13_ASCII.o [4]
acFont13ASCII_0024      0x080884b0     0x10  Data  Lc  F13_ASCII.o [4]
acFont13ASCII_0025      0x080884c0     0x1c  Data  Lc  F13_ASCII.o [4]
acFont13ASCII_0026      0x080884dc     0x10  Data  Lc  F13_ASCII.o [4]
acFont13ASCII_0027      0x080884ec     0x10  Data  Lc  F13_ASCII.o [4]
acFont13ASCII_0028      0x080884fc     0x10  Data  Lc  F13_ASCII.o [4]
acFont13ASCII_0029      0x0808850c     0x10  Data  Lc  F13_ASCII.o [4]
acFont13ASCII_002A      0x0808851c     0x10  Data  Lc  F13_ASCII.o [4]
acFont13ASCII_002B      0x0808852c     0x10  Data  Lc  F13_ASCII.o [4]
acFont13ASCII_002C      0x0808853c     0x10  Data  Lc  F13_ASCII.o [4]
acFont13ASCII_002D      0x0808854c     0x10  Data  Lc  F13_ASCII.o [4]
acFont13ASCII_002E      0x0808855c     0x10  Data  Lc  F13_ASCII.o [4]
acFont13ASCII_002F      0x0808856c     0x10  Data  Lc  F13_ASCII.o [4]
acFont13ASCII_0030      0x0808857c     0x10  Data  Lc  F13_ASCII.o [4]
acFont13ASCII_0031      0x0808858c     0x10  Data  Lc  F13_ASCII.o [4]
acFont13ASCII_0032      0x0808859c     0x10  Data  Lc  F13_ASCII.o [4]
acFont13ASCII_0033      0x080885ac     0x10  Data  Lc  F13_ASCII.o [4]
acFont13ASCII_0034      0x080885bc     0x10  Data  Lc  F13_ASCII.o [4]
acFont13ASCII_0035      0x080885cc     0x10  Data  Lc  F13_ASCII.o [4]
acFont13ASCII_0036      0x080885dc     0x10  Data  Lc  F13_ASCII.o [4]
acFont13ASCII_0037      0x080885ec     0x10  Data  Lc  F13_ASCII.o [4]
acFont13ASCII_0038      0x080885fc     0x10  Data  Lc  F13_ASCII.o [4]
acFont13ASCII_0039      0x0808860c     0x10  Data  Lc  F13_ASCII.o [4]
acFont13ASCII_003A      0x0808861c     0x10  Data  Lc  F13_ASCII.o [4]
acFont13ASCII_003B      0x0808862c     0x10  Data  Lc  F13_ASCII.o [4]
acFont13ASCII_003C      0x0808863c     0x10  Data  Lc  F13_ASCII.o [4]
acFont13ASCII_003D      0x0808864c     0x10  Data  Lc  F13_ASCII.o [4]
acFont13ASCII_003E      0x0808865c     0x10  Data  Lc  F13_ASCII.o [4]
acFont13ASCII_003F      0x0808866c     0x10  Data  Lc  F13_ASCII.o [4]
acFont13ASCII_0040      0x0808867c     0x1c  Data  Lc  F13_ASCII.o [4]
acFont13ASCII_0041      0x08088698     0x10  Data  Lc  F13_ASCII.o [4]
acFont13ASCII_0042      0x080886a8     0x10  Data  Lc  F13_ASCII.o [4]
acFont13ASCII_0043      0x080886b8     0x10  Data  Lc  F13_ASCII.o [4]
acFont13ASCII_0044      0x080886c8     0x10  Data  Lc  F13_ASCII.o [4]
acFont13ASCII_0045      0x080886d8     0x10  Data  Lc  F13_ASCII.o [4]
acFont13ASCII_0046      0x080886e8     0x10  Data  Lc  F13_ASCII.o [4]
acFont13ASCII_0047      0x080886f8     0x10  Data  Lc  F13_ASCII.o [4]
acFont13ASCII_0048      0x08088708     0x10  Data  Lc  F13_ASCII.o [4]
acFont13ASCII_0049      0x08088718     0x10  Data  Lc  F13_ASCII.o [4]
acFont13ASCII_004A      0x08088728     0x10  Data  Lc  F13_ASCII.o [4]
acFont13ASCII_004B      0x08088738     0x10  Data  Lc  F13_ASCII.o [4]
acFont13ASCII_004C      0x08088748     0x10  Data  Lc  F13_ASCII.o [4]
acFont13ASCII_004D      0x08088758     0x10  Data  Lc  F13_ASCII.o [4]
acFont13ASCII_004E      0x08088768     0x10  Data  Lc  F13_ASCII.o [4]
acFont13ASCII_004F      0x08088778     0x10  Data  Lc  F13_ASCII.o [4]
acFont13ASCII_0050      0x08088788     0x10  Data  Lc  F13_ASCII.o [4]
acFont13ASCII_0051      0x08088798     0x10  Data  Lc  F13_ASCII.o [4]
acFont13ASCII_0052      0x080887a8     0x10  Data  Lc  F13_ASCII.o [4]
acFont13ASCII_0053      0x080887b8     0x10  Data  Lc  F13_ASCII.o [4]
acFont13ASCII_0054      0x080887c8     0x10  Data  Lc  F13_ASCII.o [4]
acFont13ASCII_0055      0x080887d8     0x10  Data  Lc  F13_ASCII.o [4]
acFont13ASCII_0056      0x080887e8     0x10  Data  Lc  F13_ASCII.o [4]
acFont13ASCII_0057      0x080887f8     0x1c  Data  Lc  F13_ASCII.o [4]
acFont13ASCII_0058      0x08088814     0x10  Data  Lc  F13_ASCII.o [4]
acFont13ASCII_0059      0x08088824     0x10  Data  Lc  F13_ASCII.o [4]
acFont13ASCII_005A      0x08088834     0x10  Data  Lc  F13_ASCII.o [4]
acFont13ASCII_005B      0x08088844     0x10  Data  Lc  F13_ASCII.o [4]
acFont13ASCII_005C      0x08088854     0x10  Data  Lc  F13_ASCII.o [4]
acFont13ASCII_005D      0x08088864     0x10  Data  Lc  F13_ASCII.o [4]
acFont13ASCII_005E      0x08088874     0x10  Data  Lc  F13_ASCII.o [4]
acFont13ASCII_005F      0x08088884     0x10  Data  Lc  F13_ASCII.o [4]
acFont13ASCII_0060      0x08088894     0x10  Data  Lc  F13_ASCII.o [4]
acFont13ASCII_0061      0x080888a4     0x10  Data  Lc  F13_ASCII.o [4]
acFont13ASCII_0062      0x080888b4     0x10  Data  Lc  F13_ASCII.o [4]
acFont13ASCII_0063      0x080888c4     0x10  Data  Lc  F13_ASCII.o [4]
acFont13ASCII_0064      0x080888d4     0x10  Data  Lc  F13_ASCII.o [4]
acFont13ASCII_0065      0x080888e4     0x10  Data  Lc  F13_ASCII.o [4]
acFont13ASCII_0066      0x080888f4     0x10  Data  Lc  F13_ASCII.o [4]
acFont13ASCII_0067      0x08088904     0x10  Data  Lc  F13_ASCII.o [4]
acFont13ASCII_0068      0x08088914     0x10  Data  Lc  F13_ASCII.o [4]
acFont13ASCII_0069      0x08088924     0x10  Data  Lc  F13_ASCII.o [4]
acFont13ASCII_006A      0x08088934     0x10  Data  Lc  F13_ASCII.o [4]
acFont13ASCII_006B      0x08088944     0x10  Data  Lc  F13_ASCII.o [4]
acFont13ASCII_006C      0x08088954     0x10  Data  Lc  F13_ASCII.o [4]
acFont13ASCII_006D      0x08088964     0x10  Data  Lc  F13_ASCII.o [4]
acFont13ASCII_006E      0x08088974     0x10  Data  Lc  F13_ASCII.o [4]
acFont13ASCII_006F      0x08088984     0x10  Data  Lc  F13_ASCII.o [4]
acFont13ASCII_0070      0x08088994     0x10  Data  Lc  F13_ASCII.o [4]
acFont13ASCII_0071      0x080889a4     0x10  Data  Lc  F13_ASCII.o [4]
acFont13ASCII_0072      0x080889b4     0x10  Data  Lc  F13_ASCII.o [4]
acFont13ASCII_0073      0x080889c4     0x10  Data  Lc  F13_ASCII.o [4]
acFont13ASCII_0074      0x080889d4     0x10  Data  Lc  F13_ASCII.o [4]
acFont13ASCII_0075      0x080889e4     0x10  Data  Lc  F13_ASCII.o [4]
acFont13ASCII_0076      0x080889f4     0x10  Data  Lc  F13_ASCII.o [4]
acFont13ASCII_0077      0x08088a04     0x10  Data  Lc  F13_ASCII.o [4]
acFont13ASCII_0078      0x08088a14     0x10  Data  Lc  F13_ASCII.o [4]
acFont13ASCII_0079      0x08088a24     0x10  Data  Lc  F13_ASCII.o [4]
acFont13ASCII_007A      0x08088a34     0x10  Data  Lc  F13_ASCII.o [4]
acFont13ASCII_007B      0x08088a44     0x10  Data  Lc  F13_ASCII.o [4]
acFont13ASCII_007C      0x08088a54     0x10  Data  Lc  F13_ASCII.o [4]
acFont13ASCII_007D      0x08088a64     0x10  Data  Lc  F13_ASCII.o [4]
acFont13ASCII_007E      0x08088a74     0x10  Data  Lc  F13_ASCII.o [4]
acFont13B_1_00A0        0x0808712c     0x10  Data  Lc  F13B_1.o [4]
acFont13B_1_00A1        0x0808713c     0x10  Data  Lc  F13B_1.o [4]
acFont13B_1_00A2        0x0808714c     0x10  Data  Lc  F13B_1.o [4]
acFont13B_1_00A3        0x0808715c     0x10  Data  Lc  F13B_1.o [4]
acFont13B_1_00A4        0x0808716c     0x10  Data  Lc  F13B_1.o [4]
acFont13B_1_00A5        0x0808717c     0x10  Data  Lc  F13B_1.o [4]
acFont13B_1_00A6        0x0808718c     0x10  Data  Lc  F13B_1.o [4]
acFont13B_1_00A7        0x0808719c     0x10  Data  Lc  F13B_1.o [4]
acFont13B_1_00A8        0x080871ac     0x10  Data  Lc  F13B_1.o [4]
acFont13B_1_00A9        0x080871bc     0x1c  Data  Lc  F13B_1.o [4]
acFont13B_1_00AA        0x080871d8     0x10  Data  Lc  F13B_1.o [4]
acFont13B_1_00AB        0x080871e8     0x10  Data  Lc  F13B_1.o [4]
acFont13B_1_00AC        0x080871f8     0x1c  Data  Lc  F13B_1.o [4]
acFont13B_1_00AD        0x08087214     0x10  Data  Lc  F13B_1.o [4]
acFont13B_1_00AE        0x08087224     0x1c  Data  Lc  F13B_1.o [4]
acFont13B_1_00AF        0x08087240     0x10  Data  Lc  F13B_1.o [4]
acFont13B_1_00B0        0x08087250     0x10  Data  Lc  F13B_1.o [4]
acFont13B_1_00B1        0x08087260     0x1c  Data  Lc  F13B_1.o [4]
acFont13B_1_00B2        0x0808727c     0x10  Data  Lc  F13B_1.o [4]
acFont13B_1_00B3        0x0808728c     0x10  Data  Lc  F13B_1.o [4]
acFont13B_1_00B4        0x0808729c     0x10  Data  Lc  F13B_1.o [4]
acFont13B_1_00B5        0x080872ac     0x10  Data  Lc  F13B_1.o [4]
acFont13B_1_00B6        0x080872bc     0x10  Data  Lc  F13B_1.o [4]
acFont13B_1_00B7        0x080872cc     0x10  Data  Lc  F13B_1.o [4]
acFont13B_1_00B8        0x080872dc     0x10  Data  Lc  F13B_1.o [4]
acFont13B_1_00B9        0x080872ec     0x10  Data  Lc  F13B_1.o [4]
acFont13B_1_00BA        0x080872fc     0x10  Data  Lc  F13B_1.o [4]
acFont13B_1_00BB        0x0808730c     0x10  Data  Lc  F13B_1.o [4]
acFont13B_1_00BC        0x0808731c     0x1c  Data  Lc  F13B_1.o [4]
acFont13B_1_00BD        0x08087338     0x1c  Data  Lc  F13B_1.o [4]
acFont13B_1_00BE        0x08087354     0x1c  Data  Lc  F13B_1.o [4]
acFont13B_1_00BF        0x08087370     0x10  Data  Lc  F13B_1.o [4]
acFont13B_1_00C0        0x08087380     0x10  Data  Lc  F13B_1.o [4]
acFont13B_1_00C1        0x08087390     0x10  Data  Lc  F13B_1.o [4]
acFont13B_1_00C2        0x080873a0     0x10  Data  Lc  F13B_1.o [4]
acFont13B_1_00C3        0x080873b0     0x10  Data  Lc  F13B_1.o [4]
acFont13B_1_00C4        0x080873c0     0x10  Data  Lc  F13B_1.o [4]
acFont13B_1_00C5        0x080873d0     0x10  Data  Lc  F13B_1.o [4]
acFont13B_1_00C6        0x080873e0     0x1c  Data  Lc  F13B_1.o [4]
acFont13B_1_00C7        0x080873fc     0x10  Data  Lc  F13B_1.o [4]
acFont13B_1_00C8        0x0808740c     0x10  Data  Lc  F13B_1.o [4]
acFont13B_1_00C9        0x0808741c     0x10  Data  Lc  F13B_1.o [4]
acFont13B_1_00CA        0x0808742c     0x10  Data  Lc  F13B_1.o [4]
acFont13B_1_00CB        0x0808743c     0x10  Data  Lc  F13B_1.o [4]
acFont13B_1_00CC        0x0808744c     0x10  Data  Lc  F13B_1.o [4]
acFont13B_1_00CD        0x0808745c     0x10  Data  Lc  F13B_1.o [4]
acFont13B_1_00CE        0x0808746c     0x10  Data  Lc  F13B_1.o [4]
acFont13B_1_00CF        0x0808747c     0x10  Data  Lc  F13B_1.o [4]
acFont13B_1_00D0        0x0808748c     0x1c  Data  Lc  F13B_1.o [4]
acFont13B_1_00D1        0x080874a8     0x10  Data  Lc  F13B_1.o [4]
acFont13B_1_00D2        0x080874b8     0x10  Data  Lc  F13B_1.o [4]
acFont13B_1_00D3        0x080874c8     0x10  Data  Lc  F13B_1.o [4]
acFont13B_1_00D4        0x080874d8     0x10  Data  Lc  F13B_1.o [4]
acFont13B_1_00D5        0x080874e8     0x10  Data  Lc  F13B_1.o [4]
acFont13B_1_00D6        0x080874f8     0x10  Data  Lc  F13B_1.o [4]
acFont13B_1_00D7        0x08087508     0x1c  Data  Lc  F13B_1.o [4]
acFont13B_1_00D8        0x08087524     0x10  Data  Lc  F13B_1.o [4]
acFont13B_1_00D9        0x08087534     0x10  Data  Lc  F13B_1.o [4]
acFont13B_1_00DA        0x08087544     0x10  Data  Lc  F13B_1.o [4]
acFont13B_1_00DB        0x08087554     0x10  Data  Lc  F13B_1.o [4]
acFont13B_1_00DC        0x08087564     0x10  Data  Lc  F13B_1.o [4]
acFont13B_1_00DD        0x08087574     0x10  Data  Lc  F13B_1.o [4]
acFont13B_1_00DE        0x08087584     0x10  Data  Lc  F13B_1.o [4]
acFont13B_1_00DF        0x08087594     0x10  Data  Lc  F13B_1.o [4]
acFont13B_1_00E0        0x080875a4     0x10  Data  Lc  F13B_1.o [4]
acFont13B_1_00E1        0x080875b4     0x10  Data  Lc  F13B_1.o [4]
acFont13B_1_00E2        0x080875c4     0x10  Data  Lc  F13B_1.o [4]
acFont13B_1_00E3        0x080875d4     0x10  Data  Lc  F13B_1.o [4]
acFont13B_1_00E4        0x080875e4     0x10  Data  Lc  F13B_1.o [4]
acFont13B_1_00E5        0x080875f4     0x10  Data  Lc  F13B_1.o [4]
acFont13B_1_00E6        0x08087604     0x1c  Data  Lc  F13B_1.o [4]
acFont13B_1_00E7        0x08087620     0x10  Data  Lc  F13B_1.o [4]
acFont13B_1_00E8        0x08087630     0x10  Data  Lc  F13B_1.o [4]
acFont13B_1_00E9        0x08087640     0x10  Data  Lc  F13B_1.o [4]
acFont13B_1_00EA        0x08087650     0x10  Data  Lc  F13B_1.o [4]
acFont13B_1_00EB        0x08087660     0x10  Data  Lc  F13B_1.o [4]
acFont13B_1_00EC        0x08087670     0x10  Data  Lc  F13B_1.o [4]
acFont13B_1_00ED        0x08087680     0x10  Data  Lc  F13B_1.o [4]
acFont13B_1_00EE        0x08087690     0x10  Data  Lc  F13B_1.o [4]
acFont13B_1_00EF        0x080876a0     0x10  Data  Lc  F13B_1.o [4]
acFont13B_1_00F0        0x080876b0     0x10  Data  Lc  F13B_1.o [4]
acFont13B_1_00F1        0x080876c0     0x10  Data  Lc  F13B_1.o [4]
acFont13B_1_00F2        0x080876d0     0x10  Data  Lc  F13B_1.o [4]
acFont13B_1_00F3        0x080876e0     0x10  Data  Lc  F13B_1.o [4]
acFont13B_1_00F4        0x080876f0     0x10  Data  Lc  F13B_1.o [4]
acFont13B_1_00F5        0x08087700     0x10  Data  Lc  F13B_1.o [4]
acFont13B_1_00F6        0x08087710     0x10  Data  Lc  F13B_1.o [4]
acFont13B_1_00F7        0x08087720     0x1c  Data  Lc  F13B_1.o [4]
acFont13B_1_00F8        0x0808773c     0x10  Data  Lc  F13B_1.o [4]
acFont13B_1_00F9        0x0808774c     0x10  Data  Lc  F13B_1.o [4]
acFont13B_1_00FA        0x0808775c     0x10  Data  Lc  F13B_1.o [4]
acFont13B_1_00FB        0x0808776c     0x10  Data  Lc  F13B_1.o [4]
acFont13B_1_00FC        0x0808777c     0x10  Data  Lc  F13B_1.o [4]
acFont13B_1_00FD        0x0808778c     0x10  Data  Lc  F13B_1.o [4]
acFont13B_1_00FE        0x0808779c     0x10  Data  Lc  F13B_1.o [4]
acFont13B_1_00FF        0x080877ac     0x10  Data  Lc  F13B_1.o [4]
acFont13B_ASCII_0020    0x0808676c     0x10  Data  Lc  F13B_ASCII.o [4]
acFont13B_ASCII_0021    0x0808677c     0x10  Data  Lc  F13B_ASCII.o [4]
acFont13B_ASCII_0022    0x0808678c     0x10  Data  Lc  F13B_ASCII.o [4]
acFont13B_ASCII_0023    0x0808679c     0x1c  Data  Lc  F13B_ASCII.o [4]
acFont13B_ASCII_0024    0x080867b8     0x10  Data  Lc  F13B_ASCII.o [4]
acFont13B_ASCII_0025    0x080867c8     0x1c  Data  Lc  F13B_ASCII.o [4]
acFont13B_ASCII_0026    0x080867e4     0x1c  Data  Lc  F13B_ASCII.o [4]
acFont13B_ASCII_0027    0x08086800     0x10  Data  Lc  F13B_ASCII.o [4]
acFont13B_ASCII_0028    0x08086810     0x10  Data  Lc  F13B_ASCII.o [4]
acFont13B_ASCII_0029    0x08086820     0x10  Data  Lc  F13B_ASCII.o [4]
acFont13B_ASCII_002A    0x08086830     0x10  Data  Lc  F13B_ASCII.o [4]
acFont13B_ASCII_002B    0x08086840     0x1c  Data  Lc  F13B_ASCII.o [4]
acFont13B_ASCII_002C    0x0808685c     0x10  Data  Lc  F13B_ASCII.o [4]
acFont13B_ASCII_002D    0x0808686c     0x10  Data  Lc  F13B_ASCII.o [4]
acFont13B_ASCII_002E    0x0808687c     0x10  Data  Lc  F13B_ASCII.o [4]
acFont13B_ASCII_002F    0x0808688c     0x10  Data  Lc  F13B_ASCII.o [4]
acFont13B_ASCII_0030    0x0808689c     0x10  Data  Lc  F13B_ASCII.o [4]
acFont13B_ASCII_0031    0x080868ac     0x10  Data  Lc  F13B_ASCII.o [4]
acFont13B_ASCII_0032    0x080868bc     0x10  Data  Lc  F13B_ASCII.o [4]
acFont13B_ASCII_0033    0x080868cc     0x10  Data  Lc  F13B_ASCII.o [4]
acFont13B_ASCII_0034    0x080868dc     0x10  Data  Lc  F13B_ASCII.o [4]
acFont13B_ASCII_0035    0x080868ec     0x10  Data  Lc  F13B_ASCII.o [4]
acFont13B_ASCII_0036    0x080868fc     0x10  Data  Lc  F13B_ASCII.o [4]
acFont13B_ASCII_0037    0x0808690c     0x10  Data  Lc  F13B_ASCII.o [4]
acFont13B_ASCII_0038    0x0808691c     0x10  Data  Lc  F13B_ASCII.o [4]
acFont13B_ASCII_0039    0x0808692c     0x10  Data  Lc  F13B_ASCII.o [4]
acFont13B_ASCII_003A    0x0808693c     0x10  Data  Lc  F13B_ASCII.o [4]
acFont13B_ASCII_003B    0x0808694c     0x10  Data  Lc  F13B_ASCII.o [4]
acFont13B_ASCII_003C    0x0808695c     0x1c  Data  Lc  F13B_ASCII.o [4]
acFont13B_ASCII_003D    0x08086978     0x1c  Data  Lc  F13B_ASCII.o [4]
acFont13B_ASCII_003E    0x08086994     0x1c  Data  Lc  F13B_ASCII.o [4]
acFont13B_ASCII_003F    0x080869b0     0x10  Data  Lc  F13B_ASCII.o [4]
acFont13B_ASCII_0040    0x080869c0     0x1c  Data  Lc  F13B_ASCII.o [4]
acFont13B_ASCII_0041    0x080869dc     0x10  Data  Lc  F13B_ASCII.o [4]
acFont13B_ASCII_0042    0x080869ec     0x10  Data  Lc  F13B_ASCII.o [4]
acFont13B_ASCII_0043    0x080869fc     0x10  Data  Lc  F13B_ASCII.o [4]
acFont13B_ASCII_0044    0x08086a0c     0x10  Data  Lc  F13B_ASCII.o [4]
acFont13B_ASCII_0045    0x08086a1c     0x10  Data  Lc  F13B_ASCII.o [4]
acFont13B_ASCII_0046    0x08086a2c     0x10  Data  Lc  F13B_ASCII.o [4]
acFont13B_ASCII_0047    0x08086a3c     0x10  Data  Lc  F13B_ASCII.o [4]
acFont13B_ASCII_0048    0x08086a4c     0x10  Data  Lc  F13B_ASCII.o [4]
acFont13B_ASCII_0049    0x08086a5c     0x10  Data  Lc  F13B_ASCII.o [4]
acFont13B_ASCII_004A    0x08086a6c     0x10  Data  Lc  F13B_ASCII.o [4]
acFont13B_ASCII_004B    0x08086a7c     0x10  Data  Lc  F13B_ASCII.o [4]
acFont13B_ASCII_004C    0x08086a8c     0x10  Data  Lc  F13B_ASCII.o [4]
acFont13B_ASCII_004D    0x08086a9c     0x1c  Data  Lc  F13B_ASCII.o [4]
acFont13B_ASCII_004E    0x08086ab8     0x10  Data  Lc  F13B_ASCII.o [4]
acFont13B_ASCII_004F    0x08086ac8     0x10  Data  Lc  F13B_ASCII.o [4]
acFont13B_ASCII_0050    0x08086ad8     0x10  Data  Lc  F13B_ASCII.o [4]
acFont13B_ASCII_0051    0x08086ae8     0x10  Data  Lc  F13B_ASCII.o [4]
acFont13B_ASCII_0052    0x08086af8     0x10  Data  Lc  F13B_ASCII.o [4]
acFont13B_ASCII_0053    0x08086b08     0x10  Data  Lc  F13B_ASCII.o [4]
acFont13B_ASCII_0054    0x08086b18     0x10  Data  Lc  F13B_ASCII.o [4]
acFont13B_ASCII_0055    0x08086b28     0x10  Data  Lc  F13B_ASCII.o [4]
acFont13B_ASCII_0056    0x08086b38     0x10  Data  Lc  F13B_ASCII.o [4]
acFont13B_ASCII_0057    0x08086b48     0x1c  Data  Lc  F13B_ASCII.o [4]
acFont13B_ASCII_0058    0x08086b64     0x10  Data  Lc  F13B_ASCII.o [4]
acFont13B_ASCII_0059    0x08086b74     0x10  Data  Lc  F13B_ASCII.o [4]
acFont13B_ASCII_005A    0x08086b84     0x10  Data  Lc  F13B_ASCII.o [4]
acFont13B_ASCII_005B    0x08086b94     0x10  Data  Lc  F13B_ASCII.o [4]
acFont13B_ASCII_005C    0x08086ba4     0x10  Data  Lc  F13B_ASCII.o [4]
acFont13B_ASCII_005D    0x08086bb4     0x10  Data  Lc  F13B_ASCII.o [4]
acFont13B_ASCII_005E    0x08086bc4     0x1c  Data  Lc  F13B_ASCII.o [4]
acFont13B_ASCII_005F    0x08086be0     0x10  Data  Lc  F13B_ASCII.o [4]
acFont13B_ASCII_0060    0x08086bf0     0x10  Data  Lc  F13B_ASCII.o [4]
acFont13B_ASCII_0061    0x08086c00     0x10  Data  Lc  F13B_ASCII.o [4]
acFont13B_ASCII_0062    0x08086c10     0x10  Data  Lc  F13B_ASCII.o [4]
acFont13B_ASCII_0063    0x08086c20     0x10  Data  Lc  F13B_ASCII.o [4]
acFont13B_ASCII_0064    0x08086c30     0x10  Data  Lc  F13B_ASCII.o [4]
acFont13B_ASCII_0065    0x08086c40     0x10  Data  Lc  F13B_ASCII.o [4]
acFont13B_ASCII_0066    0x08086c50     0x10  Data  Lc  F13B_ASCII.o [4]
acFont13B_ASCII_0067    0x08086c60     0x10  Data  Lc  F13B_ASCII.o [4]
acFont13B_ASCII_0068    0x08086c70     0x10  Data  Lc  F13B_ASCII.o [4]
acFont13B_ASCII_0069    0x08086c80     0x10  Data  Lc  F13B_ASCII.o [4]
acFont13B_ASCII_006A    0x08086c90     0x10  Data  Lc  F13B_ASCII.o [4]
acFont13B_ASCII_006B    0x08086ca0     0x10  Data  Lc  F13B_ASCII.o [4]
acFont13B_ASCII_006C    0x08086cb0     0x10  Data  Lc  F13B_ASCII.o [4]
acFont13B_ASCII_006D    0x08086cc0     0x1c  Data  Lc  F13B_ASCII.o [4]
acFont13B_ASCII_006E    0x08086cdc     0x10  Data  Lc  F13B_ASCII.o [4]
acFont13B_ASCII_006F    0x08086cec     0x10  Data  Lc  F13B_ASCII.o [4]
acFont13B_ASCII_0070    0x08086cfc     0x10  Data  Lc  F13B_ASCII.o [4]
acFont13B_ASCII_0071    0x08086d0c     0x10  Data  Lc  F13B_ASCII.o [4]
acFont13B_ASCII_0072    0x08086d1c     0x10  Data  Lc  F13B_ASCII.o [4]
acFont13B_ASCII_0073    0x08086d2c     0x10  Data  Lc  F13B_ASCII.o [4]
acFont13B_ASCII_0074    0x08086d3c     0x10  Data  Lc  F13B_ASCII.o [4]
acFont13B_ASCII_0075    0x08086d4c     0x10  Data  Lc  F13B_ASCII.o [4]
acFont13B_ASCII_0076    0x08086d5c     0x10  Data  Lc  F13B_ASCII.o [4]
acFont13B_ASCII_0077    0x08086d6c     0x1c  Data  Lc  F13B_ASCII.o [4]
acFont13B_ASCII_0078    0x08086d88     0x10  Data  Lc  F13B_ASCII.o [4]
acFont13B_ASCII_0079    0x08086d98     0x10  Data  Lc  F13B_ASCII.o [4]
acFont13B_ASCII_007A    0x08086da8     0x10  Data  Lc  F13B_ASCII.o [4]
acFont13B_ASCII_007B    0x08086db8     0x10  Data  Lc  F13B_ASCII.o [4]
acFont13B_ASCII_007C    0x08086dc8     0x10  Data  Lc  F13B_ASCII.o [4]
acFont13B_ASCII_007D    0x08086dd8     0x10  Data  Lc  F13B_ASCII.o [4]
acFont13B_ASCII_007E    0x08086de8     0x1c  Data  Lc  F13B_ASCII.o [4]
acFont13_1_00A0         0x08087aec     0x10  Data  Lc  F13_1.o [4]
acFont13_1_00A1         0x08087afc     0x10  Data  Lc  F13_1.o [4]
acFont13_1_00A2         0x08087b0c     0x10  Data  Lc  F13_1.o [4]
acFont13_1_00A3         0x08087b1c     0x10  Data  Lc  F13_1.o [4]
acFont13_1_00A4         0x08087b2c     0x10  Data  Lc  F13_1.o [4]
acFont13_1_00A5         0x08087b3c     0x10  Data  Lc  F13_1.o [4]
acFont13_1_00A6         0x08087b4c     0x10  Data  Lc  F13_1.o [4]
acFont13_1_00A7         0x08087b5c     0x10  Data  Lc  F13_1.o [4]
acFont13_1_00A8         0x08087b6c     0x10  Data  Lc  F13_1.o [4]
acFont13_1_00A9         0x08087b7c     0x1c  Data  Lc  F13_1.o [4]
acFont13_1_00AA         0x08087b98     0x10  Data  Lc  F13_1.o [4]
acFont13_1_00AB         0x08087ba8     0x10  Data  Lc  F13_1.o [4]
acFont13_1_00AC         0x08087bb8     0x10  Data  Lc  F13_1.o [4]
acFont13_1_00AD         0x08087bc8     0x10  Data  Lc  F13_1.o [4]
acFont13_1_00AE         0x08087bd8     0x1c  Data  Lc  F13_1.o [4]
acFont13_1_00AF         0x08087bf4     0x10  Data  Lc  F13_1.o [4]
acFont13_1_00B0         0x08087c04     0x10  Data  Lc  F13_1.o [4]
acFont13_1_00B1         0x08087c14     0x10  Data  Lc  F13_1.o [4]
acFont13_1_00B2         0x08087c24     0x10  Data  Lc  F13_1.o [4]
acFont13_1_00B3         0x08087c34     0x10  Data  Lc  F13_1.o [4]
acFont13_1_00B4         0x08087c44     0x10  Data  Lc  F13_1.o [4]
acFont13_1_00B5         0x08087c54     0x10  Data  Lc  F13_1.o [4]
acFont13_1_00B6         0x08087c64     0x10  Data  Lc  F13_1.o [4]
acFont13_1_00B7         0x08087c74     0x10  Data  Lc  F13_1.o [4]
acFont13_1_00B8         0x08087c84     0x10  Data  Lc  F13_1.o [4]
acFont13_1_00B9         0x08087c94     0x10  Data  Lc  F13_1.o [4]
acFont13_1_00BA         0x08087ca4     0x10  Data  Lc  F13_1.o [4]
acFont13_1_00BB         0x08087cb4     0x10  Data  Lc  F13_1.o [4]
acFont13_1_00BC         0x08087cc4     0x1c  Data  Lc  F13_1.o [4]
acFont13_1_00BD         0x08087ce0     0x1c  Data  Lc  F13_1.o [4]
acFont13_1_00BE         0x08087cfc     0x1c  Data  Lc  F13_1.o [4]
acFont13_1_00BF         0x08087d18     0x10  Data  Lc  F13_1.o [4]
acFont13_1_00C0         0x08087d28     0x10  Data  Lc  F13_1.o [4]
acFont13_1_00C1         0x08087d38     0x10  Data  Lc  F13_1.o [4]
acFont13_1_00C2         0x08087d48     0x10  Data  Lc  F13_1.o [4]
acFont13_1_00C3         0x08087d58     0x10  Data  Lc  F13_1.o [4]
acFont13_1_00C4         0x08087d68     0x10  Data  Lc  F13_1.o [4]
acFont13_1_00C5         0x08087d78     0x10  Data  Lc  F13_1.o [4]
acFont13_1_00C6         0x08087d88     0x1c  Data  Lc  F13_1.o [4]
acFont13_1_00C7         0x08087da4     0x10  Data  Lc  F13_1.o [4]
acFont13_1_00C8         0x08087db4     0x10  Data  Lc  F13_1.o [4]
acFont13_1_00C9         0x08087dc4     0x10  Data  Lc  F13_1.o [4]
acFont13_1_00CA         0x08087dd4     0x10  Data  Lc  F13_1.o [4]
acFont13_1_00CB         0x08087de4     0x10  Data  Lc  F13_1.o [4]
acFont13_1_00CC         0x08087df4     0x10  Data  Lc  F13_1.o [4]
acFont13_1_00CD         0x08087e04     0x10  Data  Lc  F13_1.o [4]
acFont13_1_00CE         0x08087e14     0x10  Data  Lc  F13_1.o [4]
acFont13_1_00CF         0x08087e24     0x10  Data  Lc  F13_1.o [4]
acFont13_1_00D0         0x08087e34     0x10  Data  Lc  F13_1.o [4]
acFont13_1_00D1         0x08087e44     0x10  Data  Lc  F13_1.o [4]
acFont13_1_00D2         0x08087e54     0x10  Data  Lc  F13_1.o [4]
acFont13_1_00D3         0x08087e64     0x10  Data  Lc  F13_1.o [4]
acFont13_1_00D4         0x08087e74     0x10  Data  Lc  F13_1.o [4]
acFont13_1_00D5         0x08087e84     0x10  Data  Lc  F13_1.o [4]
acFont13_1_00D6         0x08087e94     0x10  Data  Lc  F13_1.o [4]
acFont13_1_00D7         0x08087ea4     0x10  Data  Lc  F13_1.o [4]
acFont13_1_00D8         0x08087eb4     0x10  Data  Lc  F13_1.o [4]
acFont13_1_00D9         0x08087ec4     0x10  Data  Lc  F13_1.o [4]
acFont13_1_00DA         0x08087ed4     0x10  Data  Lc  F13_1.o [4]
acFont13_1_00DB         0x08087ee4     0x10  Data  Lc  F13_1.o [4]
acFont13_1_00DC         0x08087ef4     0x10  Data  Lc  F13_1.o [4]
acFont13_1_00DD         0x08087f04     0x10  Data  Lc  F13_1.o [4]
acFont13_1_00DE         0x08087f14     0x10  Data  Lc  F13_1.o [4]
acFont13_1_00DF         0x08087f24     0x10  Data  Lc  F13_1.o [4]
acFont13_1_00E0         0x08087f34     0x10  Data  Lc  F13_1.o [4]
acFont13_1_00E1         0x08087f44     0x10  Data  Lc  F13_1.o [4]
acFont13_1_00E2         0x08087f54     0x10  Data  Lc  F13_1.o [4]
acFont13_1_00E3         0x08087f64     0x10  Data  Lc  F13_1.o [4]
acFont13_1_00E4         0x08087f74     0x10  Data  Lc  F13_1.o [4]
acFont13_1_00E5         0x08087f84     0x10  Data  Lc  F13_1.o [4]
acFont13_1_00E6         0x08087f94     0x1c  Data  Lc  F13_1.o [4]
acFont13_1_00E7         0x08087fb0     0x10  Data  Lc  F13_1.o [4]
acFont13_1_00E8         0x08087fc0     0x10  Data  Lc  F13_1.o [4]
acFont13_1_00E9         0x08087fd0     0x10  Data  Lc  F13_1.o [4]
acFont13_1_00EA         0x08087fe0     0x10  Data  Lc  F13_1.o [4]
acFont13_1_00EB         0x08087ff0     0x10  Data  Lc  F13_1.o [4]
acFont13_1_00EC         0x08088000     0x10  Data  Lc  F13_1.o [4]
acFont13_1_00ED         0x08088010     0x10  Data  Lc  F13_1.o [4]
acFont13_1_00EE         0x08088020     0x10  Data  Lc  F13_1.o [4]
acFont13_1_00EF         0x08088030     0x10  Data  Lc  F13_1.o [4]
acFont13_1_00F0         0x08088040     0x10  Data  Lc  F13_1.o [4]
acFont13_1_00F1         0x08088050     0x10  Data  Lc  F13_1.o [4]
acFont13_1_00F2         0x08088060     0x10  Data  Lc  F13_1.o [4]
acFont13_1_00F3         0x08088070     0x10  Data  Lc  F13_1.o [4]
acFont13_1_00F4         0x08088080     0x10  Data  Lc  F13_1.o [4]
acFont13_1_00F5         0x08088090     0x10  Data  Lc  F13_1.o [4]
acFont13_1_00F6         0x080880a0     0x10  Data  Lc  F13_1.o [4]
acFont13_1_00F7         0x080880b0     0x10  Data  Lc  F13_1.o [4]
acFont13_1_00F8         0x080880c0     0x10  Data  Lc  F13_1.o [4]
acFont13_1_00F9         0x080880d0     0x10  Data  Lc  F13_1.o [4]
acFont13_1_00FA         0x080880e0     0x10  Data  Lc  F13_1.o [4]
acFont13_1_00FB         0x080880f0     0x10  Data  Lc  F13_1.o [4]
acFont13_1_00FC         0x08088100     0x10  Data  Lc  F13_1.o [4]
acFont13_1_00FD         0x08088110     0x10  Data  Lc  F13_1.o [4]
acFont13_1_00FE         0x08088120     0x10  Data  Lc  F13_1.o [4]
acFont13_1_00FF         0x08088130     0x10  Data  Lc  F13_1.o [4]
acFont16ASCII_100       0x080843b0     0x10  Data  Lc  F16_ASCII.o [4]
acFont16ASCII_101       0x080843c0     0x10  Data  Lc  F16_ASCII.o [4]
acFont16ASCII_102       0x080843d0     0x10  Data  Lc  F16_ASCII.o [4]
acFont16ASCII_103       0x080843e0     0x10  Data  Lc  F16_ASCII.o [4]
acFont16ASCII_104       0x080843f0     0x10  Data  Lc  F16_ASCII.o [4]
acFont16ASCII_105       0x08084400     0x10  Data  Lc  F16_ASCII.o [4]
acFont16ASCII_106       0x08084410     0x10  Data  Lc  F16_ASCII.o [4]
acFont16ASCII_107       0x08084420     0x10  Data  Lc  F16_ASCII.o [4]
acFont16ASCII_108       0x08084430     0x10  Data  Lc  F16_ASCII.o [4]
acFont16ASCII_109       0x08084440     0x20  Data  Lc  F16_ASCII.o [4]
acFont16ASCII_110       0x08084460     0x10  Data  Lc  F16_ASCII.o [4]
acFont16ASCII_111       0x08084470     0x10  Data  Lc  F16_ASCII.o [4]
acFont16ASCII_112       0x08084480     0x10  Data  Lc  F16_ASCII.o [4]
acFont16ASCII_113       0x08084490     0x10  Data  Lc  F16_ASCII.o [4]
acFont16ASCII_114       0x080844a0     0x10  Data  Lc  F16_ASCII.o [4]
acFont16ASCII_115       0x080844b0     0x10  Data  Lc  F16_ASCII.o [4]
acFont16ASCII_116       0x080844c0     0x10  Data  Lc  F16_ASCII.o [4]
acFont16ASCII_117       0x080844d0     0x10  Data  Lc  F16_ASCII.o [4]
acFont16ASCII_118       0x080844e0     0x10  Data  Lc  F16_ASCII.o [4]
acFont16ASCII_119       0x080844f0     0x20  Data  Lc  F16_ASCII.o [4]
acFont16ASCII_120       0x08084510     0x10  Data  Lc  F16_ASCII.o [4]
acFont16ASCII_121       0x08084520     0x10  Data  Lc  F16_ASCII.o [4]
acFont16ASCII_122       0x08084530     0x10  Data  Lc  F16_ASCII.o [4]
acFont16ASCII_123       0x08084540     0x10  Data  Lc  F16_ASCII.o [4]
acFont16ASCII_124       0x08084550     0x10  Data  Lc  F16_ASCII.o [4]
acFont16ASCII_125       0x08084560     0x10  Data  Lc  F16_ASCII.o [4]
acFont16ASCII_126       0x08084570     0x10  Data  Lc  F16_ASCII.o [4]
acFont16ASCII_32        0x08083e10     0x10  Data  Lc  F16_ASCII.o [4]
acFont16ASCII_33        0x08083e20     0x10  Data  Lc  F16_ASCII.o [4]
acFont16ASCII_34        0x08083e30     0x10  Data  Lc  F16_ASCII.o [4]
acFont16ASCII_35        0x08083e40     0x10  Data  Lc  F16_ASCII.o [4]
acFont16ASCII_36        0x08083e50     0x10  Data  Lc  F16_ASCII.o [4]
acFont16ASCII_37        0x08083e60     0x20  Data  Lc  F16_ASCII.o [4]
acFont16ASCII_38        0x08083e80     0x20  Data  Lc  F16_ASCII.o [4]
acFont16ASCII_39        0x08083ea0     0x10  Data  Lc  F16_ASCII.o [4]
acFont16ASCII_40        0x08083eb0     0x10  Data  Lc  F16_ASCII.o [4]
acFont16ASCII_41        0x08083ec0     0x10  Data  Lc  F16_ASCII.o [4]
acFont16ASCII_42        0x08083ed0     0x10  Data  Lc  F16_ASCII.o [4]
acFont16ASCII_43        0x08083ee0     0x10  Data  Lc  F16_ASCII.o [4]
acFont16ASCII_44        0x08083ef0     0x10  Data  Lc  F16_ASCII.o [4]
acFont16ASCII_45        0x08083f00     0x10  Data  Lc  F16_ASCII.o [4]
acFont16ASCII_46        0x08083f10     0x10  Data  Lc  F16_ASCII.o [4]
acFont16ASCII_47        0x08083f20     0x10  Data  Lc  F16_ASCII.o [4]
acFont16ASCII_48        0x08083f30     0x10  Data  Lc  F16_ASCII.o [4]
acFont16ASCII_49        0x08083f40     0x10  Data  Lc  F16_ASCII.o [4]
acFont16ASCII_50        0x08083f50     0x10  Data  Lc  F16_ASCII.o [4]
acFont16ASCII_51        0x08083f60     0x10  Data  Lc  F16_ASCII.o [4]
acFont16ASCII_52        0x08083f70     0x10  Data  Lc  F16_ASCII.o [4]
acFont16ASCII_53        0x08083f80     0x10  Data  Lc  F16_ASCII.o [4]
acFont16ASCII_54        0x08083f90     0x10  Data  Lc  F16_ASCII.o [4]
acFont16ASCII_55        0x08083fa0     0x10  Data  Lc  F16_ASCII.o [4]
acFont16ASCII_56        0x08083fb0     0x10  Data  Lc  F16_ASCII.o [4]
acFont16ASCII_57        0x08083fc0     0x10  Data  Lc  F16_ASCII.o [4]
acFont16ASCII_58        0x08083fd0     0x10  Data  Lc  F16_ASCII.o [4]
acFont16ASCII_59        0x08083fe0     0x10  Data  Lc  F16_ASCII.o [4]
acFont16ASCII_60        0x08083ff0     0x10  Data  Lc  F16_ASCII.o [4]
acFont16ASCII_61        0x08084000     0x10  Data  Lc  F16_ASCII.o [4]
acFont16ASCII_62        0x08084010     0x10  Data  Lc  F16_ASCII.o [4]
acFont16ASCII_63        0x08084020     0x10  Data  Lc  F16_ASCII.o [4]
acFont16ASCII_64        0x08084030     0x20  Data  Lc  F16_ASCII.o [4]
acFont16ASCII_65        0x08084050     0x20  Data  Lc  F16_ASCII.o [4]
acFont16ASCII_66        0x08084070     0x20  Data  Lc  F16_ASCII.o [4]
acFont16ASCII_67        0x08084090     0x20  Data  Lc  F16_ASCII.o [4]
acFont16ASCII_68        0x080840b0     0x20  Data  Lc  F16_ASCII.o [4]
acFont16ASCII_69        0x080840d0     0x20  Data  Lc  F16_ASCII.o [4]
acFont16ASCII_70        0x080840f0     0x10  Data  Lc  F16_ASCII.o [4]
acFont16ASCII_71        0x08084100     0x20  Data  Lc  F16_ASCII.o [4]
acFont16ASCII_72        0x08084120     0x20  Data  Lc  F16_ASCII.o [4]
acFont16ASCII_73        0x08084140     0x10  Data  Lc  F16_ASCII.o [4]
acFont16ASCII_74        0x08084150     0x10  Data  Lc  F16_ASCII.o [4]
acFont16ASCII_75        0x08084160     0x20  Data  Lc  F16_ASCII.o [4]
acFont16ASCII_76        0x08084180     0x10  Data  Lc  F16_ASCII.o [4]
acFont16ASCII_77        0x08084190     0x20  Data  Lc  F16_ASCII.o [4]
acFont16ASCII_78        0x080841b0     0x20  Data  Lc  F16_ASCII.o [4]
acFont16ASCII_79        0x080841d0     0x20  Data  Lc  F16_ASCII.o [4]
acFont16ASCII_80        0x080841f0     0x20  Data  Lc  F16_ASCII.o [4]
acFont16ASCII_81        0x08084210     0x20  Data  Lc  F16_ASCII.o [4]
acFont16ASCII_82        0x08084230     0x20  Data  Lc  F16_ASCII.o [4]
acFont16ASCII_83        0x08084250     0x20  Data  Lc  F16_ASCII.o [4]
acFont16ASCII_84        0x08084270     0x10  Data  Lc  F16_ASCII.o [4]
acFont16ASCII_85        0x08084280     0x20  Data  Lc  F16_ASCII.o [4]
acFont16ASCII_86        0x080842a0     0x20  Data  Lc  F16_ASCII.o [4]
acFont16ASCII_87        0x080842c0     0x20  Data  Lc  F16_ASCII.o [4]
acFont16ASCII_88        0x080842e0     0x10  Data  Lc  F16_ASCII.o [4]
acFont16ASCII_89        0x080842f0     0x20  Data  Lc  F16_ASCII.o [4]
acFont16ASCII_90        0x08084310     0x10  Data  Lc  F16_ASCII.o [4]
acFont16ASCII_91        0x08084320     0x10  Data  Lc  F16_ASCII.o [4]
acFont16ASCII_92        0x08084330     0x10  Data  Lc  F16_ASCII.o [4]
acFont16ASCII_93        0x08084340     0x10  Data  Lc  F16_ASCII.o [4]
acFont16ASCII_94        0x08084350     0x10  Data  Lc  F16_ASCII.o [4]
acFont16ASCII_95        0x08084360     0x10  Data  Lc  F16_ASCII.o [4]
acFont16ASCII_96        0x08084370     0x10  Data  Lc  F16_ASCII.o [4]
acFont16ASCII_97        0x08084380     0x10  Data  Lc  F16_ASCII.o [4]
acFont16ASCII_98        0x08084390     0x10  Data  Lc  F16_ASCII.o [4]
acFont16ASCII_99        0x080843a0     0x10  Data  Lc  F16_ASCII.o [4]
acFont16B_1_00A0        0x08083330     0x10  Data  Lc  F16B_1.o [4]
acFont16B_1_00A1        0x08083340     0x10  Data  Lc  F16B_1.o [4]
acFont16B_1_00A2        0x08083350     0x10  Data  Lc  F16B_1.o [4]
acFont16B_1_00A3        0x08083360     0x10  Data  Lc  F16B_1.o [4]
acFont16B_1_00A4        0x08083370     0x10  Data  Lc  F16B_1.o [4]
acFont16B_1_00A5        0x08083380     0x10  Data  Lc  F16B_1.o [4]
acFont16B_1_00A6        0x08083390     0x10  Data  Lc  F16B_1.o [4]
acFont16B_1_00A7        0x080833a0     0x10  Data  Lc  F16B_1.o [4]
acFont16B_1_00A8        0x080833b0     0x10  Data  Lc  F16B_1.o [4]
acFont16B_1_00A9        0x080833c0     0x20  Data  Lc  F16B_1.o [4]
acFont16B_1_00AA        0x080833e0     0x10  Data  Lc  F16B_1.o [4]
acFont16B_1_00AB        0x080833f0     0x10  Data  Lc  F16B_1.o [4]
acFont16B_1_00AC        0x08083400     0x10  Data  Lc  F16B_1.o [4]
acFont16B_1_00AD        0x08083410     0x10  Data  Lc  F16B_1.o [4]
acFont16B_1_00AE        0x08083420     0x20  Data  Lc  F16B_1.o [4]
acFont16B_1_00AF        0x08083440     0x10  Data  Lc  F16B_1.o [4]
acFont16B_1_00B0        0x08083450     0x10  Data  Lc  F16B_1.o [4]
acFont16B_1_00B1        0x08083460     0x10  Data  Lc  F16B_1.o [4]
acFont16B_1_00B2        0x08083470     0x10  Data  Lc  F16B_1.o [4]
acFont16B_1_00B3        0x08083480     0x10  Data  Lc  F16B_1.o [4]
acFont16B_1_00B4        0x08083490     0x10  Data  Lc  F16B_1.o [4]
acFont16B_1_00B5        0x080834a0     0x10  Data  Lc  F16B_1.o [4]
acFont16B_1_00B6        0x080834b0     0x10  Data  Lc  F16B_1.o [4]
acFont16B_1_00B7        0x080834c0     0x10  Data  Lc  F16B_1.o [4]
acFont16B_1_00B8        0x080834d0     0x10  Data  Lc  F16B_1.o [4]
acFont16B_1_00B9        0x080834e0     0x10  Data  Lc  F16B_1.o [4]
acFont16B_1_00BA        0x080834f0     0x10  Data  Lc  F16B_1.o [4]
acFont16B_1_00BB        0x08083500     0x10  Data  Lc  F16B_1.o [4]
acFont16B_1_00BC        0x08083510     0x20  Data  Lc  F16B_1.o [4]
acFont16B_1_00BD        0x08083530     0x20  Data  Lc  F16B_1.o [4]
acFont16B_1_00BE        0x08083550     0x20  Data  Lc  F16B_1.o [4]
acFont16B_1_00BF        0x08083570     0x10  Data  Lc  F16B_1.o [4]
acFont16B_1_00C0        0x08083580     0x20  Data  Lc  F16B_1.o [4]
acFont16B_1_00C1        0x080835a0     0x20  Data  Lc  F16B_1.o [4]
acFont16B_1_00C2        0x080835c0     0x20  Data  Lc  F16B_1.o [4]
acFont16B_1_00C3        0x080835e0     0x20  Data  Lc  F16B_1.o [4]
acFont16B_1_00C4        0x08083600     0x20  Data  Lc  F16B_1.o [4]
acFont16B_1_00C5        0x08083620     0x20  Data  Lc  F16B_1.o [4]
acFont16B_1_00C6        0x08083640     0x20  Data  Lc  F16B_1.o [4]
acFont16B_1_00C7        0x08083660     0x20  Data  Lc  F16B_1.o [4]
acFont16B_1_00C8        0x08083680     0x10  Data  Lc  F16B_1.o [4]
acFont16B_1_00C9        0x08083690     0x10  Data  Lc  F16B_1.o [4]
acFont16B_1_00CA        0x080836a0     0x10  Data  Lc  F16B_1.o [4]
acFont16B_1_00CB        0x080836b0     0x10  Data  Lc  F16B_1.o [4]
acFont16B_1_00CC        0x080836c0     0x10  Data  Lc  F16B_1.o [4]
acFont16B_1_00CD        0x080836d0     0x10  Data  Lc  F16B_1.o [4]
acFont16B_1_00CE        0x080836e0     0x10  Data  Lc  F16B_1.o [4]
acFont16B_1_00CF        0x080836f0     0x10  Data  Lc  F16B_1.o [4]
acFont16B_1_00D0        0x08083700     0x20  Data  Lc  F16B_1.o [4]
acFont16B_1_00D1        0x08083720     0x20  Data  Lc  F16B_1.o [4]
acFont16B_1_00D2        0x08083740     0x20  Data  Lc  F16B_1.o [4]
acFont16B_1_00D3        0x08083760     0x20  Data  Lc  F16B_1.o [4]
acFont16B_1_00D4        0x08083780     0x20  Data  Lc  F16B_1.o [4]
acFont16B_1_00D5        0x080837a0     0x20  Data  Lc  F16B_1.o [4]
acFont16B_1_00D6        0x080837c0     0x20  Data  Lc  F16B_1.o [4]
acFont16B_1_00D7        0x080837e0     0x10  Data  Lc  F16B_1.o [4]
acFont16B_1_00D8        0x080837f0     0x20  Data  Lc  F16B_1.o [4]
acFont16B_1_00D9        0x08083810     0x20  Data  Lc  F16B_1.o [4]
acFont16B_1_00DA        0x08083830     0x20  Data  Lc  F16B_1.o [4]
acFont16B_1_00DB        0x08083850     0x20  Data  Lc  F16B_1.o [4]
acFont16B_1_00DC        0x08083870     0x20  Data  Lc  F16B_1.o [4]
acFont16B_1_00DD        0x08083890     0x10  Data  Lc  F16B_1.o [4]
acFont16B_1_00DE        0x080838a0     0x20  Data  Lc  F16B_1.o [4]
acFont16B_1_00DF        0x080838c0     0x10  Data  Lc  F16B_1.o [4]
acFont16B_1_00E0        0x080838d0     0x10  Data  Lc  F16B_1.o [4]
acFont16B_1_00E1        0x080838e0     0x10  Data  Lc  F16B_1.o [4]
acFont16B_1_00E2        0x080838f0     0x10  Data  Lc  F16B_1.o [4]
acFont16B_1_00E3        0x08083900     0x10  Data  Lc  F16B_1.o [4]
acFont16B_1_00E4        0x08083910     0x10  Data  Lc  F16B_1.o [4]
acFont16B_1_00E5        0x08083920     0x10  Data  Lc  F16B_1.o [4]
acFont16B_1_00E6        0x08083930     0x20  Data  Lc  F16B_1.o [4]
acFont16B_1_00E7        0x08083950     0x10  Data  Lc  F16B_1.o [4]
acFont16B_1_00E8        0x08083960     0x10  Data  Lc  F16B_1.o [4]
acFont16B_1_00E9        0x08083970     0x10  Data  Lc  F16B_1.o [4]
acFont16B_1_00EA        0x08083980     0x10  Data  Lc  F16B_1.o [4]
acFont16B_1_00EB        0x08083990     0x10  Data  Lc  F16B_1.o [4]
acFont16B_1_00EC        0x080839a0     0x10  Data  Lc  F16B_1.o [4]
acFont16B_1_00ED        0x080839b0     0x10  Data  Lc  F16B_1.o [4]
acFont16B_1_00EE        0x080839c0     0x10  Data  Lc  F16B_1.o [4]
acFont16B_1_00EF        0x080839d0     0x10  Data  Lc  F16B_1.o [4]
acFont16B_1_00F0        0x080839e0     0x10  Data  Lc  F16B_1.o [4]
acFont16B_1_00F1        0x080839f0     0x10  Data  Lc  F16B_1.o [4]
acFont16B_1_00F2        0x08083a00     0x10  Data  Lc  F16B_1.o [4]
acFont16B_1_00F3        0x08083a10     0x10  Data  Lc  F16B_1.o [4]
acFont16B_1_00F4        0x08083a20     0x10  Data  Lc  F16B_1.o [4]
acFont16B_1_00F5        0x08083a30     0x10  Data  Lc  F16B_1.o [4]
acFont16B_1_00F6        0x08083a40     0x10  Data  Lc  F16B_1.o [4]
acFont16B_1_00F7        0x08083a50     0x10  Data  Lc  F16B_1.o [4]
acFont16B_1_00F8        0x08083a60     0x10  Data  Lc  F16B_1.o [4]
acFont16B_1_00F9        0x08083a70     0x10  Data  Lc  F16B_1.o [4]
acFont16B_1_00FA        0x08083a80     0x10  Data  Lc  F16B_1.o [4]
acFont16B_1_00FB        0x08083a90     0x10  Data  Lc  F16B_1.o [4]
acFont16B_1_00FC        0x08083aa0     0x10  Data  Lc  F16B_1.o [4]
acFont16B_1_00FD        0x08083ab0     0x10  Data  Lc  F16B_1.o [4]
acFont16B_1_00FE        0x08083ac0     0x10  Data  Lc  F16B_1.o [4]
acFont16B_1_00FF        0x08083ad0     0x10  Data  Lc  F16B_1.o [4]
acFont16B_ASCII_0020    0x080848b0     0x10  Data  Lc  F16B_ASCII.o [4]
acFont16B_ASCII_0021    0x080848c0     0x10  Data  Lc  F16B_ASCII.o [4]
acFont16B_ASCII_0022    0x080848d0     0x10  Data  Lc  F16B_ASCII.o [4]
acFont16B_ASCII_0023    0x080848e0     0x10  Data  Lc  F16B_ASCII.o [4]
acFont16B_ASCII_0024    0x080848f0     0x10  Data  Lc  F16B_ASCII.o [4]
acFont16B_ASCII_0025    0x08084900     0x20  Data  Lc  F16B_ASCII.o [4]
acFont16B_ASCII_0026    0x08084920     0x20  Data  Lc  F16B_ASCII.o [4]
acFont16B_ASCII_0027    0x08084940     0x10  Data  Lc  F16B_ASCII.o [4]
acFont16B_ASCII_0028    0x08084950     0x10  Data  Lc  F16B_ASCII.o [4]
acFont16B_ASCII_0029    0x08084960     0x10  Data  Lc  F16B_ASCII.o [4]
acFont16B_ASCII_002A    0x08084970     0x10  Data  Lc  F16B_ASCII.o [4]
acFont16B_ASCII_002B    0x08084980     0x10  Data  Lc  F16B_ASCII.o [4]
acFont16B_ASCII_002C    0x08084990     0x10  Data  Lc  F16B_ASCII.o [4]
acFont16B_ASCII_002D    0x080849a0     0x10  Data  Lc  F16B_ASCII.o [4]
acFont16B_ASCII_002E    0x080849b0     0x10  Data  Lc  F16B_ASCII.o [4]
acFont16B_ASCII_002F    0x080849c0     0x10  Data  Lc  F16B_ASCII.o [4]
acFont16B_ASCII_0030    0x080849d0     0x10  Data  Lc  F16B_ASCII.o [4]
acFont16B_ASCII_0031    0x080849e0     0x10  Data  Lc  F16B_ASCII.o [4]
acFont16B_ASCII_0032    0x080849f0     0x10  Data  Lc  F16B_ASCII.o [4]
acFont16B_ASCII_0033    0x08084a00     0x10  Data  Lc  F16B_ASCII.o [4]
acFont16B_ASCII_0034    0x08084a10     0x10  Data  Lc  F16B_ASCII.o [4]
acFont16B_ASCII_0035    0x08084a20     0x10  Data  Lc  F16B_ASCII.o [4]
acFont16B_ASCII_0036    0x08084a30     0x10  Data  Lc  F16B_ASCII.o [4]
acFont16B_ASCII_0037    0x08084a40     0x10  Data  Lc  F16B_ASCII.o [4]
acFont16B_ASCII_0038    0x08084a50     0x10  Data  Lc  F16B_ASCII.o [4]
acFont16B_ASCII_0039    0x08084a60     0x10  Data  Lc  F16B_ASCII.o [4]
acFont16B_ASCII_003A    0x08084a70     0x10  Data  Lc  F16B_ASCII.o [4]
acFont16B_ASCII_003B    0x08084a80     0x10  Data  Lc  F16B_ASCII.o [4]
acFont16B_ASCII_003C    0x08084a90     0x10  Data  Lc  F16B_ASCII.o [4]
acFont16B_ASCII_003D    0x08084aa0     0x10  Data  Lc  F16B_ASCII.o [4]
acFont16B_ASCII_003E    0x08084ab0     0x10  Data  Lc  F16B_ASCII.o [4]
acFont16B_ASCII_003F    0x08084ac0     0x10  Data  Lc  F16B_ASCII.o [4]
acFont16B_ASCII_0040    0x08084ad0     0x20  Data  Lc  F16B_ASCII.o [4]
acFont16B_ASCII_0041    0x08084af0     0x20  Data  Lc  F16B_ASCII.o [4]
acFont16B_ASCII_0042    0x08084b10     0x20  Data  Lc  F16B_ASCII.o [4]
acFont16B_ASCII_0043    0x08084b30     0x20  Data  Lc  F16B_ASCII.o [4]
acFont16B_ASCII_0044    0x08084b50     0x20  Data  Lc  F16B_ASCII.o [4]
acFont16B_ASCII_0045    0x08084b70     0x10  Data  Lc  F16B_ASCII.o [4]
acFont16B_ASCII_0046    0x08084b80     0x10  Data  Lc  F16B_ASCII.o [4]
acFont16B_ASCII_0047    0x08084b90     0x20  Data  Lc  F16B_ASCII.o [4]
acFont16B_ASCII_0048    0x08084bb0     0x20  Data  Lc  F16B_ASCII.o [4]
acFont16B_ASCII_0049    0x08084bd0     0x10  Data  Lc  F16B_ASCII.o [4]
acFont16B_ASCII_004A    0x08084be0     0x10  Data  Lc  F16B_ASCII.o [4]
acFont16B_ASCII_004B    0x08084bf0     0x20  Data  Lc  F16B_ASCII.o [4]
acFont16B_ASCII_004C    0x08084c10     0x10  Data  Lc  F16B_ASCII.o [4]
acFont16B_ASCII_004D    0x08084c20     0x20  Data  Lc  F16B_ASCII.o [4]
acFont16B_ASCII_004E    0x08084c40     0x20  Data  Lc  F16B_ASCII.o [4]
acFont16B_ASCII_004F    0x08084c60     0x20  Data  Lc  F16B_ASCII.o [4]
acFont16B_ASCII_0050    0x08084c80     0x20  Data  Lc  F16B_ASCII.o [4]
acFont16B_ASCII_0051    0x08084ca0     0x20  Data  Lc  F16B_ASCII.o [4]
acFont16B_ASCII_0052    0x08084cc0     0x20  Data  Lc  F16B_ASCII.o [4]
acFont16B_ASCII_0053    0x08084ce0     0x20  Data  Lc  F16B_ASCII.o [4]
acFont16B_ASCII_0054    0x08084d00     0x10  Data  Lc  F16B_ASCII.o [4]
acFont16B_ASCII_0055    0x08084d10     0x20  Data  Lc  F16B_ASCII.o [4]
acFont16B_ASCII_0056    0x08084d30     0x20  Data  Lc  F16B_ASCII.o [4]
acFont16B_ASCII_0057    0x08084d50     0x20  Data  Lc  F16B_ASCII.o [4]
acFont16B_ASCII_0058    0x08084d70     0x20  Data  Lc  F16B_ASCII.o [4]
acFont16B_ASCII_0059    0x08084d90     0x10  Data  Lc  F16B_ASCII.o [4]
acFont16B_ASCII_005A    0x08084da0     0x10  Data  Lc  F16B_ASCII.o [4]
acFont16B_ASCII_005B    0x08084db0     0x10  Data  Lc  F16B_ASCII.o [4]
acFont16B_ASCII_005C    0x08084dc0     0x10  Data  Lc  F16B_ASCII.o [4]
acFont16B_ASCII_005D    0x08084dd0     0x10  Data  Lc  F16B_ASCII.o [4]
acFont16B_ASCII_005E    0x08084de0     0x10  Data  Lc  F16B_ASCII.o [4]
acFont16B_ASCII_005F    0x08084df0     0x10  Data  Lc  F16B_ASCII.o [4]
acFont16B_ASCII_0060    0x08084e00     0x10  Data  Lc  F16B_ASCII.o [4]
acFont16B_ASCII_0061    0x08084e10     0x10  Data  Lc  F16B_ASCII.o [4]
acFont16B_ASCII_0062    0x08084e20     0x10  Data  Lc  F16B_ASCII.o [4]
acFont16B_ASCII_0063    0x08084e30     0x10  Data  Lc  F16B_ASCII.o [4]
acFont16B_ASCII_0064    0x08084e40     0x10  Data  Lc  F16B_ASCII.o [4]
acFont16B_ASCII_0065    0x08084e50     0x10  Data  Lc  F16B_ASCII.o [4]
acFont16B_ASCII_0066    0x08084e60     0x10  Data  Lc  F16B_ASCII.o [4]
acFont16B_ASCII_0067    0x08084e70     0x10  Data  Lc  F16B_ASCII.o [4]
acFont16B_ASCII_0068    0x08084e80     0x10  Data  Lc  F16B_ASCII.o [4]
acFont16B_ASCII_0069    0x08084e90     0x10  Data  Lc  F16B_ASCII.o [4]
acFont16B_ASCII_006A    0x08084ea0     0x10  Data  Lc  F16B_ASCII.o [4]
acFont16B_ASCII_006B    0x08084eb0     0x10  Data  Lc  F16B_ASCII.o [4]
acFont16B_ASCII_006C    0x08084ec0     0x10  Data  Lc  F16B_ASCII.o [4]
acFont16B_ASCII_006D    0x08084ed0     0x20  Data  Lc  F16B_ASCII.o [4]
acFont16B_ASCII_006E    0x08084ef0     0x10  Data  Lc  F16B_ASCII.o [4]
acFont16B_ASCII_006F    0x08084f00     0x10  Data  Lc  F16B_ASCII.o [4]
acFont16B_ASCII_0070    0x08084f10     0x10  Data  Lc  F16B_ASCII.o [4]
acFont16B_ASCII_0071    0x08084f20     0x10  Data  Lc  F16B_ASCII.o [4]
acFont16B_ASCII_0072    0x08084f30     0x10  Data  Lc  F16B_ASCII.o [4]
acFont16B_ASCII_0073    0x08084f40     0x10  Data  Lc  F16B_ASCII.o [4]
acFont16B_ASCII_0074    0x08084f50     0x10  Data  Lc  F16B_ASCII.o [4]
acFont16B_ASCII_0075    0x08084f60     0x10  Data  Lc  F16B_ASCII.o [4]
acFont16B_ASCII_0076    0x08084f70     0x10  Data  Lc  F16B_ASCII.o [4]
acFont16B_ASCII_0077    0x08084f80     0x20  Data  Lc  F16B_ASCII.o [4]
acFont16B_ASCII_0078    0x08084fa0     0x10  Data  Lc  F16B_ASCII.o [4]
acFont16B_ASCII_0079    0x08084fb0     0x10  Data  Lc  F16B_ASCII.o [4]
acFont16B_ASCII_007A    0x08084fc0     0x10  Data  Lc  F16B_ASCII.o [4]
acFont16B_ASCII_007B    0x08084fd0     0x10  Data  Lc  F16B_ASCII.o [4]
acFont16B_ASCII_007C    0x08084fe0     0x10  Data  Lc  F16B_ASCII.o [4]
acFont16B_ASCII_007D    0x08084ff0     0x10  Data  Lc  F16B_ASCII.o [4]
acFont16B_ASCII_007E    0x08085000     0x10  Data  Lc  F16B_ASCII.o [4]
acFont16_1_160          0x080827f0     0x10  Data  Lc  F16_1.o [4]
acFont16_1_161          0x08082800     0x10  Data  Lc  F16_1.o [4]
acFont16_1_162          0x08082810     0x10  Data  Lc  F16_1.o [4]
acFont16_1_163          0x08082820     0x10  Data  Lc  F16_1.o [4]
acFont16_1_164          0x08082830     0x10  Data  Lc  F16_1.o [4]
acFont16_1_165          0x08082840     0x10  Data  Lc  F16_1.o [4]
acFont16_1_166          0x08082850     0x10  Data  Lc  F16_1.o [4]
acFont16_1_167          0x08082860     0x10  Data  Lc  F16_1.o [4]
acFont16_1_168          0x08082870     0x10  Data  Lc  F16_1.o [4]
acFont16_1_169          0x08082880     0x20  Data  Lc  F16_1.o [4]
acFont16_1_170          0x080828a0     0x10  Data  Lc  F16_1.o [4]
acFont16_1_171          0x080828b0     0x10  Data  Lc  F16_1.o [4]
acFont16_1_172          0x080828c0     0x10  Data  Lc  F16_1.o [4]
acFont16_1_173          0x080828d0     0x10  Data  Lc  F16_1.o [4]
acFont16_1_174          0x080828e0     0x20  Data  Lc  F16_1.o [4]
acFont16_1_175          0x08082900     0x10  Data  Lc  F16_1.o [4]
acFont16_1_176          0x08082910     0x10  Data  Lc  F16_1.o [4]
acFont16_1_177          0x08082920     0x10  Data  Lc  F16_1.o [4]
acFont16_1_178          0x08082930     0x10  Data  Lc  F16_1.o [4]
acFont16_1_179          0x08082940     0x10  Data  Lc  F16_1.o [4]
acFont16_1_180          0x08082950     0x10  Data  Lc  F16_1.o [4]
acFont16_1_181          0x08082960     0x10  Data  Lc  F16_1.o [4]
acFont16_1_182          0x08082970     0x10  Data  Lc  F16_1.o [4]
acFont16_1_183          0x08082980     0x10  Data  Lc  F16_1.o [4]
acFont16_1_184          0x08082990     0x10  Data  Lc  F16_1.o [4]
acFont16_1_185          0x080829a0     0x10  Data  Lc  F16_1.o [4]
acFont16_1_186          0x080829b0     0x10  Data  Lc  F16_1.o [4]
acFont16_1_187          0x080829c0     0x10  Data  Lc  F16_1.o [4]
acFont16_1_188          0x080829d0     0x20  Data  Lc  F16_1.o [4]
acFont16_1_189          0x080829f0     0x20  Data  Lc  F16_1.o [4]
acFont16_1_190          0x08082a10     0x20  Data  Lc  F16_1.o [4]
acFont16_1_191          0x08082a30     0x10  Data  Lc  F16_1.o [4]
acFont16_1_192          0x08082a40     0x20  Data  Lc  F16_1.o [4]
acFont16_1_193          0x08082a60     0x20  Data  Lc  F16_1.o [4]
acFont16_1_194          0x08082a80     0x20  Data  Lc  F16_1.o [4]
acFont16_1_195          0x08082aa0     0x20  Data  Lc  F16_1.o [4]
acFont16_1_196          0x08082ac0     0x20  Data  Lc  F16_1.o [4]
acFont16_1_197          0x08082ae0     0x20  Data  Lc  F16_1.o [4]
acFont16_1_198          0x08082b00     0x20  Data  Lc  F16_1.o [4]
acFont16_1_199          0x08082b20     0x20  Data  Lc  F16_1.o [4]
acFont16_1_200          0x08082b40     0x20  Data  Lc  F16_1.o [4]
acFont16_1_201          0x08082b60     0x20  Data  Lc  F16_1.o [4]
acFont16_1_202          0x08082b80     0x20  Data  Lc  F16_1.o [4]
acFont16_1_203          0x08082ba0     0x20  Data  Lc  F16_1.o [4]
acFont16_1_204          0x08082bc0     0x10  Data  Lc  F16_1.o [4]
acFont16_1_205          0x08082bd0     0x10  Data  Lc  F16_1.o [4]
acFont16_1_206          0x08082be0     0x10  Data  Lc  F16_1.o [4]
acFont16_1_207          0x08082bf0     0x10  Data  Lc  F16_1.o [4]
acFont16_1_208          0x08082c00     0x20  Data  Lc  F16_1.o [4]
acFont16_1_209          0x08082c20     0x20  Data  Lc  F16_1.o [4]
acFont16_1_210          0x08082c40     0x20  Data  Lc  F16_1.o [4]
acFont16_1_211          0x08082c60     0x20  Data  Lc  F16_1.o [4]
acFont16_1_212          0x08082c80     0x20  Data  Lc  F16_1.o [4]
acFont16_1_213          0x08082ca0     0x20  Data  Lc  F16_1.o [4]
acFont16_1_214          0x08082cc0     0x20  Data  Lc  F16_1.o [4]
acFont16_1_215          0x08082ce0     0x10  Data  Lc  F16_1.o [4]
acFont16_1_216          0x08082cf0     0x20  Data  Lc  F16_1.o [4]
acFont16_1_217          0x08082d10     0x20  Data  Lc  F16_1.o [4]
acFont16_1_218          0x08082d30     0x20  Data  Lc  F16_1.o [4]
acFont16_1_219          0x08082d50     0x20  Data  Lc  F16_1.o [4]
acFont16_1_220          0x08082d70     0x20  Data  Lc  F16_1.o [4]
acFont16_1_221          0x08082d90     0x20  Data  Lc  F16_1.o [4]
acFont16_1_222          0x08082db0     0x20  Data  Lc  F16_1.o [4]
acFont16_1_223          0x08082dd0     0x20  Data  Lc  F16_1.o [4]
acFont16_1_224          0x08082df0     0x10  Data  Lc  F16_1.o [4]
acFont16_1_225          0x08082e00     0x10  Data  Lc  F16_1.o [4]
acFont16_1_226          0x08082e10     0x10  Data  Lc  F16_1.o [4]
acFont16_1_227          0x08082e20     0x10  Data  Lc  F16_1.o [4]
acFont16_1_228          0x08082e30     0x10  Data  Lc  F16_1.o [4]
acFont16_1_229          0x08082e40     0x10  Data  Lc  F16_1.o [4]
acFont16_1_230          0x08082e50     0x20  Data  Lc  F16_1.o [4]
acFont16_1_231          0x08082e70     0x10  Data  Lc  F16_1.o [4]
acFont16_1_232          0x08082e80     0x10  Data  Lc  F16_1.o [4]
acFont16_1_233          0x08082e90     0x10  Data  Lc  F16_1.o [4]
acFont16_1_234          0x08082ea0     0x10  Data  Lc  F16_1.o [4]
acFont16_1_235          0x08082eb0     0x10  Data  Lc  F16_1.o [4]
acFont16_1_236          0x08082ec0     0x10  Data  Lc  F16_1.o [4]
acFont16_1_237          0x08082ed0     0x10  Data  Lc  F16_1.o [4]
acFont16_1_238          0x08082ee0     0x10  Data  Lc  F16_1.o [4]
acFont16_1_239          0x08082ef0     0x10  Data  Lc  F16_1.o [4]
acFont16_1_240          0x08082f00     0x10  Data  Lc  F16_1.o [4]
acFont16_1_241          0x08082f10     0x10  Data  Lc  F16_1.o [4]
acFont16_1_242          0x08082f20     0x10  Data  Lc  F16_1.o [4]
acFont16_1_243          0x08082f30     0x10  Data  Lc  F16_1.o [4]
acFont16_1_244          0x08082f40     0x10  Data  Lc  F16_1.o [4]
acFont16_1_245          0x08082f50     0x10  Data  Lc  F16_1.o [4]
acFont16_1_246          0x08082f60     0x10  Data  Lc  F16_1.o [4]
acFont16_1_247          0x08082f70     0x10  Data  Lc  F16_1.o [4]
acFont16_1_248          0x08082f80     0x10  Data  Lc  F16_1.o [4]
acFont16_1_249          0x08082f90     0x10  Data  Lc  F16_1.o [4]
acFont16_1_250          0x08082fa0     0x10  Data  Lc  F16_1.o [4]
acFont16_1_251          0x08082fb0     0x10  Data  Lc  F16_1.o [4]
acFont16_1_252          0x08082fc0     0x10  Data  Lc  F16_1.o [4]
acFont16_1_253          0x08082fd0     0x10  Data  Lc  F16_1.o [4]
acFont16_1_254          0x08082fe0     0x10  Data  Lc  F16_1.o [4]
acFont16_1_255          0x08082ff0     0x10  Data  Lc  F16_1.o [4]
acFont16_HK_3041        0x0806fb7c     0x20  Data  Lc  F16_HK.o [4]
acFont16_HK_3042        0x0806fb9c     0x20  Data  Lc  F16_HK.o [4]
acFont16_HK_3043        0x0806fbbc     0x20  Data  Lc  F16_HK.o [4]
acFont16_HK_3044        0x0806fbdc     0x20  Data  Lc  F16_HK.o [4]
acFont16_HK_3045        0x0806fbfc     0x20  Data  Lc  F16_HK.o [4]
acFont16_HK_3046        0x0806fc1c     0x20  Data  Lc  F16_HK.o [4]
acFont16_HK_3047        0x0806fc3c     0x20  Data  Lc  F16_HK.o [4]
acFont16_HK_3048        0x0806fc5c     0x20  Data  Lc  F16_HK.o [4]
acFont16_HK_3049        0x0806fc7c     0x20  Data  Lc  F16_HK.o [4]
acFont16_HK_304A        0x0806fc9c     0x20  Data  Lc  F16_HK.o [4]
acFont16_HK_304B        0x0806fcbc     0x20  Data  Lc  F16_HK.o [4]
acFont16_HK_304C        0x0806fcdc     0x20  Data  Lc  F16_HK.o [4]
acFont16_HK_304D        0x0806fcfc     0x20  Data  Lc  F16_HK.o [4]
acFont16_HK_304E        0x0806fd1c     0x20  Data  Lc  F16_HK.o [4]
acFont16_HK_304F        0x0806fd3c     0x20  Data  Lc  F16_HK.o [4]
acFont16_HK_3050        0x0806fd5c     0x20  Data  Lc  F16_HK.o [4]
acFont16_HK_3051        0x0806fd7c     0x20  Data  Lc  F16_HK.o [4]
acFont16_HK_3052        0x0806fd9c     0x20  Data  Lc  F16_HK.o [4]
acFont16_HK_3053        0x0806fdbc     0x20  Data  Lc  F16_HK.o [4]
acFont16_HK_3054        0x0806fddc     0x20  Data  Lc  F16_HK.o [4]
acFont16_HK_3055        0x0806fdfc     0x20  Data  Lc  F16_HK.o [4]
acFont16_HK_3056        0x0806fe1c     0x20  Data  Lc  F16_HK.o [4]
acFont16_HK_3057        0x0806fe3c     0x20  Data  Lc  F16_HK.o [4]
acFont16_HK_3058        0x0806fe5c     0x20  Data  Lc  F16_HK.o [4]
acFont16_HK_3059        0x0806fe7c     0x20  Data  Lc  F16_HK.o [4]
acFont16_HK_305A        0x0806fe9c     0x20  Data  Lc  F16_HK.o [4]
acFont16_HK_305B        0x0806febc     0x20  Data  Lc  F16_HK.o [4]
acFont16_HK_305C        0x0806fedc     0x20  Data  Lc  F16_HK.o [4]
acFont16_HK_305D        0x0806fefc     0x20  Data  Lc  F16_HK.o [4]
acFont16_HK_305E        0x0806ff1c     0x20  Data  Lc  F16_HK.o [4]
acFont16_HK_305F        0x0806ff3c     0x20  Data  Lc  F16_HK.o [4]
acFont16_HK_3060        0x0806ff5c     0x20  Data  Lc  F16_HK.o [4]
acFont16_HK_3061        0x0806ff7c     0x20  Data  Lc  F16_HK.o [4]
acFont16_HK_3062        0x0806ff9c     0x20  Data  Lc  F16_HK.o [4]
acFont16_HK_3063        0x0806ffbc     0x20  Data  Lc  F16_HK.o [4]
acFont16_HK_3064        0x0806ffdc     0x20  Data  Lc  F16_HK.o [4]
acFont16_HK_3065        0x0806fffc     0x20  Data  Lc  F16_HK.o [4]
acFont16_HK_3066        0x0807001c     0x20  Data  Lc  F16_HK.o [4]
acFont16_HK_3067        0x0807003c     0x20  Data  Lc  F16_HK.o [4]
acFont16_HK_3068        0x0807005c     0x20  Data  Lc  F16_HK.o [4]
acFont16_HK_3069        0x0807007c     0x20  Data  Lc  F16_HK.o [4]
acFont16_HK_306A        0x0807009c     0x20  Data  Lc  F16_HK.o [4]
acFont16_HK_306B        0x080700bc     0x20  Data  Lc  F16_HK.o [4]
acFont16_HK_306C        0x080700dc     0x20  Data  Lc  F16_HK.o [4]
acFont16_HK_306D        0x080700fc     0x20  Data  Lc  F16_HK.o [4]
acFont16_HK_306E        0x0807011c     0x20  Data  Lc  F16_HK.o [4]
acFont16_HK_306F        0x0807013c     0x20  Data  Lc  F16_HK.o [4]
acFont16_HK_3070        0x0807015c     0x20  Data  Lc  F16_HK.o [4]
acFont16_HK_3071        0x0807017c     0x20  Data  Lc  F16_HK.o [4]
acFont16_HK_3072        0x0807019c     0x20  Data  Lc  F16_HK.o [4]
acFont16_HK_3073        0x080701bc     0x20  Data  Lc  F16_HK.o [4]
acFont16_HK_3074        0x080701dc     0x20  Data  Lc  F16_HK.o [4]
acFont16_HK_3075        0x080701fc     0x20  Data  Lc  F16_HK.o [4]
acFont16_HK_3076        0x0807021c     0x20  Data  Lc  F16_HK.o [4]
acFont16_HK_3077        0x0807023c     0x20  Data  Lc  F16_HK.o [4]
acFont16_HK_3078        0x0807025c     0x20  Data  Lc  F16_HK.o [4]
acFont16_HK_3079        0x0807027c     0x20  Data  Lc  F16_HK.o [4]
acFont16_HK_307A        0x0807029c     0x20  Data  Lc  F16_HK.o [4]
acFont16_HK_307B        0x080702bc     0x20  Data  Lc  F16_HK.o [4]
acFont16_HK_307C        0x080702dc     0x20  Data  Lc  F16_HK.o [4]
acFont16_HK_307D        0x080702fc     0x20  Data  Lc  F16_HK.o [4]
acFont16_HK_307E        0x0807031c     0x20  Data  Lc  F16_HK.o [4]
acFont16_HK_307F        0x0807033c     0x20  Data  Lc  F16_HK.o [4]
acFont16_HK_3080        0x0807035c     0x20  Data  Lc  F16_HK.o [4]
acFont16_HK_3081        0x0807037c     0x20  Data  Lc  F16_HK.o [4]
acFont16_HK_3082        0x0807039c     0x20  Data  Lc  F16_HK.o [4]
acFont16_HK_3083        0x080703bc     0x20  Data  Lc  F16_HK.o [4]
acFont16_HK_3084        0x080703dc     0x20  Data  Lc  F16_HK.o [4]
acFont16_HK_3085        0x080703fc     0x20  Data  Lc  F16_HK.o [4]
acFont16_HK_3086        0x0807041c     0x20  Data  Lc  F16_HK.o [4]
acFont16_HK_3087        0x0807043c     0x20  Data  Lc  F16_HK.o [4]
acFont16_HK_3088        0x0807045c     0x20  Data  Lc  F16_HK.o [4]
acFont16_HK_3089        0x0807047c     0x20  Data  Lc  F16_HK.o [4]
acFont16_HK_308A        0x0807049c     0x20  Data  Lc  F16_HK.o [4]
acFont16_HK_308B        0x080704bc     0x20  Data  Lc  F16_HK.o [4]
acFont16_HK_308C        0x080704dc     0x20  Data  Lc  F16_HK.o [4]
acFont16_HK_308D        0x080704fc     0x20  Data  Lc  F16_HK.o [4]
acFont16_HK_308E        0x0807051c     0x20  Data  Lc  F16_HK.o [4]
acFont16_HK_308F        0x0807053c     0x20  Data  Lc  F16_HK.o [4]
acFont16_HK_3090        0x0807055c     0x20  Data  Lc  F16_HK.o [4]
acFont16_HK_3091        0x0807057c     0x20  Data  Lc  F16_HK.o [4]
acFont16_HK_3092        0x0807059c     0x20  Data  Lc  F16_HK.o [4]
acFont16_HK_3093        0x080705bc     0x20  Data  Lc  F16_HK.o [4]
acFont16_HK_30A1        0x080705dc     0x20  Data  Lc  F16_HK.o [4]
acFont16_HK_30A2        0x080705fc     0x20  Data  Lc  F16_HK.o [4]
acFont16_HK_30A3        0x0807061c     0x20  Data  Lc  F16_HK.o [4]
acFont16_HK_30A4        0x0807063c     0x20  Data  Lc  F16_HK.o [4]
acFont16_HK_30A5        0x0807065c     0x20  Data  Lc  F16_HK.o [4]
acFont16_HK_30A6        0x0807067c     0x20  Data  Lc  F16_HK.o [4]
acFont16_HK_30A7        0x0807069c     0x20  Data  Lc  F16_HK.o [4]
acFont16_HK_30A8        0x080706bc     0x20  Data  Lc  F16_HK.o [4]
acFont16_HK_30A9        0x080706dc     0x20  Data  Lc  F16_HK.o [4]
acFont16_HK_30AA        0x080706fc     0x20  Data  Lc  F16_HK.o [4]
acFont16_HK_30AB        0x0807071c     0x20  Data  Lc  F16_HK.o [4]
acFont16_HK_30AC        0x0807073c     0x20  Data  Lc  F16_HK.o [4]
acFont16_HK_30AD        0x0807075c     0x20  Data  Lc  F16_HK.o [4]
acFont16_HK_30AE        0x0807077c     0x20  Data  Lc  F16_HK.o [4]
acFont16_HK_30AF        0x0807079c     0x20  Data  Lc  F16_HK.o [4]
acFont16_HK_30B0        0x080707bc     0x20  Data  Lc  F16_HK.o [4]
acFont16_HK_30B1        0x080707dc     0x20  Data  Lc  F16_HK.o [4]
acFont16_HK_30B2        0x080707fc     0x20  Data  Lc  F16_HK.o [4]
acFont16_HK_30B3        0x0807081c     0x20  Data  Lc  F16_HK.o [4]
acFont16_HK_30B4        0x0807083c     0x20  Data  Lc  F16_HK.o [4]
acFont16_HK_30B5        0x0807085c     0x20  Data  Lc  F16_HK.o [4]
acFont16_HK_30B6        0x0807087c     0x20  Data  Lc  F16_HK.o [4]
acFont16_HK_30B7        0x0807089c     0x20  Data  Lc  F16_HK.o [4]
acFont16_HK_30B8        0x080708bc     0x20  Data  Lc  F16_HK.o [4]
acFont16_HK_30B9        0x080708dc     0x20  Data  Lc  F16_HK.o [4]
acFont16_HK_30BA        0x080708fc     0x20  Data  Lc  F16_HK.o [4]
acFont16_HK_30BB        0x0807091c     0x20  Data  Lc  F16_HK.o [4]
acFont16_HK_30BC        0x0807093c     0x20  Data  Lc  F16_HK.o [4]
acFont16_HK_30BD        0x0807095c     0x20  Data  Lc  F16_HK.o [4]
acFont16_HK_30BE        0x0807097c     0x20  Data  Lc  F16_HK.o [4]
acFont16_HK_30BF        0x0807099c     0x20  Data  Lc  F16_HK.o [4]
acFont16_HK_30C0        0x080709bc     0x20  Data  Lc  F16_HK.o [4]
acFont16_HK_30C1        0x080709dc     0x20  Data  Lc  F16_HK.o [4]
acFont16_HK_30C2        0x080709fc     0x20  Data  Lc  F16_HK.o [4]
acFont16_HK_30C3        0x08070a1c     0x20  Data  Lc  F16_HK.o [4]
acFont16_HK_30C4        0x08070a3c     0x20  Data  Lc  F16_HK.o [4]
acFont16_HK_30C5        0x08070a5c     0x20  Data  Lc  F16_HK.o [4]
acFont16_HK_30C6        0x08070a7c     0x20  Data  Lc  F16_HK.o [4]
acFont16_HK_30C7        0x08070a9c     0x20  Data  Lc  F16_HK.o [4]
acFont16_HK_30C8        0x08070abc     0x20  Data  Lc  F16_HK.o [4]
acFont16_HK_30C9        0x08070adc     0x20  Data  Lc  F16_HK.o [4]
acFont16_HK_30CA        0x08070afc     0x20  Data  Lc  F16_HK.o [4]
acFont16_HK_30CB        0x08070b1c     0x20  Data  Lc  F16_HK.o [4]
acFont16_HK_30CC        0x08070b3c     0x20  Data  Lc  F16_HK.o [4]
acFont16_HK_30CD        0x08070b5c     0x20  Data  Lc  F16_HK.o [4]
acFont16_HK_30CE        0x08070b7c     0x20  Data  Lc  F16_HK.o [4]
acFont16_HK_30CF        0x08070b9c     0x20  Data  Lc  F16_HK.o [4]
acFont16_HK_30D0        0x08070bbc     0x20  Data  Lc  F16_HK.o [4]
acFont16_HK_30D1        0x08070bdc     0x20  Data  Lc  F16_HK.o [4]
acFont16_HK_30D2        0x08070bfc     0x20  Data  Lc  F16_HK.o [4]
acFont16_HK_30D3        0x08070c1c     0x20  Data  Lc  F16_HK.o [4]
acFont16_HK_30D4        0x08070c3c     0x20  Data  Lc  F16_HK.o [4]
acFont16_HK_30D5        0x08070c5c     0x20  Data  Lc  F16_HK.o [4]
acFont16_HK_30D6        0x08070c7c     0x20  Data  Lc  F16_HK.o [4]
acFont16_HK_30D7        0x08070c9c     0x20  Data  Lc  F16_HK.o [4]
acFont16_HK_30D8        0x08070cbc     0x20  Data  Lc  F16_HK.o [4]
acFont16_HK_30D9        0x08070cdc     0x20  Data  Lc  F16_HK.o [4]
acFont16_HK_30DA        0x08070cfc     0x20  Data  Lc  F16_HK.o [4]
acFont16_HK_30DB        0x08070d1c     0x20  Data  Lc  F16_HK.o [4]
acFont16_HK_30DC        0x08070d3c     0x20  Data  Lc  F16_HK.o [4]
acFont16_HK_30DD        0x08070d5c     0x20  Data  Lc  F16_HK.o [4]
acFont16_HK_30DE        0x08070d7c     0x20  Data  Lc  F16_HK.o [4]
acFont16_HK_30DF        0x08070d9c     0x20  Data  Lc  F16_HK.o [4]
acFont16_HK_30E0        0x08070dbc     0x20  Data  Lc  F16_HK.o [4]
acFont16_HK_30E1        0x08070ddc     0x20  Data  Lc  F16_HK.o [4]
acFont16_HK_30E2        0x08070dfc     0x20  Data  Lc  F16_HK.o [4]
acFont16_HK_30E3        0x08070e1c     0x20  Data  Lc  F16_HK.o [4]
acFont16_HK_30E4        0x08070e3c     0x20  Data  Lc  F16_HK.o [4]
acFont16_HK_30E5        0x08070e5c     0x20  Data  Lc  F16_HK.o [4]
acFont16_HK_30E6        0x08070e7c     0x20  Data  Lc  F16_HK.o [4]
acFont16_HK_30E7        0x08070e9c     0x20  Data  Lc  F16_HK.o [4]
acFont16_HK_30E8        0x08070ebc     0x20  Data  Lc  F16_HK.o [4]
acFont16_HK_30E9        0x08070edc     0x20  Data  Lc  F16_HK.o [4]
acFont16_HK_30EA        0x08070efc     0x20  Data  Lc  F16_HK.o [4]
acFont16_HK_30EB        0x08070f1c     0x20  Data  Lc  F16_HK.o [4]
acFont16_HK_30EC        0x08070f3c     0x20  Data  Lc  F16_HK.o [4]
acFont16_HK_30ED        0x08070f5c     0x20  Data  Lc  F16_HK.o [4]
acFont16_HK_30EE        0x08070f7c     0x20  Data  Lc  F16_HK.o [4]
acFont16_HK_30EF        0x08070f9c     0x20  Data  Lc  F16_HK.o [4]
acFont16_HK_30F0        0x08070fbc     0x20  Data  Lc  F16_HK.o [4]
acFont16_HK_30F1        0x08070fdc     0x20  Data  Lc  F16_HK.o [4]
acFont16_HK_30F2        0x08070ffc     0x20  Data  Lc  F16_HK.o [4]
acFont16_HK_30F3        0x0807101c     0x20  Data  Lc  F16_HK.o [4]
acFont16_HK_30F4        0x0807103c     0x20  Data  Lc  F16_HK.o [4]
acFont16_HK_30F5        0x0807105c     0x20  Data  Lc  F16_HK.o [4]
acFont16_HK_30F6        0x0807107c     0x20  Data  Lc  F16_HK.o [4]
acFont24_1_00A0         0x0807b618     0x18  Data  Lc  F24_1.o [4]
acFont24_1_00A1         0x0807b630     0x18  Data  Lc  F24_1.o [4]
acFont24_1_00A2         0x0807b648     0x30  Data  Lc  F24_1.o [4]
acFont24_1_00A3         0x0807b678     0x30  Data  Lc  F24_1.o [4]
acFont24_1_00A4         0x0807b6a8     0x30  Data  Lc  F24_1.o [4]
acFont24_1_00A5         0x0807b6d8     0x30  Data  Lc  F24_1.o [4]
acFont24_1_00A6         0x0807b708     0x18  Data  Lc  F24_1.o [4]
acFont24_1_00A7         0x0807b720     0x30  Data  Lc  F24_1.o [4]
acFont24_1_00A8         0x0807b750     0x18  Data  Lc  F24_1.o [4]
acFont24_1_00A9         0x0807b768     0x30  Data  Lc  F24_1.o [4]
acFont24_1_00AA         0x0807b798     0x18  Data  Lc  F24_1.o [4]
acFont24_1_00AB         0x0807b7b0     0x30  Data  Lc  F24_1.o [4]
acFont24_1_00AC         0x0807b7e0     0x30  Data  Lc  F24_1.o [4]
acFont24_1_00AD         0x0807b810     0x18  Data  Lc  F24_1.o [4]
acFont24_1_00AE         0x0807b828     0x30  Data  Lc  F24_1.o [4]
acFont24_1_00AF         0x0807b858     0x30  Data  Lc  F24_1.o [4]
acFont24_1_00B0         0x0807b888     0x18  Data  Lc  F24_1.o [4]
acFont24_1_00B1         0x0807b8a0     0x30  Data  Lc  F24_1.o [4]
acFont24_1_00B2         0x0807b8d0     0x18  Data  Lc  F24_1.o [4]
acFont24_1_00B3         0x0807b8e8     0x18  Data  Lc  F24_1.o [4]
acFont24_1_00B4         0x0807b900     0x18  Data  Lc  F24_1.o [4]
acFont24_1_00B5         0x0807b918     0x30  Data  Lc  F24_1.o [4]
acFont24_1_00B6         0x0807b948     0x30  Data  Lc  F24_1.o [4]
acFont24_1_00B7         0x0807b978     0x18  Data  Lc  F24_1.o [4]
acFont24_1_00B8         0x0807b990     0x18  Data  Lc  F24_1.o [4]
acFont24_1_00B9         0x0807b9a8     0x18  Data  Lc  F24_1.o [4]
acFont24_1_00BA         0x0807b9c0     0x18  Data  Lc  F24_1.o [4]
acFont24_1_00BB         0x0807b9d8     0x30  Data  Lc  F24_1.o [4]
acFont24_1_00BC         0x0807ba08     0x48  Data  Lc  F24_1.o [4]
acFont24_1_00BD         0x0807ba50     0x48  Data  Lc  F24_1.o [4]
acFont24_1_00BE         0x0807ba98     0x48  Data  Lc  F24_1.o [4]
acFont24_1_00BF         0x0807bae0     0x30  Data  Lc  F24_1.o [4]
acFont24_1_00C0         0x0807bb10     0x30  Data  Lc  F24_1.o [4]
acFont24_1_00C1         0x0807bb40     0x30  Data  Lc  F24_1.o [4]
acFont24_1_00C2         0x0807bb70     0x30  Data  Lc  F24_1.o [4]
acFont24_1_00C3         0x0807bba0     0x30  Data  Lc  F24_1.o [4]
acFont24_1_00C4         0x0807bbd0     0x30  Data  Lc  F24_1.o [4]
acFont24_1_00C5         0x0807bc00     0x30  Data  Lc  F24_1.o [4]
acFont24_1_00C6         0x0807bc30     0x48  Data  Lc  F24_1.o [4]
acFont24_1_00C7         0x0807bc78     0x30  Data  Lc  F24_1.o [4]
acFont24_1_00C8         0x0807bca8     0x30  Data  Lc  F24_1.o [4]
acFont24_1_00C9         0x0807bcd8     0x30  Data  Lc  F24_1.o [4]
acFont24_1_00CA         0x0807bd08     0x30  Data  Lc  F24_1.o [4]
acFont24_1_00CB         0x0807bd38     0x30  Data  Lc  F24_1.o [4]
acFont24_1_00CC         0x0807bd68     0x18  Data  Lc  F24_1.o [4]
acFont24_1_00CD         0x0807bd80     0x18  Data  Lc  F24_1.o [4]
acFont24_1_00CE         0x0807bd98     0x18  Data  Lc  F24_1.o [4]
acFont24_1_00CF         0x0807bdb0     0x18  Data  Lc  F24_1.o [4]
acFont24_1_00D0         0x0807bdc8     0x30  Data  Lc  F24_1.o [4]
acFont24_1_00D1         0x0807bdf8     0x30  Data  Lc  F24_1.o [4]
acFont24_1_00D2         0x0807be28     0x30  Data  Lc  F24_1.o [4]
acFont24_1_00D3         0x0807be58     0x30  Data  Lc  F24_1.o [4]
acFont24_1_00D4         0x0807be88     0x30  Data  Lc  F24_1.o [4]
acFont24_1_00D5         0x0807beb8     0x30  Data  Lc  F24_1.o [4]
acFont24_1_00D6         0x0807bee8     0x30  Data  Lc  F24_1.o [4]
acFont24_1_00D7         0x0807bf18     0x30  Data  Lc  F24_1.o [4]
acFont24_1_00D8         0x0807bf48     0x30  Data  Lc  F24_1.o [4]
acFont24_1_00D9         0x0807bf78     0x30  Data  Lc  F24_1.o [4]
acFont24_1_00DA         0x0807bfa8     0x30  Data  Lc  F24_1.o [4]
acFont24_1_00DB         0x0807bfd8     0x30  Data  Lc  F24_1.o [4]
acFont24_1_00DC         0x0807c008     0x30  Data  Lc  F24_1.o [4]
acFont24_1_00DD         0x0807c038     0x30  Data  Lc  F24_1.o [4]
acFont24_1_00DE         0x0807c068     0x30  Data  Lc  F24_1.o [4]
acFont24_1_00DF         0x0807c098     0x30  Data  Lc  F24_1.o [4]
acFont24_1_00E0         0x0807c0c8     0x30  Data  Lc  F24_1.o [4]
acFont24_1_00E1         0x0807c0f8     0x30  Data  Lc  F24_1.o [4]
acFont24_1_00E2         0x0807c128     0x30  Data  Lc  F24_1.o [4]
acFont24_1_00E3         0x0807c158     0x30  Data  Lc  F24_1.o [4]
acFont24_1_00E4         0x0807c188     0x30  Data  Lc  F24_1.o [4]
acFont24_1_00E5         0x0807c1b8     0x30  Data  Lc  F24_1.o [4]
acFont24_1_00E6         0x0807c1e8     0x48  Data  Lc  F24_1.o [4]
acFont24_1_00E7         0x0807c230     0x30  Data  Lc  F24_1.o [4]
acFont24_1_00E8         0x0807c260     0x30  Data  Lc  F24_1.o [4]
acFont24_1_00E9         0x0807c290     0x30  Data  Lc  F24_1.o [4]
acFont24_1_00EA         0x0807c2c0     0x30  Data  Lc  F24_1.o [4]
acFont24_1_00EB         0x0807c2f0     0x30  Data  Lc  F24_1.o [4]
acFont24_1_00EC         0x0807c320     0x18  Data  Lc  F24_1.o [4]
acFont24_1_00ED         0x0807c338     0x18  Data  Lc  F24_1.o [4]
acFont24_1_00EE         0x0807c350     0x18  Data  Lc  F24_1.o [4]
acFont24_1_00EF         0x0807c368     0x18  Data  Lc  F24_1.o [4]
acFont24_1_00F0         0x0807c380     0x30  Data  Lc  F24_1.o [4]
acFont24_1_00F1         0x0807c3b0     0x30  Data  Lc  F24_1.o [4]
acFont24_1_00F2         0x0807c3e0     0x30  Data  Lc  F24_1.o [4]
acFont24_1_00F3         0x0807c410     0x30  Data  Lc  F24_1.o [4]
acFont24_1_00F4         0x0807c440     0x30  Data  Lc  F24_1.o [4]
acFont24_1_00F5         0x0807c470     0x30  Data  Lc  F24_1.o [4]
acFont24_1_00F6         0x0807c4a0     0x30  Data  Lc  F24_1.o [4]
acFont24_1_00F7         0x0807c4d0     0x30  Data  Lc  F24_1.o [4]
acFont24_1_00F8         0x0807c500     0x30  Data  Lc  F24_1.o [4]
acFont24_1_00F9         0x0807c530     0x30  Data  Lc  F24_1.o [4]
acFont24_1_00FA         0x0807c560     0x30  Data  Lc  F24_1.o [4]
acFont24_1_00FB         0x0807c590     0x30  Data  Lc  F24_1.o [4]
acFont24_1_00FC         0x0807c5c0     0x30  Data  Lc  F24_1.o [4]
acFont24_1_00FD         0x0807c5f0     0x30  Data  Lc  F24_1.o [4]
acFont24_1_00FE         0x0807c620     0x30  Data  Lc  F24_1.o [4]
acFont24_1_00FF         0x0807c650     0x30  Data  Lc  F24_1.o [4]
acFont24_ASCII_0020     0x0807c9b0     0x18  Data  Lc  F24_ASCII.o [4]
acFont24_ASCII_0021     0x0807c9c8     0x18  Data  Lc  F24_ASCII.o [4]
acFont24_ASCII_0022     0x0807c9e0     0x18  Data  Lc  F24_ASCII.o [4]
acFont24_ASCII_0023     0x0807c9f8     0x30  Data  Lc  F24_ASCII.o [4]
acFont24_ASCII_0024     0x0807ca28     0x30  Data  Lc  F24_ASCII.o [4]
acFont24_ASCII_0025     0x0807ca58     0x48  Data  Lc  F24_ASCII.o [4]
acFont24_ASCII_0026     0x0807caa0     0x30  Data  Lc  F24_ASCII.o [4]
acFont24_ASCII_0027     0x0807cad0     0x18  Data  Lc  F24_ASCII.o [4]
acFont24_ASCII_0028     0x0807cae8     0x18  Data  Lc  F24_ASCII.o [4]
acFont24_ASCII_0029     0x0807cb00     0x18  Data  Lc  F24_ASCII.o [4]
acFont24_ASCII_002A     0x0807cb18     0x18  Data  Lc  F24_ASCII.o [4]
acFont24_ASCII_002B     0x0807cb30     0x30  Data  Lc  F24_ASCII.o [4]
acFont24_ASCII_002C     0x0807cb60     0x18  Data  Lc  F24_ASCII.o [4]
acFont24_ASCII_002D     0x0807cb78     0x18  Data  Lc  F24_ASCII.o [4]
acFont24_ASCII_002E     0x0807cb90     0x18  Data  Lc  F24_ASCII.o [4]
acFont24_ASCII_002F     0x0807cba8     0x18  Data  Lc  F24_ASCII.o [4]
acFont24_ASCII_0030     0x0807cbc0     0x30  Data  Lc  F24_ASCII.o [4]
acFont24_ASCII_0031     0x0807cbf0     0x30  Data  Lc  F24_ASCII.o [4]
acFont24_ASCII_0032     0x0807cc20     0x30  Data  Lc  F24_ASCII.o [4]
acFont24_ASCII_0033     0x0807cc50     0x30  Data  Lc  F24_ASCII.o [4]
acFont24_ASCII_0034     0x0807cc80     0x30  Data  Lc  F24_ASCII.o [4]
acFont24_ASCII_0035     0x0807ccb0     0x30  Data  Lc  F24_ASCII.o [4]
acFont24_ASCII_0036     0x0807cce0     0x30  Data  Lc  F24_ASCII.o [4]
acFont24_ASCII_0037     0x0807cd10     0x30  Data  Lc  F24_ASCII.o [4]
acFont24_ASCII_0038     0x0807cd40     0x30  Data  Lc  F24_ASCII.o [4]
acFont24_ASCII_0039     0x0807cd70     0x30  Data  Lc  F24_ASCII.o [4]
acFont24_ASCII_003A     0x0807cda0     0x18  Data  Lc  F24_ASCII.o [4]
acFont24_ASCII_003B     0x0807cdb8     0x18  Data  Lc  F24_ASCII.o [4]
acFont24_ASCII_003C     0x0807cdd0     0x30  Data  Lc  F24_ASCII.o [4]
acFont24_ASCII_003D     0x0807ce00     0x30  Data  Lc  F24_ASCII.o [4]
acFont24_ASCII_003E     0x0807ce30     0x30  Data  Lc  F24_ASCII.o [4]
acFont24_ASCII_003F     0x0807ce60     0x30  Data  Lc  F24_ASCII.o [4]
acFont24_ASCII_0040     0x0807ce90     0x48  Data  Lc  F24_ASCII.o [4]
acFont24_ASCII_0041     0x0807ced8     0x30  Data  Lc  F24_ASCII.o [4]
acFont24_ASCII_0042     0x0807cf08     0x30  Data  Lc  F24_ASCII.o [4]
acFont24_ASCII_0043     0x0807cf38     0x30  Data  Lc  F24_ASCII.o [4]
acFont24_ASCII_0044     0x0807cf68     0x30  Data  Lc  F24_ASCII.o [4]
acFont24_ASCII_0045     0x0807cf98     0x30  Data  Lc  F24_ASCII.o [4]
acFont24_ASCII_0046     0x0807cfc8     0x30  Data  Lc  F24_ASCII.o [4]
acFont24_ASCII_0047     0x0807cff8     0x30  Data  Lc  F24_ASCII.o [4]
acFont24_ASCII_0048     0x0807d028     0x30  Data  Lc  F24_ASCII.o [4]
acFont24_ASCII_0049     0x0807d058     0x18  Data  Lc  F24_ASCII.o [4]
acFont24_ASCII_004A     0x0807d070     0x30  Data  Lc  F24_ASCII.o [4]
acFont24_ASCII_004B     0x0807d0a0     0x30  Data  Lc  F24_ASCII.o [4]
acFont24_ASCII_004C     0x0807d0d0     0x30  Data  Lc  F24_ASCII.o [4]
acFont24_ASCII_004D     0x0807d100     0x48  Data  Lc  F24_ASCII.o [4]
acFont24_ASCII_004E     0x0807d148     0x30  Data  Lc  F24_ASCII.o [4]
acFont24_ASCII_004F     0x0807d178     0x30  Data  Lc  F24_ASCII.o [4]
acFont24_ASCII_0050     0x0807d1a8     0x30  Data  Lc  F24_ASCII.o [4]
acFont24_ASCII_0051     0x0807d1d8     0x30  Data  Lc  F24_ASCII.o [4]
acFont24_ASCII_0052     0x0807d208     0x30  Data  Lc  F24_ASCII.o [4]
acFont24_ASCII_0053     0x0807d238     0x30  Data  Lc  F24_ASCII.o [4]
acFont24_ASCII_0054     0x0807d268     0x30  Data  Lc  F24_ASCII.o [4]
acFont24_ASCII_0055     0x0807d298     0x30  Data  Lc  F24_ASCII.o [4]
acFont24_ASCII_0056     0x0807d2c8     0x30  Data  Lc  F24_ASCII.o [4]
acFont24_ASCII_0057     0x0807d2f8     0x48  Data  Lc  F24_ASCII.o [4]
acFont24_ASCII_0058     0x0807d340     0x30  Data  Lc  F24_ASCII.o [4]
acFont24_ASCII_0059     0x0807d370     0x30  Data  Lc  F24_ASCII.o [4]
acFont24_ASCII_005A     0x0807d3a0     0x30  Data  Lc  F24_ASCII.o [4]
acFont24_ASCII_005B     0x0807d3d0     0x18  Data  Lc  F24_ASCII.o [4]
acFont24_ASCII_005C     0x0807d3e8     0x18  Data  Lc  F24_ASCII.o [4]
acFont24_ASCII_005D     0x0807d400     0x18  Data  Lc  F24_ASCII.o [4]
acFont24_ASCII_005E     0x0807d418     0x18  Data  Lc  F24_ASCII.o [4]
acFont24_ASCII_005F     0x0807d430     0x30  Data  Lc  F24_ASCII.o [4]
acFont24_ASCII_0060     0x0807d460     0x18  Data  Lc  F24_ASCII.o [4]
acFont24_ASCII_0061     0x0807d478     0x30  Data  Lc  F24_ASCII.o [4]
acFont24_ASCII_0062     0x0807d4a8     0x30  Data  Lc  F24_ASCII.o [4]
acFont24_ASCII_0063     0x0807d4d8     0x30  Data  Lc  F24_ASCII.o [4]
acFont24_ASCII_0064     0x0807d508     0x30  Data  Lc  F24_ASCII.o [4]
acFont24_ASCII_0065     0x0807d538     0x30  Data  Lc  F24_ASCII.o [4]
acFont24_ASCII_0066     0x0807d568     0x18  Data  Lc  F24_ASCII.o [4]
acFont24_ASCII_0067     0x0807d580     0x30  Data  Lc  F24_ASCII.o [4]
acFont24_ASCII_0068     0x0807d5b0     0x30  Data  Lc  F24_ASCII.o [4]
acFont24_ASCII_0069     0x0807d5e0     0x18  Data  Lc  F24_ASCII.o [4]
acFont24_ASCII_006A     0x0807d5f8     0x18  Data  Lc  F24_ASCII.o [4]
acFont24_ASCII_006B     0x0807d610     0x30  Data  Lc  F24_ASCII.o [4]
acFont24_ASCII_006C     0x0807d640     0x18  Data  Lc  F24_ASCII.o [4]
acFont24_ASCII_006D     0x0807d658     0x30  Data  Lc  F24_ASCII.o [4]
acFont24_ASCII_006E     0x0807d688     0x30  Data  Lc  F24_ASCII.o [4]
acFont24_ASCII_006F     0x0807d6b8     0x30  Data  Lc  F24_ASCII.o [4]
acFont24_ASCII_0070     0x0807d6e8     0x30  Data  Lc  F24_ASCII.o [4]
acFont24_ASCII_0071     0x0807d718     0x30  Data  Lc  F24_ASCII.o [4]
acFont24_ASCII_0072     0x0807d748     0x18  Data  Lc  F24_ASCII.o [4]
acFont24_ASCII_0073     0x0807d760     0x30  Data  Lc  F24_ASCII.o [4]
acFont24_ASCII_0074     0x0807d790     0x18  Data  Lc  F24_ASCII.o [4]
acFont24_ASCII_0075     0x0807d7a8     0x30  Data  Lc  F24_ASCII.o [4]
acFont24_ASCII_0076     0x0807d7d8     0x30  Data  Lc  F24_ASCII.o [4]
acFont24_ASCII_0077     0x0807d808     0x30  Data  Lc  F24_ASCII.o [4]
acFont24_ASCII_0078     0x0807d838     0x30  Data  Lc  F24_ASCII.o [4]
acFont24_ASCII_0079     0x0807d868     0x30  Data  Lc  F24_ASCII.o [4]
acFont24_ASCII_007A     0x0807d898     0x30  Data  Lc  F24_ASCII.o [4]
acFont24_ASCII_007B     0x0807d8c8     0x18  Data  Lc  F24_ASCII.o [4]
acFont24_ASCII_007C     0x0807d8e0     0x18  Data  Lc  F24_ASCII.o [4]
acFont24_ASCII_007D     0x0807d8f8     0x18  Data  Lc  F24_ASCII.o [4]
acFont24_ASCII_007E     0x0807d910     0x30  Data  Lc  F24_ASCII.o [4]
acFont8ASCII            0x0808c3b4    0x2f8  Data  Lc  F08_ASCII.o [4]
acFont8_1_160           0x0808bd7c      0x8  Data  Lc  F08_1.o [4]
acFont8_1_161           0x0808bd84      0x8  Data  Lc  F08_1.o [4]
acFont8_1_162           0x0808bd8c      0x8  Data  Lc  F08_1.o [4]
acFont8_1_163           0x0808bd94      0x8  Data  Lc  F08_1.o [4]
acFont8_1_164           0x0808bd9c      0x8  Data  Lc  F08_1.o [4]
acFont8_1_165           0x0808bda4      0x8  Data  Lc  F08_1.o [4]
acFont8_1_166           0x0808bdac      0x8  Data  Lc  F08_1.o [4]
acFont8_1_167           0x0808bdb4      0x8  Data  Lc  F08_1.o [4]
acFont8_1_168           0x0808bdbc      0x8  Data  Lc  F08_1.o [4]
acFont8_1_169           0x0808bdc4      0x8  Data  Lc  F08_1.o [4]
acFont8_1_170           0x0808bdcc      0x8  Data  Lc  F08_1.o [4]
acFont8_1_171           0x0808bdd4      0x8  Data  Lc  F08_1.o [4]
acFont8_1_172           0x0808bddc      0x8  Data  Lc  F08_1.o [4]
acFont8_1_173           0x0808bde4      0x8  Data  Lc  F08_1.o [4]
acFont8_1_174           0x0808bdec      0x8  Data  Lc  F08_1.o [4]
acFont8_1_175           0x0808bdf4      0x8  Data  Lc  F08_1.o [4]
acFont8_1_176           0x0808bdfc      0x8  Data  Lc  F08_1.o [4]
acFont8_1_177           0x0808be04      0x8  Data  Lc  F08_1.o [4]
acFont8_1_178           0x0808be0c      0x8  Data  Lc  F08_1.o [4]
acFont8_1_179           0x0808be14      0x8  Data  Lc  F08_1.o [4]
acFont8_1_180           0x0808be1c      0x8  Data  Lc  F08_1.o [4]
acFont8_1_181           0x0808be24      0x8  Data  Lc  F08_1.o [4]
acFont8_1_182           0x0808be2c      0x8  Data  Lc  F08_1.o [4]
acFont8_1_183           0x0808be34      0x8  Data  Lc  F08_1.o [4]
acFont8_1_184           0x0808be3c      0x8  Data  Lc  F08_1.o [4]
acFont8_1_185           0x0808be44      0x8  Data  Lc  F08_1.o [4]
acFont8_1_186           0x0808be4c      0x8  Data  Lc  F08_1.o [4]
acFont8_1_187           0x0808be54      0x8  Data  Lc  F08_1.o [4]
acFont8_1_188           0x0808be5c      0x8  Data  Lc  F08_1.o [4]
acFont8_1_189           0x0808be64      0x8  Data  Lc  F08_1.o [4]
acFont8_1_190           0x0808be6c      0x8  Data  Lc  F08_1.o [4]
acFont8_1_191           0x0808be74      0x8  Data  Lc  F08_1.o [4]
acFont8_1_192           0x0808be7c      0x8  Data  Lc  F08_1.o [4]
acFont8_1_193           0x0808be84      0x8  Data  Lc  F08_1.o [4]
acFont8_1_194           0x0808be8c      0x8  Data  Lc  F08_1.o [4]
acFont8_1_195           0x0808be94      0x8  Data  Lc  F08_1.o [4]
acFont8_1_196           0x0808be9c      0x8  Data  Lc  F08_1.o [4]
acFont8_1_197           0x0808bea4      0x8  Data  Lc  F08_1.o [4]
acFont8_1_198           0x0808beac      0x8  Data  Lc  F08_1.o [4]
acFont8_1_199           0x0808beb4      0x8  Data  Lc  F08_1.o [4]
acFont8_1_200           0x0808bebc      0x8  Data  Lc  F08_1.o [4]
acFont8_1_201           0x0808bec4      0x8  Data  Lc  F08_1.o [4]
acFont8_1_202           0x0808becc      0x8  Data  Lc  F08_1.o [4]
acFont8_1_203           0x0808bed4      0x8  Data  Lc  F08_1.o [4]
acFont8_1_204           0x0808bedc      0x8  Data  Lc  F08_1.o [4]
acFont8_1_205           0x0808bee4      0x8  Data  Lc  F08_1.o [4]
acFont8_1_206           0x0808beec      0x8  Data  Lc  F08_1.o [4]
acFont8_1_207           0x0808bef4      0x8  Data  Lc  F08_1.o [4]
acFont8_1_208           0x0808befc      0x8  Data  Lc  F08_1.o [4]
acFont8_1_209           0x0808bf04      0x8  Data  Lc  F08_1.o [4]
acFont8_1_210           0x0808bf0c      0x8  Data  Lc  F08_1.o [4]
acFont8_1_211           0x0808bf14      0x8  Data  Lc  F08_1.o [4]
acFont8_1_212           0x0808bf1c      0x8  Data  Lc  F08_1.o [4]
acFont8_1_213           0x0808bf24      0x8  Data  Lc  F08_1.o [4]
acFont8_1_214           0x0808bf2c      0x8  Data  Lc  F08_1.o [4]
acFont8_1_215           0x0808bf34      0x8  Data  Lc  F08_1.o [4]
acFont8_1_216           0x0808bf3c      0x8  Data  Lc  F08_1.o [4]
acFont8_1_217           0x0808bf44      0x8  Data  Lc  F08_1.o [4]
acFont8_1_218           0x0808bf4c      0x8  Data  Lc  F08_1.o [4]
acFont8_1_219           0x0808bf54      0x8  Data  Lc  F08_1.o [4]
acFont8_1_220           0x0808bf5c      0x8  Data  Lc  F08_1.o [4]
acFont8_1_221           0x0808bf64      0x8  Data  Lc  F08_1.o [4]
acFont8_1_222           0x0808bf6c      0x8  Data  Lc  F08_1.o [4]
acFont8_1_223           0x0808bf74      0x8  Data  Lc  F08_1.o [4]
acFont8_1_224           0x0808bf7c      0x8  Data  Lc  F08_1.o [4]
acFont8_1_225           0x0808bf84      0x8  Data  Lc  F08_1.o [4]
acFont8_1_226           0x0808bf8c      0x8  Data  Lc  F08_1.o [4]
acFont8_1_227           0x0808bf94      0x8  Data  Lc  F08_1.o [4]
acFont8_1_228           0x0808bf9c      0x8  Data  Lc  F08_1.o [4]
acFont8_1_229           0x0808bfa4      0x8  Data  Lc  F08_1.o [4]
acFont8_1_230           0x0808bfac     0x10  Data  Lc  F08_1.o [4]
acFont8_1_231           0x0808bfbc      0x8  Data  Lc  F08_1.o [4]
acFont8_1_232           0x0808bfc4      0x8  Data  Lc  F08_1.o [4]
acFont8_1_233           0x0808bfcc      0x8  Data  Lc  F08_1.o [4]
acFont8_1_234           0x0808bfd4      0x8  Data  Lc  F08_1.o [4]
acFont8_1_235           0x0808bfdc      0x8  Data  Lc  F08_1.o [4]
acFont8_1_236           0x0808bfe4      0x8  Data  Lc  F08_1.o [4]
acFont8_1_237           0x0808bfec      0x8  Data  Lc  F08_1.o [4]
acFont8_1_238           0x0808bff4      0x8  Data  Lc  F08_1.o [4]
acFont8_1_239           0x0808bffc      0x8  Data  Lc  F08_1.o [4]
acFont8_1_240           0x0808c004      0x8  Data  Lc  F08_1.o [4]
acFont8_1_241           0x0808c00c      0x8  Data  Lc  F08_1.o [4]
acFont8_1_242           0x0808c014      0x8  Data  Lc  F08_1.o [4]
acFont8_1_243           0x0808c01c      0x8  Data  Lc  F08_1.o [4]
acFont8_1_244           0x0808c024      0x8  Data  Lc  F08_1.o [4]
acFont8_1_245           0x0808c02c      0x8  Data  Lc  F08_1.o [4]
acFont8_1_246           0x0808c034      0x8  Data  Lc  F08_1.o [4]
acFont8_1_247           0x0808c03c      0x8  Data  Lc  F08_1.o [4]
acFont8_1_248           0x0808c044      0x8  Data  Lc  F08_1.o [4]
acFont8_1_249           0x0808c04c      0x8  Data  Lc  F08_1.o [4]
acFont8_1_250           0x0808c054      0x8  Data  Lc  F08_1.o [4]
acFont8_1_251           0x0808c05c      0x8  Data  Lc  F08_1.o [4]
acFont8_1_252           0x0808c064      0x8  Data  Lc  F08_1.o [4]
acFont8_1_253           0x0808c06c      0x8  Data  Lc  F08_1.o [4]
acFont8_1_254           0x0808c074      0x8  Data  Lc  F08_1.o [4]
acFont8_1_255           0x0808c07c      0x8  Data  Lc  F08_1.o [4]
acGUI_Font20_ASCII_0020
                        0x0807dc44     0x14  Data  Lc  F20_ASCII.o [4]
acGUI_Font20_ASCII_0021
                        0x0807dc58     0x14  Data  Lc  F20_ASCII.o [4]
acGUI_Font20_ASCII_0022
                        0x0807dc6c     0x14  Data  Lc  F20_ASCII.o [4]
acGUI_Font20_ASCII_0023
                        0x0807dc80     0x28  Data  Lc  F20_ASCII.o [4]
acGUI_Font20_ASCII_0024
                        0x0807dca8     0x28  Data  Lc  F20_ASCII.o [4]
acGUI_Font20_ASCII_0025
                        0x0807dcd0     0x28  Data  Lc  F20_ASCII.o [4]
acGUI_Font20_ASCII_0026
                        0x0807dcf8     0x28  Data  Lc  F20_ASCII.o [4]
acGUI_Font20_ASCII_0027
                        0x0807dd20     0x14  Data  Lc  F20_ASCII.o [4]
acGUI_Font20_ASCII_0028
                        0x0807dd34     0x14  Data  Lc  F20_ASCII.o [4]
acGUI_Font20_ASCII_0029
                        0x0807dd48     0x14  Data  Lc  F20_ASCII.o [4]
acGUI_Font20_ASCII_002A
                        0x0807dd5c     0x14  Data  Lc  F20_ASCII.o [4]
acGUI_Font20_ASCII_002B
                        0x0807dd70     0x28  Data  Lc  F20_ASCII.o [4]
acGUI_Font20_ASCII_002C
                        0x0807dd98     0x14  Data  Lc  F20_ASCII.o [4]
acGUI_Font20_ASCII_002D
                        0x0807ddac     0x14  Data  Lc  F20_ASCII.o [4]
acGUI_Font20_ASCII_002E
                        0x0807ddc0     0x14  Data  Lc  F20_ASCII.o [4]
acGUI_Font20_ASCII_002F
                        0x0807ddd4     0x14  Data  Lc  F20_ASCII.o [4]
acGUI_Font20_ASCII_0030
                        0x0807dde8     0x28  Data  Lc  F20_ASCII.o [4]
acGUI_Font20_ASCII_0031
                        0x0807de10     0x28  Data  Lc  F20_ASCII.o [4]
acGUI_Font20_ASCII_0032
                        0x0807de38     0x28  Data  Lc  F20_ASCII.o [4]
acGUI_Font20_ASCII_0033
                        0x0807de60     0x28  Data  Lc  F20_ASCII.o [4]
acGUI_Font20_ASCII_0034
                        0x0807de88     0x28  Data  Lc  F20_ASCII.o [4]
acGUI_Font20_ASCII_0035
                        0x0807deb0     0x28  Data  Lc  F20_ASCII.o [4]
acGUI_Font20_ASCII_0036
                        0x0807ded8     0x28  Data  Lc  F20_ASCII.o [4]
acGUI_Font20_ASCII_0037
                        0x0807df00     0x28  Data  Lc  F20_ASCII.o [4]
acGUI_Font20_ASCII_0038
                        0x0807df28     0x28  Data  Lc  F20_ASCII.o [4]
acGUI_Font20_ASCII_0039
                        0x0807df50     0x28  Data  Lc  F20_ASCII.o [4]
acGUI_Font20_ASCII_003A
                        0x0807df78     0x14  Data  Lc  F20_ASCII.o [4]
acGUI_Font20_ASCII_003B
                        0x0807df8c     0x14  Data  Lc  F20_ASCII.o [4]
acGUI_Font20_ASCII_003C
                        0x0807dfa0     0x28  Data  Lc  F20_ASCII.o [4]
acGUI_Font20_ASCII_003D
                        0x0807dfc8     0x28  Data  Lc  F20_ASCII.o [4]
acGUI_Font20_ASCII_003E
                        0x0807dff0     0x28  Data  Lc  F20_ASCII.o [4]
acGUI_Font20_ASCII_003F
                        0x0807e018     0x28  Data  Lc  F20_ASCII.o [4]
acGUI_Font20_ASCII_0040
                        0x0807e040     0x3c  Data  Lc  F20_ASCII.o [4]
acGUI_Font20_ASCII_0041
                        0x0807e07c     0x28  Data  Lc  F20_ASCII.o [4]
acGUI_Font20_ASCII_0042
                        0x0807e0a4     0x28  Data  Lc  F20_ASCII.o [4]
acGUI_Font20_ASCII_0043
                        0x0807e0cc     0x28  Data  Lc  F20_ASCII.o [4]
acGUI_Font20_ASCII_0044
                        0x0807e0f4     0x28  Data  Lc  F20_ASCII.o [4]
acGUI_Font20_ASCII_0045
                        0x0807e11c     0x28  Data  Lc  F20_ASCII.o [4]
acGUI_Font20_ASCII_0046
                        0x0807e144     0x28  Data  Lc  F20_ASCII.o [4]
acGUI_Font20_ASCII_0047
                        0x0807e16c     0x28  Data  Lc  F20_ASCII.o [4]
acGUI_Font20_ASCII_0048
                        0x0807e194     0x28  Data  Lc  F20_ASCII.o [4]
acGUI_Font20_ASCII_0049
                        0x0807e1bc     0x14  Data  Lc  F20_ASCII.o [4]
acGUI_Font20_ASCII_004A
                        0x0807e1d0     0x28  Data  Lc  F20_ASCII.o [4]
acGUI_Font20_ASCII_004B
                        0x0807e1f8     0x28  Data  Lc  F20_ASCII.o [4]
acGUI_Font20_ASCII_004C
                        0x0807e220     0x28  Data  Lc  F20_ASCII.o [4]
acGUI_Font20_ASCII_004D
                        0x0807e248     0x28  Data  Lc  F20_ASCII.o [4]
acGUI_Font20_ASCII_004E
                        0x0807e270     0x28  Data  Lc  F20_ASCII.o [4]
acGUI_Font20_ASCII_004F
                        0x0807e298     0x28  Data  Lc  F20_ASCII.o [4]
acGUI_Font20_ASCII_0050
                        0x0807e2c0     0x28  Data  Lc  F20_ASCII.o [4]
acGUI_Font20_ASCII_0051
                        0x0807e2e8     0x28  Data  Lc  F20_ASCII.o [4]
acGUI_Font20_ASCII_0052
                        0x0807e310     0x28  Data  Lc  F20_ASCII.o [4]
acGUI_Font20_ASCII_0053
                        0x0807e338     0x28  Data  Lc  F20_ASCII.o [4]
acGUI_Font20_ASCII_0054
                        0x0807e360     0x28  Data  Lc  F20_ASCII.o [4]
acGUI_Font20_ASCII_0055
                        0x0807e388     0x28  Data  Lc  F20_ASCII.o [4]
acGUI_Font20_ASCII_0056
                        0x0807e3b0     0x28  Data  Lc  F20_ASCII.o [4]
acGUI_Font20_ASCII_0057
                        0x0807e3d8     0x3c  Data  Lc  F20_ASCII.o [4]
acGUI_Font20_ASCII_0058
                        0x0807e414     0x28  Data  Lc  F20_ASCII.o [4]
acGUI_Font20_ASCII_0059
                        0x0807e43c     0x28  Data  Lc  F20_ASCII.o [4]
acGUI_Font20_ASCII_005A
                        0x0807e464     0x28  Data  Lc  F20_ASCII.o [4]
acGUI_Font20_ASCII_005B
                        0x0807e48c     0x14  Data  Lc  F20_ASCII.o [4]
acGUI_Font20_ASCII_005C
                        0x0807e4a0     0x14  Data  Lc  F20_ASCII.o [4]
acGUI_Font20_ASCII_005D
                        0x0807e4b4     0x14  Data  Lc  F20_ASCII.o [4]
acGUI_Font20_ASCII_005E
                        0x0807e4c8     0x14  Data  Lc  F20_ASCII.o [4]
acGUI_Font20_ASCII_005F
                        0x0807e4dc     0x28  Data  Lc  F20_ASCII.o [4]
acGUI_Font20_ASCII_0060
                        0x0807e504     0x14  Data  Lc  F20_ASCII.o [4]
acGUI_Font20_ASCII_0061
                        0x0807e518     0x28  Data  Lc  F20_ASCII.o [4]
acGUI_Font20_ASCII_0062
                        0x0807e540     0x28  Data  Lc  F20_ASCII.o [4]
acGUI_Font20_ASCII_0063
                        0x0807e568     0x28  Data  Lc  F20_ASCII.o [4]
acGUI_Font20_ASCII_0064
                        0x0807e590     0x28  Data  Lc  F20_ASCII.o [4]
acGUI_Font20_ASCII_0065
                        0x0807e5b8     0x28  Data  Lc  F20_ASCII.o [4]
acGUI_Font20_ASCII_0066
                        0x0807e5e0     0x14  Data  Lc  F20_ASCII.o [4]
acGUI_Font20_ASCII_0067
                        0x0807e5f4     0x28  Data  Lc  F20_ASCII.o [4]
acGUI_Font20_ASCII_0068
                        0x0807e61c     0x28  Data  Lc  F20_ASCII.o [4]
acGUI_Font20_ASCII_0069
                        0x0807e644     0x14  Data  Lc  F20_ASCII.o [4]
acGUI_Font20_ASCII_006A
                        0x0807e658     0x14  Data  Lc  F20_ASCII.o [4]
acGUI_Font20_ASCII_006B
                        0x0807e66c     0x28  Data  Lc  F20_ASCII.o [4]
acGUI_Font20_ASCII_006C
                        0x0807e694     0x14  Data  Lc  F20_ASCII.o [4]
acGUI_Font20_ASCII_006D
                        0x0807e6a8     0x28  Data  Lc  F20_ASCII.o [4]
acGUI_Font20_ASCII_006E
                        0x0807e6d0     0x28  Data  Lc  F20_ASCII.o [4]
acGUI_Font20_ASCII_006F
                        0x0807e6f8     0x28  Data  Lc  F20_ASCII.o [4]
acGUI_Font20_ASCII_0070
                        0x0807e720     0x28  Data  Lc  F20_ASCII.o [4]
acGUI_Font20_ASCII_0071
                        0x0807e748     0x28  Data  Lc  F20_ASCII.o [4]
acGUI_Font20_ASCII_0072
                        0x0807e770     0x14  Data  Lc  F20_ASCII.o [4]
acGUI_Font20_ASCII_0073
                        0x0807e784     0x28  Data  Lc  F20_ASCII.o [4]
acGUI_Font20_ASCII_0074
                        0x0807e7ac     0x14  Data  Lc  F20_ASCII.o [4]
acGUI_Font20_ASCII_0075
                        0x0807e7c0     0x28  Data  Lc  F20_ASCII.o [4]
acGUI_Font20_ASCII_0076
                        0x0807e7e8     0x28  Data  Lc  F20_ASCII.o [4]
acGUI_Font20_ASCII_0077
                        0x0807e810     0x28  Data  Lc  F20_ASCII.o [4]
acGUI_Font20_ASCII_0078
                        0x0807e838     0x14  Data  Lc  F20_ASCII.o [4]
acGUI_Font20_ASCII_0079
                        0x0807e84c     0x28  Data  Lc  F20_ASCII.o [4]
acGUI_Font20_ASCII_007A
                        0x0807e874     0x14  Data  Lc  F20_ASCII.o [4]
acGUI_Font20_ASCII_007B
                        0x0807e888     0x14  Data  Lc  F20_ASCII.o [4]
acGUI_Font20_ASCII_007C
                        0x0807e89c     0x14  Data  Lc  F20_ASCII.o [4]
acGUI_Font20_ASCII_007D
                        0x0807e8b0     0x14  Data  Lc  F20_ASCII.o [4]
acGUI_Font20_ASCII_007E
                        0x0807e8c4     0x28  Data  Lc  F20_ASCII.o [4]
acGUI_FontAvantGarde20B_0020
                        0x080215f0      0x1  Data  Gb  ST_Fonts.o [3]
acGUI_FontAvantGarde20B_0021
                        0x080215f4      0xc  Data  Gb  ST_Fonts.o [3]
acGUI_FontAvantGarde20B_0022
                        0x08021600     0x10  Data  Gb  ST_Fonts.o [3]
acGUI_FontAvantGarde20B_0023
                        0x08021610     0x38  Data  Gb  ST_Fonts.o [3]
acGUI_FontAvantGarde20B_0024
                        0x08021648     0x38  Data  Gb  ST_Fonts.o [3]
acGUI_FontAvantGarde20B_0025
                        0x08021680     0x48  Data  Gb  ST_Fonts.o [3]
acGUI_FontAvantGarde20B_0026
                        0x080216c8     0x48  Data  Gb  ST_Fonts.o [3]
acGUI_FontAvantGarde20B_0027
                        0x08021710      0x8  Data  Gb  ST_Fonts.o [3]
acGUI_FontAvantGarde20B_0028
                        0x08021718     0x30  Data  Gb  ST_Fonts.o [3]
acGUI_FontAvantGarde20B_0029
                        0x08021748     0x30  Data  Gb  ST_Fonts.o [3]
acGUI_FontAvantGarde20B_002A
                        0x08021778     0x14  Data  Gb  ST_Fonts.o [3]
acGUI_FontAvantGarde20B_002B
                        0x0802178c     0x20  Data  Gb  ST_Fonts.o [3]
acGUI_FontAvantGarde20B_002C
                        0x080217ac      0x8  Data  Gb  ST_Fonts.o [3]
acGUI_FontAvantGarde20B_002D
                        0x080217b4      0x8  Data  Gb  ST_Fonts.o [3]
acGUI_FontAvantGarde20B_002E
                        0x080217bc      0x4  Data  Gb  ST_Fonts.o [3]
acGUI_FontAvantGarde20B_002F
                        0x080217c0     0x38  Data  Gb  ST_Fonts.o [3]
acGUI_FontAvantGarde20B_0030
                        0x080217f8     0x30  Data  Gb  ST_Fonts.o [3]
acGUI_FontAvantGarde20B_0031
                        0x08021828     0x24  Data  Gb  ST_Fonts.o [3]
acGUI_FontAvantGarde20B_0032
                        0x0802184c     0x30  Data  Gb  ST_Fonts.o [3]
acGUI_FontAvantGarde20B_0033
                        0x0802187c     0x3c  Data  Gb  ST_Fonts.o [3]
acGUI_FontAvantGarde20B_0034
                        0x080218b8     0x3c  Data  Gb  ST_Fonts.o [3]
acGUI_FontAvantGarde20B_0035
                        0x080218f4     0x3c  Data  Gb  ST_Fonts.o [3]
acGUI_FontAvantGarde20B_0036
                        0x08021930     0x30  Data  Gb  ST_Fonts.o [3]
acGUI_FontAvantGarde20B_0037
                        0x08021960     0x30  Data  Gb  ST_Fonts.o [3]
acGUI_FontAvantGarde20B_0038
                        0x08021990     0x30  Data  Gb  ST_Fonts.o [3]
acGUI_FontAvantGarde20B_0039
                        0x080219c0     0x30  Data  Gb  ST_Fonts.o [3]
acGUI_FontAvantGarde20B_003A
                        0x080219f0      0xc  Data  Gb  ST_Fonts.o [3]
acGUI_FontAvantGarde20B_003B
                        0x080219fc     0x14  Data  Gb  ST_Fonts.o [3]
acGUI_FontAvantGarde20B_003C
                        0x08021a10     0x24  Data  Gb  ST_Fonts.o [3]
acGUI_FontAvantGarde20B_003D
                        0x08021a34     0x18  Data  Gb  ST_Fonts.o [3]
acGUI_FontAvantGarde20B_003E
                        0x08021a4c     0x24  Data  Gb  ST_Fonts.o [3]
acGUI_FontAvantGarde20B_003F
                        0x08021a70     0x30  Data  Gb  ST_Fonts.o [3]
acGUI_FontAvantGarde20B_0040
                        0x08021aa0     0x48  Data  Gb  ST_Fonts.o [3]
acGUI_FontAvantGarde20B_0041
                        0x08021ae8     0x48  Data  Gb  ST_Fonts.o [3]
acGUI_FontAvantGarde20B_0042
                        0x08021b30     0x30  Data  Gb  ST_Fonts.o [3]
acGUI_FontAvantGarde20B_0043
                        0x08021b60     0x48  Data  Gb  ST_Fonts.o [3]
acGUI_FontAvantGarde20B_0044
                        0x08021ba8     0x3c  Data  Gb  ST_Fonts.o [3]
acGUI_FontAvantGarde20B_0045
                        0x08021be4     0x30  Data  Gb  ST_Fonts.o [3]
acGUI_FontAvantGarde20B_0046
                        0x08021c14     0x24  Data  Gb  ST_Fonts.o [3]
acGUI_FontAvantGarde20B_0047
                        0x08021c38     0x54  Data  Gb  ST_Fonts.o [3]
acGUI_FontAvantGarde20B_0048
                        0x08021c8c     0x3c  Data  Gb  ST_Fonts.o [3]
acGUI_FontAvantGarde20B_0049
                        0x08021cc8     0x18  Data  Gb  ST_Fonts.o [3]
acGUI_FontAvantGarde20B_004A
                        0x08021ce0     0x30  Data  Gb  ST_Fonts.o [3]
acGUI_FontAvantGarde20B_004B
                        0x08021d10     0x3c  Data  Gb  ST_Fonts.o [3]
acGUI_FontAvantGarde20B_004C
                        0x08021d4c     0x24  Data  Gb  ST_Fonts.o [3]
acGUI_FontAvantGarde20B_004D
                        0x08021d70     0x48  Data  Gb  ST_Fonts.o [3]
acGUI_FontAvantGarde20B_004E
                        0x08021db8     0x3c  Data  Gb  ST_Fonts.o [3]
acGUI_FontAvantGarde20B_004F
                        0x08021df4     0x48  Data  Gb  ST_Fonts.o [3]
acGUI_FontAvantGarde20B_0050
                        0x08021e3c     0x30  Data  Gb  ST_Fonts.o [3]
acGUI_FontAvantGarde20B_0051
                        0x08021e6c     0x54  Data  Gb  ST_Fonts.o [3]
acGUI_FontAvantGarde20B_0052
                        0x08021ec0     0x30  Data  Gb  ST_Fonts.o [3]
acGUI_FontAvantGarde20B_0053
                        0x08021ef0     0x30  Data  Gb  ST_Fonts.o [3]
acGUI_FontAvantGarde20B_0054
                        0x08021f20     0x30  Data  Gb  ST_Fonts.o [3]
acGUI_FontAvantGarde20B_0055
                        0x08021f50     0x30  Data  Gb  ST_Fonts.o [3]
acGUI_FontAvantGarde20B_0056
                        0x08021f80     0x48  Data  Gb  ST_Fonts.o [3]
acGUI_FontAvantGarde20B_0057
                        0x08021fc8     0x60  Data  Gb  ST_Fonts.o [3]
acGUI_FontAvantGarde20B_0058
                        0x08022028     0x48  Data  Gb  ST_Fonts.o [3]
acGUI_FontAvantGarde20B_0059
                        0x08022070     0x3c  Data  Gb  ST_Fonts.o [3]
acGUI_FontAvantGarde20B_005A
                        0x080220ac     0x30  Data  Gb  ST_Fonts.o [3]
acGUI_FontAvantGarde20B_005B
                        0x080220dc     0x30  Data  Gb  ST_Fonts.o [3]
acGUI_FontAvantGarde20B_005C
                        0x0802210c     0x38  Data  Gb  ST_Fonts.o [3]
acGUI_FontAvantGarde20B_005D
                        0x08022144     0x30  Data  Gb  ST_Fonts.o [3]
acGUI_FontAvantGarde20B_005E
                        0x08022174     0x18  Data  Gb  ST_Fonts.o [3]
acGUI_FontAvantGarde20B_005F
                        0x0802218c      0x4  Data  Gb  ST_Fonts.o [3]
acGUI_FontAvantGarde20B_0060
                        0x08022190      0xc  Data  Gb  ST_Fonts.o [3]
acGUI_FontAvantGarde20B_0061
                        0x0802219c     0x30  Data  Gb  ST_Fonts.o [3]
acGUI_FontAvantGarde20B_0062
                        0x080221cc     0x3c  Data  Gb  ST_Fonts.o [3]
acGUI_FontAvantGarde20B_0063
                        0x08022208     0x30  Data  Gb  ST_Fonts.o [3]
acGUI_FontAvantGarde20B_0064
                        0x08022238     0x3c  Data  Gb  ST_Fonts.o [3]
acGUI_FontAvantGarde20B_0065
                        0x08022274     0x30  Data  Gb  ST_Fonts.o [3]
acGUI_FontAvantGarde20B_0066
                        0x080222a4     0x24  Data  Gb  ST_Fonts.o [3]
acGUI_FontAvantGarde20B_0067
                        0x080222c8     0x44  Data  Gb  ST_Fonts.o [3]
acGUI_FontAvantGarde20B_0068
                        0x0802230c     0x30  Data  Gb  ST_Fonts.o [3]
acGUI_FontAvantGarde20B_0069
                        0x0802233c      0xc  Data  Gb  ST_Fonts.o [3]
acGUI_FontAvantGarde20B_006A
                        0x08022348     0x20  Data  Gb  ST_Fonts.o [3]
acGUI_FontAvantGarde20B_006B
                        0x08022368     0x30  Data  Gb  ST_Fonts.o [3]
acGUI_FontAvantGarde20B_006C
                        0x08022398      0xc  Data  Gb  ST_Fonts.o [3]
acGUI_FontAvantGarde20B_006D
                        0x080223a4     0x40  Data  Gb  ST_Fonts.o [3]
acGUI_FontAvantGarde20B_006E
                        0x080223e4     0x24  Data  Gb  ST_Fonts.o [3]
acGUI_FontAvantGarde20B_006F
                        0x08022408     0x30  Data  Gb  ST_Fonts.o [3]
acGUI_FontAvantGarde20B_0070
                        0x08022438     0x3c  Data  Gb  ST_Fonts.o [3]
acGUI_FontAvantGarde20B_0071
                        0x08022474     0x3c  Data  Gb  ST_Fonts.o [3]
acGUI_FontAvantGarde20B_0072
                        0x080224b0     0x1c  Data  Gb  ST_Fonts.o [3]
acGUI_FontAvantGarde20B_0073
                        0x080224cc     0x1c  Data  Gb  ST_Fonts.o [3]
acGUI_FontAvantGarde20B_0074
                        0x080224e8     0x24  Data  Gb  ST_Fonts.o [3]
acGUI_FontAvantGarde20B_0075
                        0x0802250c     0x24  Data  Gb  ST_Fonts.o [3]
acGUI_FontAvantGarde20B_0076
                        0x08022530     0x30  Data  Gb  ST_Fonts.o [3]
acGUI_FontAvantGarde20B_0077
                        0x08022560     0x40  Data  Gb  ST_Fonts.o [3]
acGUI_FontAvantGarde20B_0078
                        0x080225a0     0x30  Data  Gb  ST_Fonts.o [3]
acGUI_FontAvantGarde20B_0079
                        0x080225d0     0x3c  Data  Gb  ST_Fonts.o [3]
acGUI_FontAvantGarde20B_007A
                        0x0802260c     0x24  Data  Gb  ST_Fonts.o [3]
acGUI_FontAvantGarde20B_007B
                        0x08022630     0x30  Data  Gb  ST_Fonts.o [3]
acGUI_FontAvantGarde20B_007C
                        0x08022660     0x20  Data  Gb  ST_Fonts.o [3]
acGUI_FontAvantGarde20B_007D
                        0x08022680     0x30  Data  Gb  ST_Fonts.o [3]
acGUI_FontAvantGarde20B_007E
                        0x080226b0     0x10  Data  Gb  ST_Fonts.o [3]
acGUI_FontAvantGarde20B_00A0
                        0x080226c0      0x1  Data  Gb  ST_Fonts.o [3]
acGUI_FontAvantGarde20B_00A1
                        0x080226c4      0xc  Data  Gb  ST_Fonts.o [3]
acGUI_FontAvantGarde20B_00A2
                        0x080226d0     0x2c  Data  Gb  ST_Fonts.o [3]
acGUI_FontAvantGarde20B_00A3
                        0x080226fc     0x3c  Data  Gb  ST_Fonts.o [3]
acGUI_FontAvantGarde20B_00A4
                        0x08022738     0x38  Data  Gb  ST_Fonts.o [3]
acGUI_FontAvantGarde20B_00A5
                        0x08022770     0x3c  Data  Gb  ST_Fonts.o [3]
acGUI_FontAvantGarde20B_00A6
                        0x080227ac     0x1c  Data  Gb  ST_Fonts.o [3]
acGUI_FontAvantGarde20B_00A7
                        0x080227c8     0x50  Data  Gb  ST_Fonts.o [3]
acGUI_FontAvantGarde20B_00A8
                        0x08022818      0xc  Data  Gb  ST_Fonts.o [3]
acGUI_FontAvantGarde20B_00A9
                        0x08022824     0x48  Data  Gb  ST_Fonts.o [3]
acGUI_FontAvantGarde20B_00AA
                        0x0802286c     0x14  Data  Gb  ST_Fonts.o [3]
acGUI_FontAvantGarde20B_00AB
                        0x08022880     0x14  Data  Gb  ST_Fonts.o [3]
acGUI_FontAvantGarde20B_00AC
                        0x08022894     0x14  Data  Gb  ST_Fonts.o [3]
acGUI_FontAvantGarde20B_00AD
                        0x080228a8      0x8  Data  Gb  ST_Fonts.o [3]
acGUI_FontAvantGarde20B_00AE
                        0x080228b0     0x48  Data  Gb  ST_Fonts.o [3]
acGUI_FontAvantGarde20B_00AF
                        0x080228f8      0x8  Data  Gb  ST_Fonts.o [3]
acGUI_FontAvantGarde20B_00B0
                        0x08022900      0x8  Data  Gb  ST_Fonts.o [3]
acGUI_FontAvantGarde20B_00B1
                        0x08022908     0x28  Data  Gb  ST_Fonts.o [3]
acGUI_FontAvantGarde20B_00B2
                        0x08022930     0x18  Data  Gb  ST_Fonts.o [3]
acGUI_FontAvantGarde20B_00B3
                        0x08022948     0x18  Data  Gb  ST_Fonts.o [3]
acGUI_FontAvantGarde20B_00B4
                        0x08022960      0xc  Data  Gb  ST_Fonts.o [3]
acGUI_FontAvantGarde20B_00B5
                        0x0802296c     0x30  Data  Gb  ST_Fonts.o [3]
acGUI_FontAvantGarde20B_00B6
                        0x0802299c     0x48  Data  Gb  ST_Fonts.o [3]
acGUI_FontAvantGarde20B_00B7
                        0x080229e4      0x4  Data  Gb  ST_Fonts.o [3]
acGUI_FontAvantGarde20B_00B8
                        0x080229e8      0x8  Data  Gb  ST_Fonts.o [3]
acGUI_FontAvantGarde20B_00B9
                        0x080229f0     0x10  Data  Gb  ST_Fonts.o [3]
acGUI_FontAvantGarde20B_00BA
                        0x08022a00     0x14  Data  Gb  ST_Fonts.o [3]
acGUI_FontAvantGarde20B_00BB
                        0x08022a14     0x14  Data  Gb  ST_Fonts.o [3]
acGUI_FontAvantGarde20B_00BC
                        0x08022a28     0x54  Data  Gb  ST_Fonts.o [3]
acGUI_FontAvantGarde20B_00BD
                        0x08022a7c     0x54  Data  Gb  ST_Fonts.o [3]
acGUI_FontAvantGarde20B_00BE
                        0x08022ad0     0x60  Data  Gb  ST_Fonts.o [3]
acGUI_FontAvantGarde20B_00BF
                        0x08022b30     0x30  Data  Gb  ST_Fonts.o [3]
acGUI_FontAvantGarde20B_00C0
                        0x08022b60     0x60  Data  Gb  ST_Fonts.o [3]
acGUI_FontAvantGarde20B_00C1
                        0x08022bc0     0x60  Data  Gb  ST_Fonts.o [3]
acGUI_FontAvantGarde20B_00C2
                        0x08022c20     0x5c  Data  Gb  ST_Fonts.o [3]
acGUI_FontAvantGarde20B_00C3
                        0x08022c7c     0x60  Data  Gb  ST_Fonts.o [3]
acGUI_FontAvantGarde20B_00C4
                        0x08022cdc     0x5c  Data  Gb  ST_Fonts.o [3]
acGUI_FontAvantGarde20B_00C5
                        0x08022d38     0x60  Data  Gb  ST_Fonts.o [3]
acGUI_FontAvantGarde20B_00C6
                        0x08022d98     0x60  Data  Gb  ST_Fonts.o [3]
acGUI_FontAvantGarde20B_00C7
                        0x08022df8     0x60  Data  Gb  ST_Fonts.o [3]
acGUI_FontAvantGarde20B_00C8
                        0x08022e58     0x40  Data  Gb  ST_Fonts.o [3]
acGUI_FontAvantGarde20B_00C9
                        0x08022e98     0x40  Data  Gb  ST_Fonts.o [3]
acGUI_FontAvantGarde20B_00CA
                        0x08022ed8     0x3c  Data  Gb  ST_Fonts.o [3]
acGUI_FontAvantGarde20B_00CB
                        0x08022f14     0x3c  Data  Gb  ST_Fonts.o [3]
acGUI_FontAvantGarde20B_00CC
                        0x08022f50     0x30  Data  Gb  ST_Fonts.o [3]
acGUI_FontAvantGarde20B_00CD
                        0x08022f80     0x30  Data  Gb  ST_Fonts.o [3]
acGUI_FontAvantGarde20B_00CE
                        0x08022fb0     0x3c  Data  Gb  ST_Fonts.o [3]
acGUI_FontAvantGarde20B_00CF
                        0x08022fec     0x30  Data  Gb  ST_Fonts.o [3]
acGUI_FontAvantGarde20B_00D0
                        0x0802301c     0x48  Data  Gb  ST_Fonts.o [3]
acGUI_FontAvantGarde20B_00D1
                        0x08023064     0x50  Data  Gb  ST_Fonts.o [3]
acGUI_FontAvantGarde20B_00D2
                        0x080230b4     0x60  Data  Gb  ST_Fonts.o [3]
acGUI_FontAvantGarde20B_00D3
                        0x08023114     0x60  Data  Gb  ST_Fonts.o [3]
acGUI_FontAvantGarde20B_00D4
                        0x08023174     0x5c  Data  Gb  ST_Fonts.o [3]
acGUI_FontAvantGarde20B_00D5
                        0x080231d0     0x60  Data  Gb  ST_Fonts.o [3]
acGUI_FontAvantGarde20B_00D6
                        0x08023230     0x5c  Data  Gb  ST_Fonts.o [3]
acGUI_FontAvantGarde20B_00D7
                        0x0802328c     0x20  Data  Gb  ST_Fonts.o [3]
acGUI_FontAvantGarde20B_00D8
                        0x080232ac     0x54  Data  Gb  ST_Fonts.o [3]
acGUI_FontAvantGarde20B_00D9
                        0x08023300     0x40  Data  Gb  ST_Fonts.o [3]
acGUI_FontAvantGarde20B_00DA
                        0x08023340     0x40  Data  Gb  ST_Fonts.o [3]
acGUI_FontAvantGarde20B_00DB
                        0x08023380     0x3c  Data  Gb  ST_Fonts.o [3]
acGUI_FontAvantGarde20B_00DC
                        0x080233bc     0x3c  Data  Gb  ST_Fonts.o [3]
acGUI_FontAvantGarde20B_00DD
                        0x080233f8     0x50  Data  Gb  ST_Fonts.o [3]
acGUI_FontAvantGarde20B_00DE
                        0x08023448     0x30  Data  Gb  ST_Fonts.o [3]
acGUI_FontAvantGarde20B_00DF
                        0x08023478     0x3c  Data  Gb  ST_Fonts.o [3]
acGUI_FontAvantGarde20B_00E0
                        0x080234b4     0x44  Data  Gb  ST_Fonts.o [3]
acGUI_FontAvantGarde20B_00E1
                        0x080234f8     0x44  Data  Gb  ST_Fonts.o [3]
acGUI_FontAvantGarde20B_00E2
                        0x0802353c     0x3c  Data  Gb  ST_Fonts.o [3]
acGUI_FontAvantGarde20B_00E3
                        0x08023578     0x44  Data  Gb  ST_Fonts.o [3]
acGUI_FontAvantGarde20B_00E4
                        0x080235bc     0x3c  Data  Gb  ST_Fonts.o [3]
acGUI_FontAvantGarde20B_00E5
                        0x080235f8     0x44  Data  Gb  ST_Fonts.o [3]
acGUI_FontAvantGarde20B_00E6
                        0x0802363c     0x54  Data  Gb  ST_Fonts.o [3]
acGUI_FontAvantGarde20B_00E7
                        0x08023690     0x44  Data  Gb  ST_Fonts.o [3]
acGUI_FontAvantGarde20B_00E8
                        0x080236d4     0x44  Data  Gb  ST_Fonts.o [3]
acGUI_FontAvantGarde20B_00E9
                        0x08023718     0x44  Data  Gb  ST_Fonts.o [3]
acGUI_FontAvantGarde20B_00EA
                        0x0802375c     0x3c  Data  Gb  ST_Fonts.o [3]
acGUI_FontAvantGarde20B_00EB
                        0x08023798     0x3c  Data  Gb  ST_Fonts.o [3]
acGUI_FontAvantGarde20B_00EC
                        0x080237d4     0x2c  Data  Gb  ST_Fonts.o [3]
acGUI_FontAvantGarde20B_00ED
                        0x08023800     0x2c  Data  Gb  ST_Fonts.o [3]
acGUI_FontAvantGarde20B_00EE
                        0x0802382c     0x30  Data  Gb  ST_Fonts.o [3]
acGUI_FontAvantGarde20B_00EF
                        0x0802385c     0x24  Data  Gb  ST_Fonts.o [3]
acGUI_FontAvantGarde20B_00F0
                        0x08023880     0x3c  Data  Gb  ST_Fonts.o [3]
acGUI_FontAvantGarde20B_00F1
                        0x080238bc     0x34  Data  Gb  ST_Fonts.o [3]
acGUI_FontAvantGarde20B_00F2
                        0x080238f0     0x44  Data  Gb  ST_Fonts.o [3]
acGUI_FontAvantGarde20B_00F3
                        0x08023934     0x44  Data  Gb  ST_Fonts.o [3]
acGUI_FontAvantGarde20B_00F4
                        0x08023978     0x3c  Data  Gb  ST_Fonts.o [3]
acGUI_FontAvantGarde20B_00F5
                        0x080239b4     0x44  Data  Gb  ST_Fonts.o [3]
acGUI_FontAvantGarde20B_00F6
                        0x080239f8     0x3c  Data  Gb  ST_Fonts.o [3]
acGUI_FontAvantGarde20B_00F7
                        0x08023a34     0x28  Data  Gb  ST_Fonts.o [3]
acGUI_FontAvantGarde20B_00F8
                        0x08023a5c     0x38  Data  Gb  ST_Fonts.o [3]
acGUI_FontAvantGarde20B_00F9
                        0x08023a94     0x38  Data  Gb  ST_Fonts.o [3]
acGUI_FontAvantGarde20B_00FA
                        0x08023acc     0x38  Data  Gb  ST_Fonts.o [3]
acGUI_FontAvantGarde20B_00FB
                        0x08023b04     0x30  Data  Gb  ST_Fonts.o [3]
acGUI_FontAvantGarde20B_00FC
                        0x08023b34     0x30  Data  Gb  ST_Fonts.o [3]
acGUI_FontAvantGarde20B_00FD
                        0x08023b64     0x58  Data  Gb  ST_Fonts.o [3]
acGUI_FontAvantGarde20B_00FE
                        0x08023bbc     0x4c  Data  Gb  ST_Fonts.o [3]
acGUI_FontAvantGarde20B_00FF
                        0x08023c08     0x4c  Data  Gb  ST_Fonts.o [3]
acGUI_FontAvantGarde20B_0131
                        0x08023c54      0xc  Data  Gb  ST_Fonts.o [3]
acGUI_FontAvantGarde20B_0141
                        0x08023c60     0x30  Data  Gb  ST_Fonts.o [3]
acGUI_FontAvantGarde20B_0142
                        0x08023c90     0x24  Data  Gb  ST_Fonts.o [3]
acGUI_FontAvantGarde20B_0152
                        0x08023cb4     0x60  Data  Gb  ST_Fonts.o [3]
acGUI_FontAvantGarde20B_0153
                        0x08023d14     0x54  Data  Gb  ST_Fonts.o [3]
acGUI_FontAvantGarde20B_0160
                        0x08023d68     0x3c  Data  Gb  ST_Fonts.o [3]
acGUI_FontAvantGarde20B_0161
                        0x08023da4     0x30  Data  Gb  ST_Fonts.o [3]
acGUI_FontAvantGarde20B_0178
                        0x08023dd4     0x4c  Data  Gb  ST_Fonts.o [3]
acGUI_FontAvantGarde20B_017D
                        0x08023e20     0x3c  Data  Gb  ST_Fonts.o [3]
acGUI_FontAvantGarde20B_017E
                        0x08023e5c     0x30  Data  Gb  ST_Fonts.o [3]
acGUI_FontAvantGarde20B_0192
                        0x08023e8c     0x4c  Data  Gb  ST_Fonts.o [3]
acGUI_FontAvantGarde20B_02C6
                        0x08023ed8      0xc  Data  Gb  ST_Fonts.o [3]
acGUI_FontAvantGarde20B_02C7
                        0x08023ee4      0xc  Data  Gb  ST_Fonts.o [3]
acGUI_FontAvantGarde20B_02C9
                        0x08023ef0      0x8  Data  Gb  ST_Fonts.o [3]
acGUI_FontAvantGarde20B_02D8
                        0x08023ef8      0xc  Data  Gb  ST_Fonts.o [3]
acGUI_FontAvantGarde20B_02D9
                        0x08023f04      0x4  Data  Gb  ST_Fonts.o [3]
acGUI_FontAvantGarde20B_02DA
                        0x08023f08      0x8  Data  Gb  ST_Fonts.o [3]
acGUI_FontAvantGarde20B_02DB
                        0x08023f10      0x8  Data  Gb  ST_Fonts.o [3]
acGUI_FontAvantGarde20B_02DC
                        0x08023f18      0xc  Data  Gb  ST_Fonts.o [3]
acGUI_FontAvantGarde20B_02DD
                        0x08023f24     0x14  Data  Gb  ST_Fonts.o [3]
acGUI_FontAvantGarde20B_03A9
                        0x08023f38     0x48  Data  Gb  ST_Fonts.o [3]
acGUI_FontAvantGarde20B_03BC
                        0x08023f80     0x30  Data  Gb  ST_Fonts.o [3]
acGUI_FontAvantGarde20B_03C0
                        0x08023fb0     0x38  Data  Gb  ST_Fonts.o [3]
acGUI_FontAvantGarde20B_2010
                        0x08023fe8      0x8  Data  Gb  ST_Fonts.o [3]
acGUI_FontAvantGarde20B_2013
                        0x08023ff0      0x8  Data  Gb  ST_Fonts.o [3]
acGUI_FontAvantGarde20B_2014
                        0x08023ff8     0x10  Data  Gb  ST_Fonts.o [3]
acGUI_FontAvantGarde20B_2018
                        0x08024008      0x8  Data  Gb  ST_Fonts.o [3]
acGUI_FontAvantGarde20B_2019
                        0x08024010      0x8  Data  Gb  ST_Fonts.o [3]
acGUI_FontAvantGarde20B_201A
                        0x08024018      0x8  Data  Gb  ST_Fonts.o [3]
acGUI_FontAvantGarde20B_201C
                        0x08024020      0xc  Data  Gb  ST_Fonts.o [3]
acGUI_FontAvantGarde20B_201D
                        0x0802402c      0xc  Data  Gb  ST_Fonts.o [3]
acGUI_FontAvantGarde20B_201E
                        0x08024038      0xc  Data  Gb  ST_Fonts.o [3]
acGUI_FontAvantGarde20B_2020
                        0x08024044     0x3c  Data  Gb  ST_Fonts.o [3]
acGUI_FontAvantGarde20B_2021
                        0x08024080     0x3c  Data  Gb  ST_Fonts.o [3]
acGUI_FontAvantGarde20B_2022
                        0x080240bc     0x10  Data  Gb  ST_Fonts.o [3]
acGUI_FontAvantGarde20B_2026
                        0x080240cc     0x14  Data  Gb  ST_Fonts.o [3]
acGUI_FontAvantGarde20B_2030
                        0x080240e0     0x6c  Data  Gb  ST_Fonts.o [3]
acGUI_FontAvantGarde20B_2039
                        0x0802414c      0xc  Data  Gb  ST_Fonts.o [3]
acGUI_FontAvantGarde20B_203A
                        0x08024158      0xc  Data  Gb  ST_Fonts.o [3]
acGUI_FontAvantGarde20B_2044
                        0x08024164     0x30  Data  Gb  ST_Fonts.o [3]
acGUI_FontAvantGarde20B_20AC
                        0x08024194     0x3c  Data  Gb  ST_Fonts.o [3]
acGUI_FontAvantGarde20B_2113
                        0x080241d0     0x44  Data  Gb  ST_Fonts.o [3]
acGUI_FontAvantGarde20B_2122
                        0x08024214     0x34  Data  Gb  ST_Fonts.o [3]
acGUI_FontAvantGarde20B_2126
                        0x08024248     0x48  Data  Gb  ST_Fonts.o [3]
acGUI_FontAvantGarde20B_212E
                        0x08024290     0x54  Data  Gb  ST_Fonts.o [3]
acGUI_FontAvantGarde20B_2202
                        0x080242e4     0x34  Data  Gb  ST_Fonts.o [3]
acGUI_FontAvantGarde20B_2206
                        0x08024318     0x48  Data  Gb  ST_Fonts.o [3]
acGUI_FontAvantGarde20B_220F
                        0x08024360     0x54  Data  Gb  ST_Fonts.o [3]
acGUI_FontAvantGarde20B_2211
                        0x080243b4     0x48  Data  Gb  ST_Fonts.o [3]
acGUI_FontAvantGarde20B_2212
                        0x080243fc      0x8  Data  Gb  ST_Fonts.o [3]
acGUI_FontAvantGarde20B_2215
                        0x08024404     0x30  Data  Gb  ST_Fonts.o [3]
acGUI_FontAvantGarde20B_2219
                        0x08024434      0x4  Data  Gb  ST_Fonts.o [3]
acGUI_FontAvantGarde20B_221A
                        0x08024438     0x58  Data  Gb  ST_Fonts.o [3]
acGUI_FontAvantGarde20B_221E
                        0x08024490     0x24  Data  Gb  ST_Fonts.o [3]
acGUI_FontAvantGarde20B_222B
                        0x080244b4     0x48  Data  Gb  ST_Fonts.o [3]
acGUI_FontAvantGarde20B_2248
                        0x080244fc     0x1c  Data  Gb  ST_Fonts.o [3]
acGUI_FontAvantGarde20B_2260
                        0x08024518     0x24  Data  Gb  ST_Fonts.o [3]
acGUI_FontAvantGarde20B_2264
                        0x0802453c     0x2c  Data  Gb  ST_Fonts.o [3]
acGUI_FontAvantGarde20B_2265
                        0x08024568     0x2c  Data  Gb  ST_Fonts.o [3]
acGUI_FontAvantGarde20B_25CA
                        0x08024594     0x48  Data  Gb  ST_Fonts.o [3]
acGUI_FontAvantGarde20B_FB01
                        0x080245dc     0x30  Data  Gb  ST_Fonts.o [3]
acGUI_FontAvantGarde20B_FB02
                        0x0802460c     0x30  Data  Gb  ST_Fonts.o [3]
acGUI_FontAvantGarde20B_FFFF
                        0x0802463c     0x2c  Data  Gb  ST_Fonts.o [3]
acGUI_FontAvantGarde20_0020
                        0x0801d904      0x1  Data  Gb  ST_Fonts.o [3]
acGUI_FontAvantGarde20_0021
                        0x0801d908      0xc  Data  Gb  ST_Fonts.o [3]
acGUI_FontAvantGarde20_0022
                        0x0801d914      0xc  Data  Gb  ST_Fonts.o [3]
acGUI_FontAvantGarde20_0023
                        0x0801d920     0x3c  Data  Gb  ST_Fonts.o [3]
acGUI_FontAvantGarde20_0024
                        0x0801d95c     0x38  Data  Gb  ST_Fonts.o [3]
acGUI_FontAvantGarde20_0025
                        0x0801d994     0x48  Data  Gb  ST_Fonts.o [3]
acGUI_FontAvantGarde20_0026
                        0x0801d9dc     0x48  Data  Gb  ST_Fonts.o [3]
acGUI_FontAvantGarde20_0027
                        0x0801da24      0x8  Data  Gb  ST_Fonts.o [3]
acGUI_FontAvantGarde20_0028
                        0x0801da2c     0x30  Data  Gb  ST_Fonts.o [3]
acGUI_FontAvantGarde20_0029
                        0x0801da5c     0x30  Data  Gb  ST_Fonts.o [3]
acGUI_FontAvantGarde20_002A
                        0x0801da8c     0x14  Data  Gb  ST_Fonts.o [3]
acGUI_FontAvantGarde20_002B
                        0x0801daa0     0x30  Data  Gb  ST_Fonts.o [3]
acGUI_FontAvantGarde20_002C
                        0x0801dad0      0x8  Data  Gb  ST_Fonts.o [3]
acGUI_FontAvantGarde20_002D
                        0x0801dad8      0x4  Data  Gb  ST_Fonts.o [3]
acGUI_FontAvantGarde20_002E
                        0x0801dadc      0x2  Data  Gb  ST_Fonts.o [3]
acGUI_FontAvantGarde20_002F
                        0x0801dae0     0x38  Data  Gb  ST_Fonts.o [3]
acGUI_FontAvantGarde20_0030
                        0x0801db18     0x30  Data  Gb  ST_Fonts.o [3]
acGUI_FontAvantGarde20_0031
                        0x0801db48     0x18  Data  Gb  ST_Fonts.o [3]
acGUI_FontAvantGarde20_0032
                        0x0801db60     0x30  Data  Gb  ST_Fonts.o [3]
acGUI_FontAvantGarde20_0033
                        0x0801db90     0x30  Data  Gb  ST_Fonts.o [3]
acGUI_FontAvantGarde20_0034
                        0x0801dbc0     0x3c  Data  Gb  ST_Fonts.o [3]
acGUI_FontAvantGarde20_0035
                        0x0801dbfc     0x3c  Data  Gb  ST_Fonts.o [3]
acGUI_FontAvantGarde20_0036
                        0x0801dc38     0x30  Data  Gb  ST_Fonts.o [3]
acGUI_FontAvantGarde20_0037
                        0x0801dc68     0x30  Data  Gb  ST_Fonts.o [3]
acGUI_FontAvantGarde20_0038
                        0x0801dc98     0x30  Data  Gb  ST_Fonts.o [3]
acGUI_FontAvantGarde20_0039
                        0x0801dcc8     0x30  Data  Gb  ST_Fonts.o [3]
acGUI_FontAvantGarde20_003A
                        0x0801dcf8      0xc  Data  Gb  ST_Fonts.o [3]
acGUI_FontAvantGarde20_003B
                        0x0801dd04     0x14  Data  Gb  ST_Fonts.o [3]
acGUI_FontAvantGarde20_003C
                        0x0801dd18     0x24  Data  Gb  ST_Fonts.o [3]
acGUI_FontAvantGarde20_003D
                        0x0801dd3c     0x10  Data  Gb  ST_Fonts.o [3]
acGUI_FontAvantGarde20_003E
                        0x0801dd4c     0x24  Data  Gb  ST_Fonts.o [3]
acGUI_FontAvantGarde20_003F
                        0x0801dd70     0x30  Data  Gb  ST_Fonts.o [3]
acGUI_FontAvantGarde20_0040
                        0x0801dda0     0x48  Data  Gb  ST_Fonts.o [3]
acGUI_FontAvantGarde20_0041
                        0x0801dde8     0x48  Data  Gb  ST_Fonts.o [3]
acGUI_FontAvantGarde20_0042
                        0x0801de30     0x30  Data  Gb  ST_Fonts.o [3]
acGUI_FontAvantGarde20_0043
                        0x0801de60     0x48  Data  Gb  ST_Fonts.o [3]
acGUI_FontAvantGarde20_0044
                        0x0801dea8     0x3c  Data  Gb  ST_Fonts.o [3]
acGUI_FontAvantGarde20_0045
                        0x0801dee4     0x30  Data  Gb  ST_Fonts.o [3]
acGUI_FontAvantGarde20_0046
                        0x0801df14     0x24  Data  Gb  ST_Fonts.o [3]
acGUI_FontAvantGarde20_0047
                        0x0801df38     0x54  Data  Gb  ST_Fonts.o [3]
acGUI_FontAvantGarde20_0048
                        0x0801df8c     0x30  Data  Gb  ST_Fonts.o [3]
acGUI_FontAvantGarde20_0049
                        0x0801dfbc      0xc  Data  Gb  ST_Fonts.o [3]
acGUI_FontAvantGarde20_004A
                        0x0801dfc8     0x30  Data  Gb  ST_Fonts.o [3]
acGUI_FontAvantGarde20_004B
                        0x0801dff8     0x30  Data  Gb  ST_Fonts.o [3]
acGUI_FontAvantGarde20_004C
                        0x0801e028     0x24  Data  Gb  ST_Fonts.o [3]
acGUI_FontAvantGarde20_004D
                        0x0801e04c     0x54  Data  Gb  ST_Fonts.o [3]
acGUI_FontAvantGarde20_004E
                        0x0801e0a0     0x3c  Data  Gb  ST_Fonts.o [3]
acGUI_FontAvantGarde20_004F
                        0x0801e0dc     0x48  Data  Gb  ST_Fonts.o [3]
acGUI_FontAvantGarde20_0050
                        0x0801e124     0x30  Data  Gb  ST_Fonts.o [3]
acGUI_FontAvantGarde20_0051
                        0x0801e154     0x54  Data  Gb  ST_Fonts.o [3]
acGUI_FontAvantGarde20_0052
                        0x0801e1a8     0x30  Data  Gb  ST_Fonts.o [3]
acGUI_FontAvantGarde20_0053
                        0x0801e1d8     0x30  Data  Gb  ST_Fonts.o [3]
acGUI_FontAvantGarde20_0054
                        0x0801e208     0x30  Data  Gb  ST_Fonts.o [3]
acGUI_FontAvantGarde20_0055
                        0x0801e238     0x30  Data  Gb  ST_Fonts.o [3]
acGUI_FontAvantGarde20_0056
                        0x0801e268     0x48  Data  Gb  ST_Fonts.o [3]
acGUI_FontAvantGarde20_0057
                        0x0801e2b0     0x60  Data  Gb  ST_Fonts.o [3]
acGUI_FontAvantGarde20_0058
                        0x0801e310     0x3c  Data  Gb  ST_Fonts.o [3]
acGUI_FontAvantGarde20_0059
                        0x0801e34c     0x3c  Data  Gb  ST_Fonts.o [3]
acGUI_FontAvantGarde20_005A
                        0x0801e388     0x30  Data  Gb  ST_Fonts.o [3]
acGUI_FontAvantGarde20_005B
                        0x0801e3b8     0x20  Data  Gb  ST_Fonts.o [3]
acGUI_FontAvantGarde20_005C
                        0x0801e3d8     0x38  Data  Gb  ST_Fonts.o [3]
acGUI_FontAvantGarde20_005D
                        0x0801e410     0x20  Data  Gb  ST_Fonts.o [3]
acGUI_FontAvantGarde20_005E
                        0x0801e430     0x18  Data  Gb  ST_Fonts.o [3]
acGUI_FontAvantGarde20_005F
                        0x0801e448      0x4  Data  Gb  ST_Fonts.o [3]
acGUI_FontAvantGarde20_0060
                        0x0801e44c      0xc  Data  Gb  ST_Fonts.o [3]
acGUI_FontAvantGarde20_0061
                        0x0801e458     0x30  Data  Gb  ST_Fonts.o [3]
acGUI_FontAvantGarde20_0062
                        0x0801e488     0x3c  Data  Gb  ST_Fonts.o [3]
acGUI_FontAvantGarde20_0063
                        0x0801e4c4     0x30  Data  Gb  ST_Fonts.o [3]
acGUI_FontAvantGarde20_0064
                        0x0801e4f4     0x3c  Data  Gb  ST_Fonts.o [3]
acGUI_FontAvantGarde20_0065
                        0x0801e530     0x30  Data  Gb  ST_Fonts.o [3]
acGUI_FontAvantGarde20_0066
                        0x0801e560     0x24  Data  Gb  ST_Fonts.o [3]
acGUI_FontAvantGarde20_0067
                        0x0801e584     0x44  Data  Gb  ST_Fonts.o [3]
acGUI_FontAvantGarde20_0068
                        0x0801e5c8     0x30  Data  Gb  ST_Fonts.o [3]
acGUI_FontAvantGarde20_0069
                        0x0801e5f8      0xc  Data  Gb  ST_Fonts.o [3]
acGUI_FontAvantGarde20_006A
                        0x0801e604     0x20  Data  Gb  ST_Fonts.o [3]
acGUI_FontAvantGarde20_006B
                        0x0801e624     0x30  Data  Gb  ST_Fonts.o [3]
acGUI_FontAvantGarde20_006C
                        0x0801e654      0xc  Data  Gb  ST_Fonts.o [3]
acGUI_FontAvantGarde20_006D
                        0x0801e660     0x40  Data  Gb  ST_Fonts.o [3]
acGUI_FontAvantGarde20_006E
                        0x0801e6a0     0x24  Data  Gb  ST_Fonts.o [3]
acGUI_FontAvantGarde20_006F
                        0x0801e6c4     0x30  Data  Gb  ST_Fonts.o [3]
acGUI_FontAvantGarde20_0070
                        0x0801e6f4     0x3c  Data  Gb  ST_Fonts.o [3]
acGUI_FontAvantGarde20_0071
                        0x0801e730     0x3c  Data  Gb  ST_Fonts.o [3]
acGUI_FontAvantGarde20_0072
                        0x0801e76c     0x14  Data  Gb  ST_Fonts.o [3]
acGUI_FontAvantGarde20_0073
                        0x0801e780     0x1c  Data  Gb  ST_Fonts.o [3]
acGUI_FontAvantGarde20_0074
                        0x0801e79c     0x24  Data  Gb  ST_Fonts.o [3]
acGUI_FontAvantGarde20_0075
                        0x0801e7c0     0x24  Data  Gb  ST_Fonts.o [3]
acGUI_FontAvantGarde20_0076
                        0x0801e7e4     0x24  Data  Gb  ST_Fonts.o [3]
acGUI_FontAvantGarde20_0077
                        0x0801e808     0x40  Data  Gb  ST_Fonts.o [3]
acGUI_FontAvantGarde20_0078
                        0x0801e848     0x24  Data  Gb  ST_Fonts.o [3]
acGUI_FontAvantGarde20_0079
                        0x0801e86c     0x30  Data  Gb  ST_Fonts.o [3]
acGUI_FontAvantGarde20_007A
                        0x0801e89c     0x24  Data  Gb  ST_Fonts.o [3]
acGUI_FontAvantGarde20_007B
                        0x0801e8c0     0x30  Data  Gb  ST_Fonts.o [3]
acGUI_FontAvantGarde20_007C
                        0x0801e8f0     0x10  Data  Gb  ST_Fonts.o [3]
acGUI_FontAvantGarde20_007D
                        0x0801e900     0x30  Data  Gb  ST_Fonts.o [3]
acGUI_FontAvantGarde20_007E
                        0x0801e930      0x8  Data  Gb  ST_Fonts.o [3]
acGUI_FontAvantGarde20_00A0
                        0x0801e938      0x1  Data  Gb  ST_Fonts.o [3]
acGUI_FontAvantGarde20_00A1
                        0x0801e93c     0x10  Data  Gb  ST_Fonts.o [3]
acGUI_FontAvantGarde20_00A2
                        0x0801e94c     0x28  Data  Gb  ST_Fonts.o [3]
acGUI_FontAvantGarde20_00A3
                        0x0801e974     0x3c  Data  Gb  ST_Fonts.o [3]
acGUI_FontAvantGarde20_00A4
                        0x0801e9b0     0x30  Data  Gb  ST_Fonts.o [3]
acGUI_FontAvantGarde20_00A5
                        0x0801e9e0     0x3c  Data  Gb  ST_Fonts.o [3]
acGUI_FontAvantGarde20_00A6
                        0x0801ea1c     0x10  Data  Gb  ST_Fonts.o [3]
acGUI_FontAvantGarde20_00A7
                        0x0801ea2c     0x40  Data  Gb  ST_Fonts.o [3]
acGUI_FontAvantGarde20_00A8
                        0x0801ea6c      0x4  Data  Gb  ST_Fonts.o [3]
acGUI_FontAvantGarde20_00A9
                        0x0801ea70     0x54  Data  Gb  ST_Fonts.o [3]
acGUI_FontAvantGarde20_00AA
                        0x0801eac4     0x10  Data  Gb  ST_Fonts.o [3]
acGUI_FontAvantGarde20_00AB
                        0x0801ead4     0x14  Data  Gb  ST_Fonts.o [3]
acGUI_FontAvantGarde20_00AC
                        0x0801eae8     0x14  Data  Gb  ST_Fonts.o [3]
acGUI_FontAvantGarde20_00AD
                        0x0801eafc      0x4  Data  Gb  ST_Fonts.o [3]
acGUI_FontAvantGarde20_00AE
                        0x0801eb00     0x54  Data  Gb  ST_Fonts.o [3]
acGUI_FontAvantGarde20_00AF
                        0x0801eb54      0x4  Data  Gb  ST_Fonts.o [3]
acGUI_FontAvantGarde20_00B0
                        0x0801eb58     0x10  Data  Gb  ST_Fonts.o [3]
acGUI_FontAvantGarde20_00B1
                        0x0801eb68     0x30  Data  Gb  ST_Fonts.o [3]
acGUI_FontAvantGarde20_00B2
                        0x0801eb98     0x10  Data  Gb  ST_Fonts.o [3]
acGUI_FontAvantGarde20_00B3
                        0x0801eba8     0x18  Data  Gb  ST_Fonts.o [3]
acGUI_FontAvantGarde20_00B4
                        0x0801ebc0      0xc  Data  Gb  ST_Fonts.o [3]
acGUI_FontAvantGarde20_00B5
                        0x0801ebcc     0x30  Data  Gb  ST_Fonts.o [3]
acGUI_FontAvantGarde20_00B6
                        0x0801ebfc     0x48  Data  Gb  ST_Fonts.o [3]
acGUI_FontAvantGarde20_00B7
                        0x0801ec44      0x2  Data  Gb  ST_Fonts.o [3]
acGUI_FontAvantGarde20_00B8
                        0x0801ec48      0x8  Data  Gb  ST_Fonts.o [3]
acGUI_FontAvantGarde20_00B9
                        0x0801ec50     0x10  Data  Gb  ST_Fonts.o [3]
acGUI_FontAvantGarde20_00BA
                        0x0801ec60     0x10  Data  Gb  ST_Fonts.o [3]
acGUI_FontAvantGarde20_00BB
                        0x0801ec70     0x14  Data  Gb  ST_Fonts.o [3]
acGUI_FontAvantGarde20_00BC
                        0x0801ec84     0x48  Data  Gb  ST_Fonts.o [3]
acGUI_FontAvantGarde20_00BD
                        0x0801eccc     0x48  Data  Gb  ST_Fonts.o [3]
acGUI_FontAvantGarde20_00BE
                        0x0801ed14     0x54  Data  Gb  ST_Fonts.o [3]
acGUI_FontAvantGarde20_00BF
                        0x0801ed68     0x30  Data  Gb  ST_Fonts.o [3]
acGUI_FontAvantGarde20_00C0
                        0x0801ed98     0x60  Data  Gb  ST_Fonts.o [3]
acGUI_FontAvantGarde20_00C1
                        0x0801edf8     0x60  Data  Gb  ST_Fonts.o [3]
acGUI_FontAvantGarde20_00C2
                        0x0801ee58     0x5c  Data  Gb  ST_Fonts.o [3]
acGUI_FontAvantGarde20_00C3
                        0x0801eeb4     0x5c  Data  Gb  ST_Fonts.o [3]
acGUI_FontAvantGarde20_00C4
                        0x0801ef10     0x5c  Data  Gb  ST_Fonts.o [3]
acGUI_FontAvantGarde20_00C5
                        0x0801ef6c     0x60  Data  Gb  ST_Fonts.o [3]
acGUI_FontAvantGarde20_00C6
                        0x0801efcc     0x60  Data  Gb  ST_Fonts.o [3]
acGUI_FontAvantGarde20_00C7
                        0x0801f02c     0x5c  Data  Gb  ST_Fonts.o [3]
acGUI_FontAvantGarde20_00C8
                        0x0801f088     0x40  Data  Gb  ST_Fonts.o [3]
acGUI_FontAvantGarde20_00C9
                        0x0801f0c8     0x40  Data  Gb  ST_Fonts.o [3]
acGUI_FontAvantGarde20_00CA
                        0x0801f108     0x3c  Data  Gb  ST_Fonts.o [3]
acGUI_FontAvantGarde20_00CB
                        0x0801f144     0x3c  Data  Gb  ST_Fonts.o [3]
acGUI_FontAvantGarde20_00CC
                        0x0801f180     0x30  Data  Gb  ST_Fonts.o [3]
acGUI_FontAvantGarde20_00CD
                        0x0801f1b0     0x30  Data  Gb  ST_Fonts.o [3]
acGUI_FontAvantGarde20_00CE
                        0x0801f1e0     0x3c  Data  Gb  ST_Fonts.o [3]
acGUI_FontAvantGarde20_00CF
                        0x0801f21c     0x30  Data  Gb  ST_Fonts.o [3]
acGUI_FontAvantGarde20_00D0
                        0x0801f24c     0x48  Data  Gb  ST_Fonts.o [3]
acGUI_FontAvantGarde20_00D1
                        0x0801f294     0x4c  Data  Gb  ST_Fonts.o [3]
acGUI_FontAvantGarde20_00D2
                        0x0801f2e0     0x60  Data  Gb  ST_Fonts.o [3]
acGUI_FontAvantGarde20_00D3
                        0x0801f340     0x60  Data  Gb  ST_Fonts.o [3]
acGUI_FontAvantGarde20_00D4
                        0x0801f3a0     0x5c  Data  Gb  ST_Fonts.o [3]
acGUI_FontAvantGarde20_00D5
                        0x0801f3fc     0x5c  Data  Gb  ST_Fonts.o [3]
acGUI_FontAvantGarde20_00D6
                        0x0801f458     0x5c  Data  Gb  ST_Fonts.o [3]
acGUI_FontAvantGarde20_00D7
                        0x0801f4b4     0x20  Data  Gb  ST_Fonts.o [3]
acGUI_FontAvantGarde20_00D8
                        0x0801f4d4     0x54  Data  Gb  ST_Fonts.o [3]
acGUI_FontAvantGarde20_00D9
                        0x0801f528     0x40  Data  Gb  ST_Fonts.o [3]
acGUI_FontAvantGarde20_00DA
                        0x0801f568     0x40  Data  Gb  ST_Fonts.o [3]
acGUI_FontAvantGarde20_00DB
                        0x0801f5a8     0x3c  Data  Gb  ST_Fonts.o [3]
acGUI_FontAvantGarde20_00DC
                        0x0801f5e4     0x3c  Data  Gb  ST_Fonts.o [3]
acGUI_FontAvantGarde20_00DD
                        0x0801f620     0x50  Data  Gb  ST_Fonts.o [3]
acGUI_FontAvantGarde20_00DE
                        0x0801f670     0x30  Data  Gb  ST_Fonts.o [3]
acGUI_FontAvantGarde20_00DF
                        0x0801f6a0     0x30  Data  Gb  ST_Fonts.o [3]
acGUI_FontAvantGarde20_00E0
                        0x0801f6d0     0x44  Data  Gb  ST_Fonts.o [3]
acGUI_FontAvantGarde20_00E1
                        0x0801f714     0x44  Data  Gb  ST_Fonts.o [3]
acGUI_FontAvantGarde20_00E2
                        0x0801f758     0x3c  Data  Gb  ST_Fonts.o [3]
acGUI_FontAvantGarde20_00E3
                        0x0801f794     0x3c  Data  Gb  ST_Fonts.o [3]
acGUI_FontAvantGarde20_00E4
                        0x0801f7d0     0x3c  Data  Gb  ST_Fonts.o [3]
acGUI_FontAvantGarde20_00E5
                        0x0801f80c     0x44  Data  Gb  ST_Fonts.o [3]
acGUI_FontAvantGarde20_00E6
                        0x0801f850     0x54  Data  Gb  ST_Fonts.o [3]
acGUI_FontAvantGarde20_00E7
                        0x0801f8a4     0x3c  Data  Gb  ST_Fonts.o [3]
acGUI_FontAvantGarde20_00E8
                        0x0801f8e0     0x44  Data  Gb  ST_Fonts.o [3]
acGUI_FontAvantGarde20_00E9
                        0x0801f924     0x44  Data  Gb  ST_Fonts.o [3]
acGUI_FontAvantGarde20_00EA
                        0x0801f968     0x3c  Data  Gb  ST_Fonts.o [3]
acGUI_FontAvantGarde20_00EB
                        0x0801f9a4     0x3c  Data  Gb  ST_Fonts.o [3]
acGUI_FontAvantGarde20_00EC
                        0x0801f9e0     0x28  Data  Gb  ST_Fonts.o [3]
acGUI_FontAvantGarde20_00ED
                        0x0801fa08     0x28  Data  Gb  ST_Fonts.o [3]
acGUI_FontAvantGarde20_00EE
                        0x0801fa30     0x30  Data  Gb  ST_Fonts.o [3]
acGUI_FontAvantGarde20_00EF
                        0x0801fa60     0x24  Data  Gb  ST_Fonts.o [3]
acGUI_FontAvantGarde20_00F0
                        0x0801fa84     0x3c  Data  Gb  ST_Fonts.o [3]
acGUI_FontAvantGarde20_00F1
                        0x0801fac0     0x30  Data  Gb  ST_Fonts.o [3]
acGUI_FontAvantGarde20_00F2
                        0x0801faf0     0x44  Data  Gb  ST_Fonts.o [3]
acGUI_FontAvantGarde20_00F3
                        0x0801fb34     0x44  Data  Gb  ST_Fonts.o [3]
acGUI_FontAvantGarde20_00F4
                        0x0801fb78     0x3c  Data  Gb  ST_Fonts.o [3]
acGUI_FontAvantGarde20_00F5
                        0x0801fbb4     0x3c  Data  Gb  ST_Fonts.o [3]
acGUI_FontAvantGarde20_00F6
                        0x0801fbf0     0x3c  Data  Gb  ST_Fonts.o [3]
acGUI_FontAvantGarde20_00F7
                        0x0801fc2c     0x30  Data  Gb  ST_Fonts.o [3]
acGUI_FontAvantGarde20_00F8
                        0x0801fc5c     0x38  Data  Gb  ST_Fonts.o [3]
acGUI_FontAvantGarde20_00F9
                        0x0801fc94     0x34  Data  Gb  ST_Fonts.o [3]
acGUI_FontAvantGarde20_00FA
                        0x0801fcc8     0x34  Data  Gb  ST_Fonts.o [3]
acGUI_FontAvantGarde20_00FB
                        0x0801fcfc     0x30  Data  Gb  ST_Fonts.o [3]
acGUI_FontAvantGarde20_00FC
                        0x0801fd2c     0x30  Data  Gb  ST_Fonts.o [3]
acGUI_FontAvantGarde20_00FD
                        0x0801fd5c     0x40  Data  Gb  ST_Fonts.o [3]
acGUI_FontAvantGarde20_00FE
                        0x0801fd9c     0x4c  Data  Gb  ST_Fonts.o [3]
acGUI_FontAvantGarde20_00FF
                        0x0801fde8     0x3c  Data  Gb  ST_Fonts.o [3]
acGUI_FontAvantGarde20_0131
                        0x0801fe24      0xc  Data  Gb  ST_Fonts.o [3]
acGUI_FontAvantGarde20_0141
                        0x0801fe30     0x30  Data  Gb  ST_Fonts.o [3]
acGUI_FontAvantGarde20_0142
                        0x0801fe60     0x24  Data  Gb  ST_Fonts.o [3]
acGUI_FontAvantGarde20_0152
                        0x0801fe84     0x6c  Data  Gb  ST_Fonts.o [3]
acGUI_FontAvantGarde20_0153
                        0x0801fef0     0x48  Data  Gb  ST_Fonts.o [3]
acGUI_FontAvantGarde20_0160
                        0x0801ff38     0x3c  Data  Gb  ST_Fonts.o [3]
acGUI_FontAvantGarde20_0161
                        0x0801ff74     0x34  Data  Gb  ST_Fonts.o [3]
acGUI_FontAvantGarde20_0178
                        0x0801ffa8     0x4c  Data  Gb  ST_Fonts.o [3]
acGUI_FontAvantGarde20_017D
                        0x0801fff4     0x3c  Data  Gb  ST_Fonts.o [3]
acGUI_FontAvantGarde20_017E
                        0x08020030     0x30  Data  Gb  ST_Fonts.o [3]
acGUI_FontAvantGarde20_0192
                        0x08020060     0x4c  Data  Gb  ST_Fonts.o [3]
acGUI_FontAvantGarde20_02C6
                        0x080200ac      0xc  Data  Gb  ST_Fonts.o [3]
acGUI_FontAvantGarde20_02C7
                        0x080200b8      0xc  Data  Gb  ST_Fonts.o [3]
acGUI_FontAvantGarde20_02C9
                        0x080200c4      0x4  Data  Gb  ST_Fonts.o [3]
acGUI_FontAvantGarde20_02D8
                        0x080200c8      0x8  Data  Gb  ST_Fonts.o [3]
acGUI_FontAvantGarde20_02D9
                        0x080200d0      0x2  Data  Gb  ST_Fonts.o [3]
acGUI_FontAvantGarde20_02DA
                        0x080200d4      0x8  Data  Gb  ST_Fonts.o [3]
acGUI_FontAvantGarde20_02DB
                        0x080200dc      0x8  Data  Gb  ST_Fonts.o [3]
acGUI_FontAvantGarde20_02DC
                        0x080200e4      0x8  Data  Gb  ST_Fonts.o [3]
acGUI_FontAvantGarde20_02DD
                        0x080200ec     0x10  Data  Gb  ST_Fonts.o [3]
acGUI_FontAvantGarde20_03A9
                        0x080200fc     0x48  Data  Gb  ST_Fonts.o [3]
acGUI_FontAvantGarde20_03BC
                        0x08020144     0x30  Data  Gb  ST_Fonts.o [3]
acGUI_FontAvantGarde20_03C0
                        0x08020174     0x30  Data  Gb  ST_Fonts.o [3]
acGUI_FontAvantGarde20_2010
                        0x080201a4      0x4  Data  Gb  ST_Fonts.o [3]
acGUI_FontAvantGarde20_2013
                        0x080201a8      0x4  Data  Gb  ST_Fonts.o [3]
acGUI_FontAvantGarde20_2014
                        0x080201ac      0x8  Data  Gb  ST_Fonts.o [3]
acGUI_FontAvantGarde20_2018
                        0x080201b4      0x8  Data  Gb  ST_Fonts.o [3]
acGUI_FontAvantGarde20_2019
                        0x080201bc      0x8  Data  Gb  ST_Fonts.o [3]
acGUI_FontAvantGarde20_201A
                        0x080201c4      0x8  Data  Gb  ST_Fonts.o [3]
acGUI_FontAvantGarde20_201C
                        0x080201cc      0xc  Data  Gb  ST_Fonts.o [3]
acGUI_FontAvantGarde20_201D
                        0x080201d8      0xc  Data  Gb  ST_Fonts.o [3]
acGUI_FontAvantGarde20_201E
                        0x080201e4      0xc  Data  Gb  ST_Fonts.o [3]
acGUI_FontAvantGarde20_2020
                        0x080201f0     0x38  Data  Gb  ST_Fonts.o [3]
acGUI_FontAvantGarde20_2021
                        0x08020228     0x3c  Data  Gb  ST_Fonts.o [3]
acGUI_FontAvantGarde20_2022
                        0x08020264      0x8  Data  Gb  ST_Fonts.o [3]
acGUI_FontAvantGarde20_2026
                        0x0802026c      0xc  Data  Gb  ST_Fonts.o [3]
acGUI_FontAvantGarde20_2030
                        0x08020278     0x6c  Data  Gb  ST_Fonts.o [3]
acGUI_FontAvantGarde20_2039
                        0x080202e4      0xc  Data  Gb  ST_Fonts.o [3]
acGUI_FontAvantGarde20_203A
                        0x080202f0      0xc  Data  Gb  ST_Fonts.o [3]
acGUI_FontAvantGarde20_2044
                        0x080202fc     0x30  Data  Gb  ST_Fonts.o [3]
acGUI_FontAvantGarde20_20AC
                        0x0802032c     0x3c  Data  Gb  ST_Fonts.o [3]
acGUI_FontAvantGarde20_2113
                        0x08020368     0x44  Data  Gb  ST_Fonts.o [3]
acGUI_FontAvantGarde20_2122
                        0x080203ac     0x38  Data  Gb  ST_Fonts.o [3]
acGUI_FontAvantGarde20_2126
                        0x080203e4     0x48  Data  Gb  ST_Fonts.o [3]
acGUI_FontAvantGarde20_212E
                        0x0802042c     0x60  Data  Gb  ST_Fonts.o [3]
acGUI_FontAvantGarde20_2202
                        0x0802048c     0x34  Data  Gb  ST_Fonts.o [3]
acGUI_FontAvantGarde20_2206
                        0x080204c0     0x3c  Data  Gb  ST_Fonts.o [3]
acGUI_FontAvantGarde20_220F
                        0x080204fc     0x54  Data  Gb  ST_Fonts.o [3]
acGUI_FontAvantGarde20_2211
                        0x08020550     0x48  Data  Gb  ST_Fonts.o [3]
acGUI_FontAvantGarde20_2212
                        0x08020598      0x4  Data  Gb  ST_Fonts.o [3]
acGUI_FontAvantGarde20_2215
                        0x0802059c     0x30  Data  Gb  ST_Fonts.o [3]
acGUI_FontAvantGarde20_2219
                        0x080205cc      0x2  Data  Gb  ST_Fonts.o [3]
acGUI_FontAvantGarde20_221A
                        0x080205d0     0x58  Data  Gb  ST_Fonts.o [3]
acGUI_FontAvantGarde20_221E
                        0x08020628     0x24  Data  Gb  ST_Fonts.o [3]
acGUI_FontAvantGarde20_222B
                        0x0802064c     0x48  Data  Gb  ST_Fonts.o [3]
acGUI_FontAvantGarde20_2248
                        0x08020694     0x18  Data  Gb  ST_Fonts.o [3]
acGUI_FontAvantGarde20_2260
                        0x080206ac     0x20  Data  Gb  ST_Fonts.o [3]
acGUI_FontAvantGarde20_2264
                        0x080206cc     0x28  Data  Gb  ST_Fonts.o [3]
acGUI_FontAvantGarde20_2265
                        0x080206f4     0x28  Data  Gb  ST_Fonts.o [3]
acGUI_FontAvantGarde20_25CA
                        0x0802071c     0x38  Data  Gb  ST_Fonts.o [3]
acGUI_FontAvantGarde20_FB01
                        0x08020754     0x30  Data  Gb  ST_Fonts.o [3]
acGUI_FontAvantGarde20_FB02
                        0x08020784     0x30  Data  Gb  ST_Fonts.o [3]
acGUI_FontAvantGarde20_FFFF
                        0x080207b4     0x2c  Data  Gb  ST_Fonts.o [3]
acGUI_FontAvantGarde24_0020
                        0x08025478      0x1  Data  Gb  ST_Fonts.o [3]
acGUI_FontAvantGarde24_0021
                        0x0802547c     0x10  Data  Gb  ST_Fonts.o [3]
acGUI_FontAvantGarde24_0022
                        0x0802548c      0xc  Data  Gb  ST_Fonts.o [3]
acGUI_FontAvantGarde24_0023
                        0x08025498     0x50  Data  Gb  ST_Fonts.o [3]
acGUI_FontAvantGarde24_0024
                        0x080254e8     0x44  Data  Gb  ST_Fonts.o [3]
acGUI_FontAvantGarde24_0025
                        0x0802552c     0x6c  Data  Gb  ST_Fonts.o [3]
acGUI_FontAvantGarde24_0026
                        0x08025598     0x6c  Data  Gb  ST_Fonts.o [3]
acGUI_FontAvantGarde24_0027
                        0x08025604      0x8  Data  Gb  ST_Fonts.o [3]
acGUI_FontAvantGarde24_0028
                        0x0802560c     0x3c  Data  Gb  ST_Fonts.o [3]
acGUI_FontAvantGarde24_0029
                        0x08025648     0x3c  Data  Gb  ST_Fonts.o [3]
acGUI_FontAvantGarde24_002A
                        0x08025684     0x1c  Data  Gb  ST_Fonts.o [3]
acGUI_FontAvantGarde24_002B
                        0x080256a0     0x38  Data  Gb  ST_Fonts.o [3]
acGUI_FontAvantGarde24_002C
                        0x080256d8      0x8  Data  Gb  ST_Fonts.o [3]
acGUI_FontAvantGarde24_002D
                        0x080256e0      0x8  Data  Gb  ST_Fonts.o [3]
acGUI_FontAvantGarde24_002E
                        0x080256e8      0x4  Data  Gb  ST_Fonts.o [3]
acGUI_FontAvantGarde24_002F
                        0x080256ec     0x44  Data  Gb  ST_Fonts.o [3]
acGUI_FontAvantGarde24_0030
                        0x08025730     0x4c  Data  Gb  ST_Fonts.o [3]
acGUI_FontAvantGarde24_0031
                        0x0802577c     0x30  Data  Gb  ST_Fonts.o [3]
acGUI_FontAvantGarde24_0032
                        0x080257ac     0x4c  Data  Gb  ST_Fonts.o [3]
acGUI_FontAvantGarde24_0033
                        0x080257f8     0x4c  Data  Gb  ST_Fonts.o [3]
acGUI_FontAvantGarde24_0034
                        0x08025844     0x5c  Data  Gb  ST_Fonts.o [3]
acGUI_FontAvantGarde24_0035
                        0x080258a0     0x4c  Data  Gb  ST_Fonts.o [3]
acGUI_FontAvantGarde24_0036
                        0x080258ec     0x4c  Data  Gb  ST_Fonts.o [3]
acGUI_FontAvantGarde24_0037
                        0x08025938     0x4c  Data  Gb  ST_Fonts.o [3]
acGUI_FontAvantGarde24_0038
                        0x08025984     0x4c  Data  Gb  ST_Fonts.o [3]
acGUI_FontAvantGarde24_0039
                        0x080259d0     0x4c  Data  Gb  ST_Fonts.o [3]
acGUI_FontAvantGarde24_003A
                        0x08025a1c      0xc  Data  Gb  ST_Fonts.o [3]
acGUI_FontAvantGarde24_003B
                        0x08025a28     0x1c  Data  Gb  ST_Fonts.o [3]
acGUI_FontAvantGarde24_003C
                        0x08025a44     0x38  Data  Gb  ST_Fonts.o [3]
acGUI_FontAvantGarde24_003D
                        0x08025a7c     0x1c  Data  Gb  ST_Fonts.o [3]
acGUI_FontAvantGarde24_003E
                        0x08025a98     0x38  Data  Gb  ST_Fonts.o [3]
acGUI_FontAvantGarde24_003F
                        0x08025ad0     0x4c  Data  Gb  ST_Fonts.o [3]
acGUI_FontAvantGarde24_0040
                        0x08025b1c     0x6c  Data  Gb  ST_Fonts.o [3]
acGUI_FontAvantGarde24_0041
                        0x08025b88     0x6c  Data  Gb  ST_Fonts.o [3]
acGUI_FontAvantGarde24_0042
                        0x08025bf4     0x3c  Data  Gb  ST_Fonts.o [3]
acGUI_FontAvantGarde24_0043
                        0x08025c30     0x6c  Data  Gb  ST_Fonts.o [3]
acGUI_FontAvantGarde24_0044
                        0x08025c9c     0x5c  Data  Gb  ST_Fonts.o [3]
acGUI_FontAvantGarde24_0045
                        0x08025cf8     0x3c  Data  Gb  ST_Fonts.o [3]
acGUI_FontAvantGarde24_0046
                        0x08025d34     0x3c  Data  Gb  ST_Fonts.o [3]
acGUI_FontAvantGarde24_0047
                        0x08025d70     0x78  Data  Gb  ST_Fonts.o [3]
acGUI_FontAvantGarde24_0048
                        0x08025de8     0x4c  Data  Gb  ST_Fonts.o [3]
acGUI_FontAvantGarde24_0049
                        0x08025e34     0x10  Data  Gb  ST_Fonts.o [3]
acGUI_FontAvantGarde24_004A
                        0x08025e44     0x3c  Data  Gb  ST_Fonts.o [3]
acGUI_FontAvantGarde24_004B
                        0x08025e80     0x4c  Data  Gb  ST_Fonts.o [3]
acGUI_FontAvantGarde24_004C
                        0x08025ecc     0x3c  Data  Gb  ST_Fonts.o [3]
acGUI_FontAvantGarde24_004D
                        0x08025f08     0x78  Data  Gb  ST_Fonts.o [3]
acGUI_FontAvantGarde24_004E
                        0x08025f80     0x5c  Data  Gb  ST_Fonts.o [3]
acGUI_FontAvantGarde24_004F
                        0x08025fdc     0x6c  Data  Gb  ST_Fonts.o [3]
acGUI_FontAvantGarde24_0050
                        0x08026048     0x4c  Data  Gb  ST_Fonts.o [3]
acGUI_FontAvantGarde24_0051
                        0x08026094     0x78  Data  Gb  ST_Fonts.o [3]
acGUI_FontAvantGarde24_0052
                        0x0802610c     0x4c  Data  Gb  ST_Fonts.o [3]
acGUI_FontAvantGarde24_0053
                        0x08026158     0x3c  Data  Gb  ST_Fonts.o [3]
acGUI_FontAvantGarde24_0054
                        0x08026194     0x4c  Data  Gb  ST_Fonts.o [3]
acGUI_FontAvantGarde24_0055
                        0x080261e0     0x4c  Data  Gb  ST_Fonts.o [3]
acGUI_FontAvantGarde24_0056
                        0x0802622c     0x6c  Data  Gb  ST_Fonts.o [3]
acGUI_FontAvantGarde24_0057
                        0x08026298     0x88  Data  Gb  ST_Fonts.o [3]
acGUI_FontAvantGarde24_0058
                        0x08026320     0x5c  Data  Gb  ST_Fonts.o [3]
acGUI_FontAvantGarde24_0059
                        0x0802637c     0x5c  Data  Gb  ST_Fonts.o [3]
acGUI_FontAvantGarde24_005A
                        0x080263d8     0x4c  Data  Gb  ST_Fonts.o [3]
acGUI_FontAvantGarde24_005B
                        0x08026424     0x3c  Data  Gb  ST_Fonts.o [3]
acGUI_FontAvantGarde24_005C
                        0x08026460     0x44  Data  Gb  ST_Fonts.o [3]
acGUI_FontAvantGarde24_005D
                        0x080264a4     0x3c  Data  Gb  ST_Fonts.o [3]
acGUI_FontAvantGarde24_005E
                        0x080264e0     0x24  Data  Gb  ST_Fonts.o [3]
acGUI_FontAvantGarde24_005F
                        0x08026504      0x8  Data  Gb  ST_Fonts.o [3]
acGUI_FontAvantGarde24_0060
                        0x0802650c      0xc  Data  Gb  ST_Fonts.o [3]
acGUI_FontAvantGarde24_0061
                        0x08026518     0x44  Data  Gb  ST_Fonts.o [3]
acGUI_FontAvantGarde24_0062
                        0x0802655c     0x5c  Data  Gb  ST_Fonts.o [3]
acGUI_FontAvantGarde24_0063
                        0x080265b8     0x44  Data  Gb  ST_Fonts.o [3]
acGUI_FontAvantGarde24_0064
                        0x080265fc     0x5c  Data  Gb  ST_Fonts.o [3]
acGUI_FontAvantGarde24_0065
                        0x08026658     0x38  Data  Gb  ST_Fonts.o [3]
acGUI_FontAvantGarde24_0066
                        0x08026690     0x30  Data  Gb  ST_Fonts.o [3]
acGUI_FontAvantGarde24_0067
                        0x080266c0     0x60  Data  Gb  ST_Fonts.o [3]
acGUI_FontAvantGarde24_0068
                        0x08026720     0x4c  Data  Gb  ST_Fonts.o [3]
acGUI_FontAvantGarde24_0069
                        0x0802676c     0x10  Data  Gb  ST_Fonts.o [3]
acGUI_FontAvantGarde24_006A
                        0x0802677c     0x28  Data  Gb  ST_Fonts.o [3]
acGUI_FontAvantGarde24_006B
                        0x080267a4     0x3c  Data  Gb  ST_Fonts.o [3]
acGUI_FontAvantGarde24_006C
                        0x080267e0     0x10  Data  Gb  ST_Fonts.o [3]
acGUI_FontAvantGarde24_006D
                        0x080267f0     0x58  Data  Gb  ST_Fonts.o [3]
acGUI_FontAvantGarde24_006E
                        0x08026848     0x38  Data  Gb  ST_Fonts.o [3]
acGUI_FontAvantGarde24_006F
                        0x08026880     0x44  Data  Gb  ST_Fonts.o [3]
acGUI_FontAvantGarde24_0070
                        0x080268c4     0x5c  Data  Gb  ST_Fonts.o [3]
acGUI_FontAvantGarde24_0071
                        0x08026920     0x5c  Data  Gb  ST_Fonts.o [3]
acGUI_FontAvantGarde24_0072
                        0x0802697c     0x24  Data  Gb  ST_Fonts.o [3]
acGUI_FontAvantGarde24_0073
                        0x080269a0     0x2c  Data  Gb  ST_Fonts.o [3]
acGUI_FontAvantGarde24_0074
                        0x080269cc     0x30  Data  Gb  ST_Fonts.o [3]
acGUI_FontAvantGarde24_0075
                        0x080269fc     0x38  Data  Gb  ST_Fonts.o [3]
acGUI_FontAvantGarde24_0076
                        0x08026a34     0x38  Data  Gb  ST_Fonts.o [3]
acGUI_FontAvantGarde24_0077
                        0x08026a6c     0x58  Data  Gb  ST_Fonts.o [3]
acGUI_FontAvantGarde24_0078
                        0x08026ac4     0x38  Data  Gb  ST_Fonts.o [3]
acGUI_FontAvantGarde24_0079
                        0x08026afc     0x4c  Data  Gb  ST_Fonts.o [3]
acGUI_FontAvantGarde24_007A
                        0x08026b48     0x2c  Data  Gb  ST_Fonts.o [3]
acGUI_FontAvantGarde24_007B
                        0x08026b74     0x3c  Data  Gb  ST_Fonts.o [3]
acGUI_FontAvantGarde24_007C
                        0x08026bb0     0x14  Data  Gb  ST_Fonts.o [3]
acGUI_FontAvantGarde24_007D
                        0x08026bc4     0x3c  Data  Gb  ST_Fonts.o [3]
acGUI_FontAvantGarde24_007E
                        0x08026c00     0x10  Data  Gb  ST_Fonts.o [3]
acGUI_FontAvantGarde24_00A0
                        0x08026c10      0x1  Data  Gb  ST_Fonts.o [3]
acGUI_FontAvantGarde24_00A1
                        0x08026c14     0x10  Data  Gb  ST_Fonts.o [3]
acGUI_FontAvantGarde24_00A2
                        0x08026c24     0x3c  Data  Gb  ST_Fonts.o [3]
acGUI_FontAvantGarde24_00A3
                        0x08026c60     0x5c  Data  Gb  ST_Fonts.o [3]
acGUI_FontAvantGarde24_00A4
                        0x08026cbc     0x44  Data  Gb  ST_Fonts.o [3]
acGUI_FontAvantGarde24_00A5
                        0x08026d00     0x5c  Data  Gb  ST_Fonts.o [3]
acGUI_FontAvantGarde24_00A6
                        0x08026d5c     0x14  Data  Gb  ST_Fonts.o [3]
acGUI_FontAvantGarde24_00A7
                        0x08026d70     0x64  Data  Gb  ST_Fonts.o [3]
acGUI_FontAvantGarde24_00A8
                        0x08026dd4      0xc  Data  Gb  ST_Fonts.o [3]
acGUI_FontAvantGarde24_00A9
                        0x08026de0     0x78  Data  Gb  ST_Fonts.o [3]
acGUI_FontAvantGarde24_00AA
                        0x08026e58     0x18  Data  Gb  ST_Fonts.o [3]
acGUI_FontAvantGarde24_00AB
                        0x08026e70     0x18  Data  Gb  ST_Fonts.o [3]
acGUI_FontAvantGarde24_00AC
                        0x08026e88     0x1c  Data  Gb  ST_Fonts.o [3]
acGUI_FontAvantGarde24_00AD
                        0x08026ea4      0x8  Data  Gb  ST_Fonts.o [3]
acGUI_FontAvantGarde24_00AE
                        0x08026eac     0x78  Data  Gb  ST_Fonts.o [3]
acGUI_FontAvantGarde24_00AF
                        0x08026f24      0x8  Data  Gb  ST_Fonts.o [3]
acGUI_FontAvantGarde24_00B0
                        0x08026f2c     0x14  Data  Gb  ST_Fonts.o [3]
acGUI_FontAvantGarde24_00B1
                        0x08026f40     0x44  Data  Gb  ST_Fonts.o [3]
acGUI_FontAvantGarde24_00B2
                        0x08026f84     0x1c  Data  Gb  ST_Fonts.o [3]
acGUI_FontAvantGarde24_00B3
                        0x08026fa0     0x1c  Data  Gb  ST_Fonts.o [3]
acGUI_FontAvantGarde24_00B4
                        0x08026fbc      0xc  Data  Gb  ST_Fonts.o [3]
acGUI_FontAvantGarde24_00B5
                        0x08026fc8     0x4c  Data  Gb  ST_Fonts.o [3]
acGUI_FontAvantGarde24_00B6
                        0x08027014     0x68  Data  Gb  ST_Fonts.o [3]
acGUI_FontAvantGarde24_00B7
                        0x0802707c      0x4  Data  Gb  ST_Fonts.o [3]
acGUI_FontAvantGarde24_00B8
                        0x08027080      0x8  Data  Gb  ST_Fonts.o [3]
acGUI_FontAvantGarde24_00B9
                        0x08027088     0x14  Data  Gb  ST_Fonts.o [3]
acGUI_FontAvantGarde24_00BA
                        0x0802709c     0x18  Data  Gb  ST_Fonts.o [3]
acGUI_FontAvantGarde24_00BB
                        0x080270b4     0x18  Data  Gb  ST_Fonts.o [3]
acGUI_FontAvantGarde24_00BC
                        0x080270cc     0x6c  Data  Gb  ST_Fonts.o [3]
acGUI_FontAvantGarde24_00BD
                        0x08027138     0x6c  Data  Gb  ST_Fonts.o [3]
acGUI_FontAvantGarde24_00BE
                        0x080271a4     0x78  Data  Gb  ST_Fonts.o [3]
acGUI_FontAvantGarde24_00BF
                        0x0802721c     0x4c  Data  Gb  ST_Fonts.o [3]
acGUI_FontAvantGarde24_00C0
                        0x08027268     0x88  Data  Gb  ST_Fonts.o [3]
acGUI_FontAvantGarde24_00C1
                        0x080272f0     0x88  Data  Gb  ST_Fonts.o [3]
acGUI_FontAvantGarde24_00C2
                        0x08027378     0x80  Data  Gb  ST_Fonts.o [3]
acGUI_FontAvantGarde24_00C3
                        0x080273f8     0x80  Data  Gb  ST_Fonts.o [3]
acGUI_FontAvantGarde24_00C4
                        0x08027478     0x80  Data  Gb  ST_Fonts.o [3]
acGUI_FontAvantGarde24_00C5
                        0x080274f8     0x88  Data  Gb  ST_Fonts.o [3]
acGUI_FontAvantGarde24_00C6
                        0x08027580     0x88  Data  Gb  ST_Fonts.o [3]
acGUI_FontAvantGarde24_00C7
                        0x08027608     0x88  Data  Gb  ST_Fonts.o [3]
acGUI_FontAvantGarde24_00C8
                        0x08027690     0x4c  Data  Gb  ST_Fonts.o [3]
acGUI_FontAvantGarde24_00C9
                        0x080276dc     0x4c  Data  Gb  ST_Fonts.o [3]
acGUI_FontAvantGarde24_00CA
                        0x08027728     0x48  Data  Gb  ST_Fonts.o [3]
acGUI_FontAvantGarde24_00CB
                        0x08027770     0x48  Data  Gb  ST_Fonts.o [3]
acGUI_FontAvantGarde24_00CC
                        0x080277b8     0x3c  Data  Gb  ST_Fonts.o [3]
acGUI_FontAvantGarde24_00CD
                        0x080277f4     0x3c  Data  Gb  ST_Fonts.o [3]
acGUI_FontAvantGarde24_00CE
                        0x08027830     0x48  Data  Gb  ST_Fonts.o [3]
acGUI_FontAvantGarde24_00CF
                        0x08027878     0x38  Data  Gb  ST_Fonts.o [3]
acGUI_FontAvantGarde24_00D0
                        0x080278b0     0x6c  Data  Gb  ST_Fonts.o [3]
acGUI_FontAvantGarde24_00D1
                        0x0802791c     0x6c  Data  Gb  ST_Fonts.o [3]
acGUI_FontAvantGarde24_00D2
                        0x08027988     0x88  Data  Gb  ST_Fonts.o [3]
acGUI_FontAvantGarde24_00D3
                        0x08027a10     0x88  Data  Gb  ST_Fonts.o [3]
acGUI_FontAvantGarde24_00D4
                        0x08027a98     0x80  Data  Gb  ST_Fonts.o [3]
acGUI_FontAvantGarde24_00D5
                        0x08027b18     0x80  Data  Gb  ST_Fonts.o [3]
acGUI_FontAvantGarde24_00D6
                        0x08027b98     0x80  Data  Gb  ST_Fonts.o [3]
acGUI_FontAvantGarde24_00D7
                        0x08027c18     0x34  Data  Gb  ST_Fonts.o [3]
acGUI_FontAvantGarde24_00D8
                        0x08027c4c     0x78  Data  Gb  ST_Fonts.o [3]
acGUI_FontAvantGarde24_00D9
                        0x08027cc4     0x60  Data  Gb  ST_Fonts.o [3]
acGUI_FontAvantGarde24_00DA
                        0x08027d24     0x60  Data  Gb  ST_Fonts.o [3]
acGUI_FontAvantGarde24_00DB
                        0x08027d84     0x5c  Data  Gb  ST_Fonts.o [3]
acGUI_FontAvantGarde24_00DC
                        0x08027de0     0x5c  Data  Gb  ST_Fonts.o [3]
acGUI_FontAvantGarde24_00DD
                        0x08027e3c     0x74  Data  Gb  ST_Fonts.o [3]
acGUI_FontAvantGarde24_00DE
                        0x08027eb0     0x4c  Data  Gb  ST_Fonts.o [3]
acGUI_FontAvantGarde24_00DF
                        0x08027efc     0x4c  Data  Gb  ST_Fonts.o [3]
acGUI_FontAvantGarde24_00E0
                        0x08027f48     0x60  Data  Gb  ST_Fonts.o [3]
acGUI_FontAvantGarde24_00E1
                        0x08027fa8     0x60  Data  Gb  ST_Fonts.o [3]
acGUI_FontAvantGarde24_00E2
                        0x08028008     0x5c  Data  Gb  ST_Fonts.o [3]
acGUI_FontAvantGarde24_00E3
                        0x08028064     0x54  Data  Gb  ST_Fonts.o [3]
acGUI_FontAvantGarde24_00E4
                        0x080280b8     0x5c  Data  Gb  ST_Fonts.o [3]
acGUI_FontAvantGarde24_00E5
                        0x08028114     0x5c  Data  Gb  ST_Fonts.o [3]
acGUI_FontAvantGarde24_00E6
                        0x08028170     0x7c  Data  Gb  ST_Fonts.o [3]
acGUI_FontAvantGarde24_00E7
                        0x080281ec     0x5c  Data  Gb  ST_Fonts.o [3]
acGUI_FontAvantGarde24_00E8
                        0x08028248     0x50  Data  Gb  ST_Fonts.o [3]
acGUI_FontAvantGarde24_00E9
                        0x08028298     0x50  Data  Gb  ST_Fonts.o [3]
acGUI_FontAvantGarde24_00EA
                        0x080282e8     0x4c  Data  Gb  ST_Fonts.o [3]
acGUI_FontAvantGarde24_00EB
                        0x08028334     0x4c  Data  Gb  ST_Fonts.o [3]
acGUI_FontAvantGarde24_00EC
                        0x08028380     0x30  Data  Gb  ST_Fonts.o [3]
acGUI_FontAvantGarde24_00ED
                        0x080283b0     0x30  Data  Gb  ST_Fonts.o [3]
acGUI_FontAvantGarde24_00EE
                        0x080283e0     0x4c  Data  Gb  ST_Fonts.o [3]
acGUI_FontAvantGarde24_00EF
                        0x0802842c     0x30  Data  Gb  ST_Fonts.o [3]
acGUI_FontAvantGarde24_00F0
                        0x0802845c     0x5c  Data  Gb  ST_Fonts.o [3]
acGUI_FontAvantGarde24_00F1
                        0x080284b8     0x48  Data  Gb  ST_Fonts.o [3]
acGUI_FontAvantGarde24_00F2
                        0x08028500     0x60  Data  Gb  ST_Fonts.o [3]
acGUI_FontAvantGarde24_00F3
                        0x08028560     0x60  Data  Gb  ST_Fonts.o [3]
acGUI_FontAvantGarde24_00F4
                        0x080285c0     0x5c  Data  Gb  ST_Fonts.o [3]
acGUI_FontAvantGarde24_00F5
                        0x0802861c     0x54  Data  Gb  ST_Fonts.o [3]
acGUI_FontAvantGarde24_00F6
                        0x08028670     0x5c  Data  Gb  ST_Fonts.o [3]
acGUI_FontAvantGarde24_00F7
                        0x080286cc     0x48  Data  Gb  ST_Fonts.o [3]
acGUI_FontAvantGarde24_00F8
                        0x08028714     0x50  Data  Gb  ST_Fonts.o [3]
acGUI_FontAvantGarde24_00F9
                        0x08028764     0x50  Data  Gb  ST_Fonts.o [3]
acGUI_FontAvantGarde24_00FA
                        0x080287b4     0x50  Data  Gb  ST_Fonts.o [3]
acGUI_FontAvantGarde24_00FB
                        0x08028804     0x4c  Data  Gb  ST_Fonts.o [3]
acGUI_FontAvantGarde24_00FC
                        0x08028850     0x4c  Data  Gb  ST_Fonts.o [3]
acGUI_FontAvantGarde24_00FD
                        0x0802889c     0x64  Data  Gb  ST_Fonts.o [3]
acGUI_FontAvantGarde24_00FE
                        0x08028900     0x74  Data  Gb  ST_Fonts.o [3]
acGUI_FontAvantGarde24_00FF
                        0x08028974     0x74  Data  Gb  ST_Fonts.o [3]
acGUI_FontAvantGarde24_0131
                        0x080289e8      0xc  Data  Gb  ST_Fonts.o [3]
acGUI_FontAvantGarde24_0141
                        0x080289f4     0x4c  Data  Gb  ST_Fonts.o [3]
acGUI_FontAvantGarde24_0142
                        0x08028a40     0x30  Data  Gb  ST_Fonts.o [3]
acGUI_FontAvantGarde24_0152
                        0x08028a70     0x98  Data  Gb  ST_Fonts.o [3]
acGUI_FontAvantGarde24_0153
                        0x08028b08     0x70  Data  Gb  ST_Fonts.o [3]
acGUI_FontAvantGarde24_0160
                        0x08028b78     0x48  Data  Gb  ST_Fonts.o [3]
acGUI_FontAvantGarde24_0161
                        0x08028bc0     0x3c  Data  Gb  ST_Fonts.o [3]
acGUI_FontAvantGarde24_0178
                        0x08028bfc     0x6c  Data  Gb  ST_Fonts.o [3]
acGUI_FontAvantGarde24_017D
                        0x08028c68     0x5c  Data  Gb  ST_Fonts.o [3]
acGUI_FontAvantGarde24_017E
                        0x08028cc4     0x3c  Data  Gb  ST_Fonts.o [3]
acGUI_FontAvantGarde24_0192
                        0x08028d00     0x74  Data  Gb  ST_Fonts.o [3]
acGUI_FontAvantGarde24_02C6
                        0x08028d74      0xc  Data  Gb  ST_Fonts.o [3]
acGUI_FontAvantGarde24_02C7
                        0x08028d80      0xc  Data  Gb  ST_Fonts.o [3]
acGUI_FontAvantGarde24_02C9
                        0x08028d8c      0x8  Data  Gb  ST_Fonts.o [3]
acGUI_FontAvantGarde24_02D8
                        0x08028d94      0xc  Data  Gb  ST_Fonts.o [3]
acGUI_FontAvantGarde24_02D9
                        0x08028da0      0x4  Data  Gb  ST_Fonts.o [3]
acGUI_FontAvantGarde24_02DA
                        0x08028da4      0x8  Data  Gb  ST_Fonts.o [3]
acGUI_FontAvantGarde24_02DB
                        0x08028dac      0x8  Data  Gb  ST_Fonts.o [3]
acGUI_FontAvantGarde24_02DC
                        0x08028db4      0xc  Data  Gb  ST_Fonts.o [3]
acGUI_FontAvantGarde24_02DD
                        0x08028dc0     0x10  Data  Gb  ST_Fonts.o [3]
acGUI_FontAvantGarde24_03A9
                        0x08028dd0     0x6c  Data  Gb  ST_Fonts.o [3]
acGUI_FontAvantGarde24_03BC
                        0x08028e3c     0x4c  Data  Gb  ST_Fonts.o [3]
acGUI_FontAvantGarde24_03C0
                        0x08028e88     0x44  Data  Gb  ST_Fonts.o [3]
acGUI_FontAvantGarde24_2010
                        0x08028ecc      0x8  Data  Gb  ST_Fonts.o [3]
acGUI_FontAvantGarde24_2013
                        0x08028ed4      0xc  Data  Gb  ST_Fonts.o [3]
acGUI_FontAvantGarde24_2014
                        0x08028ee0     0x14  Data  Gb  ST_Fonts.o [3]
acGUI_FontAvantGarde24_2018
                        0x08028ef4      0x8  Data  Gb  ST_Fonts.o [3]
acGUI_FontAvantGarde24_2019
                        0x08028efc      0x8  Data  Gb  ST_Fonts.o [3]
acGUI_FontAvantGarde24_201A
                        0x08028f04      0x8  Data  Gb  ST_Fonts.o [3]
acGUI_FontAvantGarde24_201C
                        0x08028f0c      0xc  Data  Gb  ST_Fonts.o [3]
acGUI_FontAvantGarde24_201D
                        0x08028f18      0xc  Data  Gb  ST_Fonts.o [3]
acGUI_FontAvantGarde24_201E
                        0x08028f24      0xc  Data  Gb  ST_Fonts.o [3]
acGUI_FontAvantGarde24_2020
                        0x08028f30     0x5c  Data  Gb  ST_Fonts.o [3]
acGUI_FontAvantGarde24_2021
                        0x08028f8c     0x5c  Data  Gb  ST_Fonts.o [3]
acGUI_FontAvantGarde24_2022
                        0x08028fe8     0x10  Data  Gb  ST_Fonts.o [3]
acGUI_FontAvantGarde24_2026
                        0x08028ff8     0x18  Data  Gb  ST_Fonts.o [3]
acGUI_FontAvantGarde24_2030
                        0x08029010     0xa8  Data  Gb  ST_Fonts.o [3]
acGUI_FontAvantGarde24_2039
                        0x080290b8     0x10  Data  Gb  ST_Fonts.o [3]
acGUI_FontAvantGarde24_203A
                        0x080290c8     0x10  Data  Gb  ST_Fonts.o [3]
acGUI_FontAvantGarde24_2044
                        0x080290d8     0x3c  Data  Gb  ST_Fonts.o [3]
acGUI_FontAvantGarde24_20AC
                        0x08029114     0x5c  Data  Gb  ST_Fonts.o [3]
acGUI_FontAvantGarde24_2113
                        0x08029170     0x50  Data  Gb  ST_Fonts.o [3]
acGUI_FontAvantGarde24_2122
                        0x080291c0     0x54  Data  Gb  ST_Fonts.o [3]
acGUI_FontAvantGarde24_2126
                        0x08029214     0x6c  Data  Gb  ST_Fonts.o [3]
acGUI_FontAvantGarde24_212E
                        0x08029280     0x78  Data  Gb  ST_Fonts.o [3]
acGUI_FontAvantGarde24_2202
                        0x080292f8     0x50  Data  Gb  ST_Fonts.o [3]
acGUI_FontAvantGarde24_2206
                        0x08029348     0x5c  Data  Gb  ST_Fonts.o [3]
acGUI_FontAvantGarde24_220F
                        0x080293a4     0x78  Data  Gb  ST_Fonts.o [3]
acGUI_FontAvantGarde24_2211
                        0x0802941c     0x60  Data  Gb  ST_Fonts.o [3]
acGUI_FontAvantGarde24_2212
                        0x0802947c      0xc  Data  Gb  ST_Fonts.o [3]
acGUI_FontAvantGarde24_2215
                        0x08029488     0x3c  Data  Gb  ST_Fonts.o [3]
acGUI_FontAvantGarde24_2219
                        0x080294c4      0x4  Data  Gb  ST_Fonts.o [3]
acGUI_FontAvantGarde24_221A
                        0x080294c8     0x78  Data  Gb  ST_Fonts.o [3]
acGUI_FontAvantGarde24_221E
                        0x08029540     0x2c  Data  Gb  ST_Fonts.o [3]
acGUI_FontAvantGarde24_222B
                        0x0802956c     0x50  Data  Gb  ST_Fonts.o [3]
acGUI_FontAvantGarde24_2248
                        0x080295bc     0x20  Data  Gb  ST_Fonts.o [3]
acGUI_FontAvantGarde24_2260
                        0x080295dc     0x38  Data  Gb  ST_Fonts.o [3]
acGUI_FontAvantGarde24_2264
                        0x08029614     0x3c  Data  Gb  ST_Fonts.o [3]
acGUI_FontAvantGarde24_2265
                        0x08029650     0x3c  Data  Gb  ST_Fonts.o [3]
acGUI_FontAvantGarde24_25CA
                        0x0802968c     0x50  Data  Gb  ST_Fonts.o [3]
acGUI_FontAvantGarde24_FB01
                        0x080296dc     0x3c  Data  Gb  ST_Fonts.o [3]
acGUI_FontAvantGarde24_FB02
                        0x08029718     0x3c  Data  Gb  ST_Fonts.o [3]
acGUI_FontAvantGarde24_FFFF
                        0x08029754     0x48  Data  Gb  ST_Fonts.o [3]
acGUI_FontLubalGraph16B_0020
                        0x0802d4ec      0x1  Data  Gb  ST_Fonts.o [3]
acGUI_FontLubalGraph16B_0021
                        0x0802d4f0      0xc  Data  Gb  ST_Fonts.o [3]
acGUI_FontLubalGraph16B_0022
                        0x0802d4fc      0x8  Data  Gb  ST_Fonts.o [3]
acGUI_FontLubalGraph16B_0023
                        0x0802d504     0x24  Data  Gb  ST_Fonts.o [3]
acGUI_FontLubalGraph16B_0024
                        0x0802d528     0x30  Data  Gb  ST_Fonts.o [3]
acGUI_FontLubalGraph16B_0025
                        0x0802d558     0x30  Data  Gb  ST_Fonts.o [3]
acGUI_FontLubalGraph16B_0026
                        0x0802d588     0x30  Data  Gb  ST_Fonts.o [3]
acGUI_FontLubalGraph16B_0027
                        0x0802d5b8      0x4  Data  Gb  ST_Fonts.o [3]
acGUI_FontLubalGraph16B_0028
                        0x0802d5bc     0x18  Data  Gb  ST_Fonts.o [3]
acGUI_FontLubalGraph16B_0029
                        0x0802d5d4     0x18  Data  Gb  ST_Fonts.o [3]
acGUI_FontLubalGraph16B_002A
                        0x0802d5ec      0x8  Data  Gb  ST_Fonts.o [3]
acGUI_FontLubalGraph16B_002B
                        0x0802d5f4     0x1c  Data  Gb  ST_Fonts.o [3]
acGUI_FontLubalGraph16B_002C
                        0x0802d610      0x4  Data  Gb  ST_Fonts.o [3]
acGUI_FontLubalGraph16B_002D
                        0x0802d614      0x4  Data  Gb  ST_Fonts.o [3]
acGUI_FontLubalGraph16B_002E
                        0x0802d618      0x2  Data  Gb  ST_Fonts.o [3]
acGUI_FontLubalGraph16B_002F
                        0x0802d61c     0x2c  Data  Gb  ST_Fonts.o [3]
acGUI_FontLubalGraph16B_0030
                        0x0802d648     0x24  Data  Gb  ST_Fonts.o [3]
acGUI_FontLubalGraph16B_0031
                        0x0802d66c     0x14  Data  Gb  ST_Fonts.o [3]
acGUI_FontLubalGraph16B_0032
                        0x0802d680     0x24  Data  Gb  ST_Fonts.o [3]
acGUI_FontLubalGraph16B_0033
                        0x0802d6a4     0x24  Data  Gb  ST_Fonts.o [3]
acGUI_FontLubalGraph16B_0034
                        0x0802d6c8     0x24  Data  Gb  ST_Fonts.o [3]
acGUI_FontLubalGraph16B_0035
                        0x0802d6ec     0x24  Data  Gb  ST_Fonts.o [3]
acGUI_FontLubalGraph16B_0036
                        0x0802d710     0x24  Data  Gb  ST_Fonts.o [3]
acGUI_FontLubalGraph16B_0037
                        0x0802d734     0x1c  Data  Gb  ST_Fonts.o [3]
acGUI_FontLubalGraph16B_0038
                        0x0802d750     0x24  Data  Gb  ST_Fonts.o [3]
acGUI_FontLubalGraph16B_0039
                        0x0802d774     0x24  Data  Gb  ST_Fonts.o [3]
acGUI_FontLubalGraph16B_003A
                        0x0802d798      0x8  Data  Gb  ST_Fonts.o [3]
acGUI_FontLubalGraph16B_003B
                        0x0802d7a0      0x8  Data  Gb  ST_Fonts.o [3]
acGUI_FontLubalGraph16B_003C
                        0x0802d7a8     0x20  Data  Gb  ST_Fonts.o [3]
acGUI_FontLubalGraph16B_003D
                        0x0802d7c8     0x10  Data  Gb  ST_Fonts.o [3]
acGUI_FontLubalGraph16B_003E
                        0x0802d7d8     0x20  Data  Gb  ST_Fonts.o [3]
acGUI_FontLubalGraph16B_003F
                        0x0802d7f8     0x1c  Data  Gb  ST_Fonts.o [3]
acGUI_FontLubalGraph16B_0040
                        0x0802d814     0x30  Data  Gb  ST_Fonts.o [3]
acGUI_FontLubalGraph16B_0041
                        0x0802d844     0x30  Data  Gb  ST_Fonts.o [3]
acGUI_FontLubalGraph16B_0042
                        0x0802d874     0x24  Data  Gb  ST_Fonts.o [3]
acGUI_FontLubalGraph16B_0043
                        0x0802d898     0x30  Data  Gb  ST_Fonts.o [3]
acGUI_FontLubalGraph16B_0044
                        0x0802d8c8     0x30  Data  Gb  ST_Fonts.o [3]
acGUI_FontLubalGraph16B_0045
                        0x0802d8f8     0x24  Data  Gb  ST_Fonts.o [3]
acGUI_FontLubalGraph16B_0046
                        0x0802d91c     0x24  Data  Gb  ST_Fonts.o [3]
acGUI_FontLubalGraph16B_0047
                        0x0802d940     0x30  Data  Gb  ST_Fonts.o [3]
acGUI_FontLubalGraph16B_0048
                        0x0802d970     0x30  Data  Gb  ST_Fonts.o [3]
acGUI_FontLubalGraph16B_0049
                        0x0802d9a0     0x14  Data  Gb  ST_Fonts.o [3]
acGUI_FontLubalGraph16B_004A
                        0x0802d9b4     0x24  Data  Gb  ST_Fonts.o [3]
acGUI_FontLubalGraph16B_004B
                        0x0802d9d8     0x30  Data  Gb  ST_Fonts.o [3]
acGUI_FontLubalGraph16B_004C
                        0x0802da08     0x24  Data  Gb  ST_Fonts.o [3]
acGUI_FontLubalGraph16B_004D
                        0x0802da2c     0x38  Data  Gb  ST_Fonts.o [3]
acGUI_FontLubalGraph16B_004E
                        0x0802da64     0x30  Data  Gb  ST_Fonts.o [3]
acGUI_FontLubalGraph16B_004F
                        0x0802da94     0x30  Data  Gb  ST_Fonts.o [3]
acGUI_FontLubalGraph16B_0050
                        0x0802dac4     0x24  Data  Gb  ST_Fonts.o [3]
acGUI_FontLubalGraph16B_0051
                        0x0802dae8     0x38  Data  Gb  ST_Fonts.o [3]
acGUI_FontLubalGraph16B_0052
                        0x0802db20     0x30  Data  Gb  ST_Fonts.o [3]
acGUI_FontLubalGraph16B_0053
                        0x0802db50     0x1c  Data  Gb  ST_Fonts.o [3]
acGUI_FontLubalGraph16B_0054
                        0x0802db6c     0x1c  Data  Gb  ST_Fonts.o [3]
acGUI_FontLubalGraph16B_0055
                        0x0802db88     0x30  Data  Gb  ST_Fonts.o [3]
acGUI_FontLubalGraph16B_0056
                        0x0802dbb8     0x30  Data  Gb  ST_Fonts.o [3]
acGUI_FontLubalGraph16B_0057
                        0x0802dbe8     0x40  Data  Gb  ST_Fonts.o [3]
acGUI_FontLubalGraph16B_0058
                        0x0802dc28     0x30  Data  Gb  ST_Fonts.o [3]
acGUI_FontLubalGraph16B_0059
                        0x0802dc58     0x24  Data  Gb  ST_Fonts.o [3]
acGUI_FontLubalGraph16B_005A
                        0x0802dc7c     0x24  Data  Gb  ST_Fonts.o [3]
acGUI_FontLubalGraph16B_005B
                        0x0802dca0     0x18  Data  Gb  ST_Fonts.o [3]
acGUI_FontLubalGraph16B_005C
                        0x0802dcb8     0x1c  Data  Gb  ST_Fonts.o [3]
acGUI_FontLubalGraph16B_005D
                        0x0802dcd4     0x18  Data  Gb  ST_Fonts.o [3]
acGUI_FontLubalGraph16B_005E
                        0x0802dcec     0x1c  Data  Gb  ST_Fonts.o [3]
acGUI_FontLubalGraph16B_005F
                        0x0802dd08      0x4  Data  Gb  ST_Fonts.o [3]
acGUI_FontLubalGraph16B_0060
                        0x0802dd0c      0x8  Data  Gb  ST_Fonts.o [3]
acGUI_FontLubalGraph16B_0061
                        0x0802dd14     0x1c  Data  Gb  ST_Fonts.o [3]
acGUI_FontLubalGraph16B_0062
                        0x0802dd30     0x24  Data  Gb  ST_Fonts.o [3]
acGUI_FontLubalGraph16B_0063
                        0x0802dd54     0x1c  Data  Gb  ST_Fonts.o [3]
acGUI_FontLubalGraph16B_0064
                        0x0802dd70     0x24  Data  Gb  ST_Fonts.o [3]
acGUI_FontLubalGraph16B_0065
                        0x0802dd94     0x1c  Data  Gb  ST_Fonts.o [3]
acGUI_FontLubalGraph16B_0066
                        0x0802ddb0     0x14  Data  Gb  ST_Fonts.o [3]
acGUI_FontLubalGraph16B_0067
                        0x0802ddc4     0x24  Data  Gb  ST_Fonts.o [3]
acGUI_FontLubalGraph16B_0068
                        0x0802dde8     0x24  Data  Gb  ST_Fonts.o [3]
acGUI_FontLubalGraph16B_0069
                        0x0802de0c     0x14  Data  Gb  ST_Fonts.o [3]
acGUI_FontLubalGraph16B_006A
                        0x0802de20     0x18  Data  Gb  ST_Fonts.o [3]
acGUI_FontLubalGraph16B_006B
                        0x0802de38     0x24  Data  Gb  ST_Fonts.o [3]
acGUI_FontLubalGraph16B_006C
                        0x0802de5c     0x14  Data  Gb  ST_Fonts.o [3]
acGUI_FontLubalGraph16B_006D
                        0x0802de70     0x2c  Data  Gb  ST_Fonts.o [3]
acGUI_FontLubalGraph16B_006E
                        0x0802de9c     0x1c  Data  Gb  ST_Fonts.o [3]
acGUI_FontLubalGraph16B_006F
                        0x0802deb8     0x1c  Data  Gb  ST_Fonts.o [3]
acGUI_FontLubalGraph16B_0070
                        0x0802ded4     0x24  Data  Gb  ST_Fonts.o [3]
acGUI_FontLubalGraph16B_0071
                        0x0802def8     0x24  Data  Gb  ST_Fonts.o [3]
acGUI_FontLubalGraph16B_0072
                        0x0802df1c     0x18  Data  Gb  ST_Fonts.o [3]
acGUI_FontLubalGraph16B_0073
                        0x0802df34     0x18  Data  Gb  ST_Fonts.o [3]
acGUI_FontLubalGraph16B_0074
                        0x0802df4c     0x14  Data  Gb  ST_Fonts.o [3]
acGUI_FontLubalGraph16B_0075
                        0x0802df60     0x1c  Data  Gb  ST_Fonts.o [3]
acGUI_FontLubalGraph16B_0076
                        0x0802df7c     0x1c  Data  Gb  ST_Fonts.o [3]
acGUI_FontLubalGraph16B_0077
                        0x0802df98     0x2c  Data  Gb  ST_Fonts.o [3]
acGUI_FontLubalGraph16B_0078
                        0x0802dfc4     0x1c  Data  Gb  ST_Fonts.o [3]
acGUI_FontLubalGraph16B_0079
                        0x0802dfe0     0x24  Data  Gb  ST_Fonts.o [3]
acGUI_FontLubalGraph16B_007A
                        0x0802e004     0x18  Data  Gb  ST_Fonts.o [3]
acGUI_FontLubalGraph16B_007B
                        0x0802e01c     0x18  Data  Gb  ST_Fonts.o [3]
acGUI_FontLubalGraph16B_007C
                        0x0802e034     0x10  Data  Gb  ST_Fonts.o [3]
acGUI_FontLubalGraph16B_007D
                        0x0802e044     0x18  Data  Gb  ST_Fonts.o [3]
acGUI_FontLubalGraph16B_007E
                        0x0802e05c      0xc  Data  Gb  ST_Fonts.o [3]
acGUI_FontLubalGraph16B_00A0
                        0x0802e068      0x1  Data  Gb  ST_Fonts.o [3]
acGUI_FontLubalGraph16B_00A1
                        0x0802e06c      0xc  Data  Gb  ST_Fonts.o [3]
acGUI_FontLubalGraph16B_00A2
                        0x0802e078     0x1c  Data  Gb  ST_Fonts.o [3]
acGUI_FontLubalGraph16B_00A3
                        0x0802e094     0x24  Data  Gb  ST_Fonts.o [3]
acGUI_FontLubalGraph16B_00A4
                        0x0802e0b8     0x18  Data  Gb  ST_Fonts.o [3]
acGUI_FontLubalGraph16B_00A5
                        0x0802e0d0     0x24  Data  Gb  ST_Fonts.o [3]
acGUI_FontLubalGraph16B_00A6
                        0x0802e0f4      0xc  Data  Gb  ST_Fonts.o [3]
acGUI_FontLubalGraph16B_00A7
                        0x0802e100     0x24  Data  Gb  ST_Fonts.o [3]
acGUI_FontLubalGraph16B_00A8
                        0x0802e124      0x4  Data  Gb  ST_Fonts.o [3]
acGUI_FontLubalGraph16B_00A9
                        0x0802e128     0x30  Data  Gb  ST_Fonts.o [3]
acGUI_FontLubalGraph16B_00AA
                        0x0802e158      0xc  Data  Gb  ST_Fonts.o [3]
acGUI_FontLubalGraph16B_00AB
                        0x0802e164      0xc  Data  Gb  ST_Fonts.o [3]
acGUI_FontLubalGraph16B_00AC
                        0x0802e170     0x10  Data  Gb  ST_Fonts.o [3]
acGUI_FontLubalGraph16B_00AD
                        0x0802e180      0x4  Data  Gb  ST_Fonts.o [3]
acGUI_FontLubalGraph16B_00AE
                        0x0802e184     0x30  Data  Gb  ST_Fonts.o [3]
acGUI_FontLubalGraph16B_00AF
                        0x0802e1b4      0x8  Data  Gb  ST_Fonts.o [3]
acGUI_FontLubalGraph16B_00B0
                        0x0802e1bc      0x8  Data  Gb  ST_Fonts.o [3]
acGUI_FontLubalGraph16B_00B1
                        0x0802e1c4     0x1c  Data  Gb  ST_Fonts.o [3]
acGUI_FontLubalGraph16B_00B2
                        0x0802e1e0      0xc  Data  Gb  ST_Fonts.o [3]
acGUI_FontLubalGraph16B_00B3
                        0x0802e1ec      0xc  Data  Gb  ST_Fonts.o [3]
acGUI_FontLubalGraph16B_00B4
                        0x0802e1f8      0x8  Data  Gb  ST_Fonts.o [3]
acGUI_FontLubalGraph16B_00B5
                        0x0802e200     0x24  Data  Gb  ST_Fonts.o [3]
acGUI_FontLubalGraph16B_00B6
                        0x0802e224     0x2c  Data  Gb  ST_Fonts.o [3]
acGUI_FontLubalGraph16B_00B7
                        0x0802e250      0x2  Data  Gb  ST_Fonts.o [3]
acGUI_FontLubalGraph16B_00B8
                        0x0802e254      0x8  Data  Gb  ST_Fonts.o [3]
acGUI_FontLubalGraph16B_00B9
                        0x0802e25c      0xc  Data  Gb  ST_Fonts.o [3]
acGUI_FontLubalGraph16B_00BA
                        0x0802e268      0x8  Data  Gb  ST_Fonts.o [3]
acGUI_FontLubalGraph16B_00BB
                        0x0802e270      0xc  Data  Gb  ST_Fonts.o [3]
acGUI_FontLubalGraph16B_00BC
                        0x0802e27c     0x30  Data  Gb  ST_Fonts.o [3]
acGUI_FontLubalGraph16B_00BD
                        0x0802e2ac     0x30  Data  Gb  ST_Fonts.o [3]
acGUI_FontLubalGraph16B_00BE
                        0x0802e2dc     0x38  Data  Gb  ST_Fonts.o [3]
acGUI_FontLubalGraph16B_00BF
                        0x0802e314     0x1c  Data  Gb  ST_Fonts.o [3]
acGUI_FontLubalGraph16B_00C0
                        0x0802e330     0x44  Data  Gb  ST_Fonts.o [3]
acGUI_FontLubalGraph16B_00C1
                        0x0802e374     0x44  Data  Gb  ST_Fonts.o [3]
acGUI_FontLubalGraph16B_00C2
                        0x0802e3b8     0x3c  Data  Gb  ST_Fonts.o [3]
acGUI_FontLubalGraph16B_00C3
                        0x0802e3f4     0x3c  Data  Gb  ST_Fonts.o [3]
acGUI_FontLubalGraph16B_00C4
                        0x0802e430     0x38  Data  Gb  ST_Fonts.o [3]
acGUI_FontLubalGraph16B_00C5
                        0x0802e468     0x44  Data  Gb  ST_Fonts.o [3]
acGUI_FontLubalGraph16B_00C6
                        0x0802e4ac     0x38  Data  Gb  ST_Fonts.o [3]
acGUI_FontLubalGraph16B_00C7
                        0x0802e4e4     0x3c  Data  Gb  ST_Fonts.o [3]
acGUI_FontLubalGraph16B_00C8
                        0x0802e520     0x34  Data  Gb  ST_Fonts.o [3]
acGUI_FontLubalGraph16B_00C9
                        0x0802e554     0x34  Data  Gb  ST_Fonts.o [3]
acGUI_FontLubalGraph16B_00CA
                        0x0802e588     0x30  Data  Gb  ST_Fonts.o [3]
acGUI_FontLubalGraph16B_00CB
                        0x0802e5b8     0x30  Data  Gb  ST_Fonts.o [3]
acGUI_FontLubalGraph16B_00CC
                        0x0802e5e8     0x1c  Data  Gb  ST_Fonts.o [3]
acGUI_FontLubalGraph16B_00CD
                        0x0802e604     0x1c  Data  Gb  ST_Fonts.o [3]
acGUI_FontLubalGraph16B_00CE
                        0x0802e620     0x24  Data  Gb  ST_Fonts.o [3]
acGUI_FontLubalGraph16B_00CF
                        0x0802e644     0x18  Data  Gb  ST_Fonts.o [3]
acGUI_FontLubalGraph16B_00D0
                        0x0802e65c     0x30  Data  Gb  ST_Fonts.o [3]
acGUI_FontLubalGraph16B_00D1
                        0x0802e68c     0x3c  Data  Gb  ST_Fonts.o [3]
acGUI_FontLubalGraph16B_00D2
                        0x0802e6c8     0x44  Data  Gb  ST_Fonts.o [3]
acGUI_FontLubalGraph16B_00D3
                        0x0802e70c     0x44  Data  Gb  ST_Fonts.o [3]
acGUI_FontLubalGraph16B_00D4
                        0x0802e750     0x3c  Data  Gb  ST_Fonts.o [3]
acGUI_FontLubalGraph16B_00D5
                        0x0802e78c     0x3c  Data  Gb  ST_Fonts.o [3]
acGUI_FontLubalGraph16B_00D6
                        0x0802e7c8     0x38  Data  Gb  ST_Fonts.o [3]
acGUI_FontLubalGraph16B_00D7
                        0x0802e800     0x14  Data  Gb  ST_Fonts.o [3]
acGUI_FontLubalGraph16B_00D8
                        0x0802e814     0x38  Data  Gb  ST_Fonts.o [3]
acGUI_FontLubalGraph16B_00D9
                        0x0802e84c     0x44  Data  Gb  ST_Fonts.o [3]
acGUI_FontLubalGraph16B_00DA
                        0x0802e890     0x44  Data  Gb  ST_Fonts.o [3]
acGUI_FontLubalGraph16B_00DB
                        0x0802e8d4     0x3c  Data  Gb  ST_Fonts.o [3]
acGUI_FontLubalGraph16B_00DC
                        0x0802e910     0x38  Data  Gb  ST_Fonts.o [3]
acGUI_FontLubalGraph16B_00DD
                        0x0802e948     0x34  Data  Gb  ST_Fonts.o [3]
acGUI_FontLubalGraph16B_00DE
                        0x0802e97c     0x24  Data  Gb  ST_Fonts.o [3]
acGUI_FontLubalGraph16B_00DF
                        0x0802e9a0     0x24  Data  Gb  ST_Fonts.o [3]
acGUI_FontLubalGraph16B_00E0
                        0x0802e9c4     0x2c  Data  Gb  ST_Fonts.o [3]
acGUI_FontLubalGraph16B_00E1
                        0x0802e9f0     0x2c  Data  Gb  ST_Fonts.o [3]
acGUI_FontLubalGraph16B_00E2
                        0x0802ea1c     0x28  Data  Gb  ST_Fonts.o [3]
acGUI_FontLubalGraph16B_00E3
                        0x0802ea44     0x28  Data  Gb  ST_Fonts.o [3]
acGUI_FontLubalGraph16B_00E4
                        0x0802ea6c     0x24  Data  Gb  ST_Fonts.o [3]
acGUI_FontLubalGraph16B_00E5
                        0x0802ea90     0x28  Data  Gb  ST_Fonts.o [3]
acGUI_FontLubalGraph16B_00E6
                        0x0802eab8     0x34  Data  Gb  ST_Fonts.o [3]
acGUI_FontLubalGraph16B_00E7
                        0x0802eaec     0x28  Data  Gb  ST_Fonts.o [3]
acGUI_FontLubalGraph16B_00E8
                        0x0802eb14     0x2c  Data  Gb  ST_Fonts.o [3]
acGUI_FontLubalGraph16B_00E9
                        0x0802eb40     0x2c  Data  Gb  ST_Fonts.o [3]
acGUI_FontLubalGraph16B_00EA
                        0x0802eb6c     0x28  Data  Gb  ST_Fonts.o [3]
acGUI_FontLubalGraph16B_00EB
                        0x0802eb94     0x30  Data  Gb  ST_Fonts.o [3]
acGUI_FontLubalGraph16B_00EC
                        0x0802ebc4     0x24  Data  Gb  ST_Fonts.o [3]
acGUI_FontLubalGraph16B_00ED
                        0x0802ebe8     0x24  Data  Gb  ST_Fonts.o [3]
acGUI_FontLubalGraph16B_00EE
                        0x0802ec0c     0x20  Data  Gb  ST_Fonts.o [3]
acGUI_FontLubalGraph16B_00EF
                        0x0802ec2c     0x14  Data  Gb  ST_Fonts.o [3]
acGUI_FontLubalGraph16B_00F0
                        0x0802ec40     0x24  Data  Gb  ST_Fonts.o [3]
acGUI_FontLubalGraph16B_00F1
                        0x0802ec64     0x28  Data  Gb  ST_Fonts.o [3]
acGUI_FontLubalGraph16B_00F2
                        0x0802ec8c     0x2c  Data  Gb  ST_Fonts.o [3]
acGUI_FontLubalGraph16B_00F3
                        0x0802ecb8     0x2c  Data  Gb  ST_Fonts.o [3]
acGUI_FontLubalGraph16B_00F4
                        0x0802ece4     0x28  Data  Gb  ST_Fonts.o [3]
acGUI_FontLubalGraph16B_00F5
                        0x0802ed0c     0x28  Data  Gb  ST_Fonts.o [3]
acGUI_FontLubalGraph16B_00F6
                        0x0802ed34     0x24  Data  Gb  ST_Fonts.o [3]
acGUI_FontLubalGraph16B_00F7
                        0x0802ed58     0x18  Data  Gb  ST_Fonts.o [3]
acGUI_FontLubalGraph16B_00F8
                        0x0802ed70     0x24  Data  Gb  ST_Fonts.o [3]
acGUI_FontLubalGraph16B_00F9
                        0x0802ed94     0x2c  Data  Gb  ST_Fonts.o [3]
acGUI_FontLubalGraph16B_00FA
                        0x0802edc0     0x2c  Data  Gb  ST_Fonts.o [3]
acGUI_FontLubalGraph16B_00FB
                        0x0802edec     0x28  Data  Gb  ST_Fonts.o [3]
acGUI_FontLubalGraph16B_00FC
                        0x0802ee14     0x24  Data  Gb  ST_Fonts.o [3]
acGUI_FontLubalGraph16B_00FD
                        0x0802ee38     0x34  Data  Gb  ST_Fonts.o [3]
acGUI_FontLubalGraph16B_00FE
                        0x0802ee6c     0x2c  Data  Gb  ST_Fonts.o [3]
acGUI_FontLubalGraph16B_00FF
                        0x0802ee98     0x2c  Data  Gb  ST_Fonts.o [3]
acGUI_FontLubalGraph16B_0131
                        0x0802eec4     0x10  Data  Gb  ST_Fonts.o [3]
acGUI_FontLubalGraph16B_0141
                        0x0802eed4     0x24  Data  Gb  ST_Fonts.o [3]
acGUI_FontLubalGraph16B_0142
                        0x0802eef8     0x1c  Data  Gb  ST_Fonts.o [3]
acGUI_FontLubalGraph16B_0152
                        0x0802ef14     0x40  Data  Gb  ST_Fonts.o [3]
acGUI_FontLubalGraph16B_0153
                        0x0802ef54     0x34  Data  Gb  ST_Fonts.o [3]
acGUI_FontLubalGraph16B_0160
                        0x0802ef88     0x24  Data  Gb  ST_Fonts.o [3]
acGUI_FontLubalGraph16B_0161
                        0x0802efac     0x28  Data  Gb  ST_Fonts.o [3]
acGUI_FontLubalGraph16B_0178
                        0x0802efd4     0x38  Data  Gb  ST_Fonts.o [3]
acGUI_FontLubalGraph16B_017D
                        0x0802f00c     0x30  Data  Gb  ST_Fonts.o [3]
acGUI_FontLubalGraph16B_017E
                        0x0802f03c     0x20  Data  Gb  ST_Fonts.o [3]
acGUI_FontLubalGraph16B_0192
                        0x0802f05c     0x24  Data  Gb  ST_Fonts.o [3]
acGUI_FontLubalGraph16B_02C6
                        0x0802f080      0x8  Data  Gb  ST_Fonts.o [3]
acGUI_FontLubalGraph16B_02C7
                        0x0802f088      0xc  Data  Gb  ST_Fonts.o [3]
acGUI_FontLubalGraph16B_02C9
                        0x0802f094      0x8  Data  Gb  ST_Fonts.o [3]
acGUI_FontLubalGraph16B_02D8
                        0x0802f09c      0xc  Data  Gb  ST_Fonts.o [3]
acGUI_FontLubalGraph16B_02D9
                        0x0802f0a8      0x2  Data  Gb  ST_Fonts.o [3]
acGUI_FontLubalGraph16B_02DA
                        0x0802f0ac      0x8  Data  Gb  ST_Fonts.o [3]
acGUI_FontLubalGraph16B_02DB
                        0x0802f0b4      0x4  Data  Gb  ST_Fonts.o [3]
acGUI_FontLubalGraph16B_02DC
                        0x0802f0b8      0xc  Data  Gb  ST_Fonts.o [3]
acGUI_FontLubalGraph16B_02DD
                        0x0802f0c4      0xc  Data  Gb  ST_Fonts.o [3]
acGUI_FontLubalGraph16B_03A9
                        0x0802f0d0     0x30  Data  Gb  ST_Fonts.o [3]
acGUI_FontLubalGraph16B_03BC
                        0x0802f100     0x24  Data  Gb  ST_Fonts.o [3]
acGUI_FontLubalGraph16B_03C0
                        0x0802f124     0x24  Data  Gb  ST_Fonts.o [3]
acGUI_FontLubalGraph16B_2010
                        0x0802f148      0x4  Data  Gb  ST_Fonts.o [3]
acGUI_FontLubalGraph16B_2013
                        0x0802f14c      0x8  Data  Gb  ST_Fonts.o [3]
acGUI_FontLubalGraph16B_2014
                        0x0802f154     0x10  Data  Gb  ST_Fonts.o [3]
acGUI_FontLubalGraph16B_2018
                        0x0802f164      0x4  Data  Gb  ST_Fonts.o [3]
acGUI_FontLubalGraph16B_2019
                        0x0802f168      0x4  Data  Gb  ST_Fonts.o [3]
acGUI_FontLubalGraph16B_201A
                        0x0802f16c      0x4  Data  Gb  ST_Fonts.o [3]
acGUI_FontLubalGraph16B_201C
                        0x0802f170      0x8  Data  Gb  ST_Fonts.o [3]
acGUI_FontLubalGraph16B_201D
                        0x0802f178      0x8  Data  Gb  ST_Fonts.o [3]
acGUI_FontLubalGraph16B_201E
                        0x0802f180      0x8  Data  Gb  ST_Fonts.o [3]
acGUI_FontLubalGraph16B_2020
                        0x0802f188     0x2c  Data  Gb  ST_Fonts.o [3]
acGUI_FontLubalGraph16B_2021
                        0x0802f1b4     0x2c  Data  Gb  ST_Fonts.o [3]
acGUI_FontLubalGraph16B_2022
                        0x0802f1e0      0xc  Data  Gb  ST_Fonts.o [3]
acGUI_FontLubalGraph16B_2026
                        0x0802f1ec      0xc  Data  Gb  ST_Fonts.o [3]
acGUI_FontLubalGraph16B_2030
                        0x0802f1f8     0x48  Data  Gb  ST_Fonts.o [3]
acGUI_FontLubalGraph16B_2039
                        0x0802f240      0x8  Data  Gb  ST_Fonts.o [3]
acGUI_FontLubalGraph16B_203A
                        0x0802f248      0x8  Data  Gb  ST_Fonts.o [3]
acGUI_FontLubalGraph16B_2044
                        0x0802f250     0x1c  Data  Gb  ST_Fonts.o [3]
acGUI_FontLubalGraph16B_20AC
                        0x0802f26c     0x24  Data  Gb  ST_Fonts.o [3]
acGUI_FontLubalGraph16B_2113
                        0x0802f290     0x20  Data  Gb  ST_Fonts.o [3]
acGUI_FontLubalGraph16B_2122
                        0x0802f2b0     0x20  Data  Gb  ST_Fonts.o [3]
acGUI_FontLubalGraph16B_2126
                        0x0802f2d0     0x30  Data  Gb  ST_Fonts.o [3]
acGUI_FontLubalGraph16B_212E
                        0x0802f300     0x38  Data  Gb  ST_Fonts.o [3]
acGUI_FontLubalGraph16B_2202
                        0x0802f338     0x28  Data  Gb  ST_Fonts.o [3]
acGUI_FontLubalGraph16B_2206
                        0x0802f360     0x24  Data  Gb  ST_Fonts.o [3]
acGUI_FontLubalGraph16B_220F
                        0x0802f384     0x44  Data  Gb  ST_Fonts.o [3]
acGUI_FontLubalGraph16B_2211
                        0x0802f3c8     0x28  Data  Gb  ST_Fonts.o [3]
acGUI_FontLubalGraph16B_2212
                        0x0802f3f0      0x8  Data  Gb  ST_Fonts.o [3]
acGUI_FontLubalGraph16B_2215
                        0x0802f3f8     0x1c  Data  Gb  ST_Fonts.o [3]
acGUI_FontLubalGraph16B_2219
                        0x0802f414      0x2  Data  Gb  ST_Fonts.o [3]
acGUI_FontLubalGraph16B_221A
                        0x0802f418     0x34  Data  Gb  ST_Fonts.o [3]
acGUI_FontLubalGraph16B_221E
                        0x0802f44c     0x14  Data  Gb  ST_Fonts.o [3]
acGUI_FontLubalGraph16B_222B
                        0x0802f460     0x28  Data  Gb  ST_Fonts.o [3]
acGUI_FontLubalGraph16B_2248
                        0x0802f488     0x10  Data  Gb  ST_Fonts.o [3]
acGUI_FontLubalGraph16B_2260
                        0x0802f498     0x18  Data  Gb  ST_Fonts.o [3]
acGUI_FontLubalGraph16B_2264
                        0x0802f4b0     0x18  Data  Gb  ST_Fonts.o [3]
acGUI_FontLubalGraph16B_2265
                        0x0802f4c8     0x18  Data  Gb  ST_Fonts.o [3]
acGUI_FontLubalGraph16B_25CA
                        0x0802f4e0     0x28  Data  Gb  ST_Fonts.o [3]
acGUI_FontLubalGraph16B_FB01
                        0x0802f508     0x24  Data  Gb  ST_Fonts.o [3]
acGUI_FontLubalGraph16B_FB02
                        0x0802f52c     0x24  Data  Gb  ST_Fonts.o [3]
acGUI_FontLubalGraph16B_FFFF
                        0x0802f550     0x1c  Data  Gb  ST_Fonts.o [3]
acGUI_FontLubalGraph16_0020
                        0x0802a5ac      0x1  Data  Gb  ST_Fonts.o [3]
acGUI_FontLubalGraph16_0021
                        0x0802a5b0      0xc  Data  Gb  ST_Fonts.o [3]
acGUI_FontLubalGraph16_0022
                        0x0802a5bc      0x4  Data  Gb  ST_Fonts.o [3]
acGUI_FontLubalGraph16_0023
                        0x0802a5c0     0x28  Data  Gb  ST_Fonts.o [3]
acGUI_FontLubalGraph16_0024
                        0x0802a5e8     0x28  Data  Gb  ST_Fonts.o [3]
acGUI_FontLubalGraph16_0025
                        0x0802a610     0x34  Data  Gb  ST_Fonts.o [3]
acGUI_FontLubalGraph16_0026
                        0x0802a644     0x34  Data  Gb  ST_Fonts.o [3]
acGUI_FontLubalGraph16_0027
                        0x0802a678      0x4  Data  Gb  ST_Fonts.o [3]
acGUI_FontLubalGraph16_0028
                        0x0802a67c     0x18  Data  Gb  ST_Fonts.o [3]
acGUI_FontLubalGraph16_0029
                        0x0802a694     0x18  Data  Gb  ST_Fonts.o [3]
acGUI_FontLubalGraph16_002A
                        0x0802a6ac      0x8  Data  Gb  ST_Fonts.o [3]
acGUI_FontLubalGraph16_002B
                        0x0802a6b4     0x1c  Data  Gb  ST_Fonts.o [3]
acGUI_FontLubalGraph16_002C
                        0x0802a6d0      0x4  Data  Gb  ST_Fonts.o [3]
acGUI_FontLubalGraph16_002D
                        0x0802a6d4      0x2  Data  Gb  ST_Fonts.o [3]
acGUI_FontLubalGraph16_002E
                        0x0802a6d6      0x2  Data  Gb  ST_Fonts.o [3]
acGUI_FontLubalGraph16_002F
                        0x0802a6d8     0x34  Data  Gb  ST_Fonts.o [3]
acGUI_FontLubalGraph16_0030
                        0x0802a70c     0x20  Data  Gb  ST_Fonts.o [3]
acGUI_FontLubalGraph16_0031
                        0x0802a72c     0x20  Data  Gb  ST_Fonts.o [3]
acGUI_FontLubalGraph16_0032
                        0x0802a74c     0x20  Data  Gb  ST_Fonts.o [3]
acGUI_FontLubalGraph16_0033
                        0x0802a76c     0x20  Data  Gb  ST_Fonts.o [3]
acGUI_FontLubalGraph16_0034
                        0x0802a78c     0x28  Data  Gb  ST_Fonts.o [3]
acGUI_FontLubalGraph16_0035
                        0x0802a7b4     0x28  Data  Gb  ST_Fonts.o [3]
acGUI_FontLubalGraph16_0036
                        0x0802a7dc     0x28  Data  Gb  ST_Fonts.o [3]
acGUI_FontLubalGraph16_0037
                        0x0802a804     0x20  Data  Gb  ST_Fonts.o [3]
acGUI_FontLubalGraph16_0038
                        0x0802a824     0x20  Data  Gb  ST_Fonts.o [3]
acGUI_FontLubalGraph16_0039
                        0x0802a844     0x28  Data  Gb  ST_Fonts.o [3]
acGUI_FontLubalGraph16_003A
                        0x0802a86c      0x8  Data  Gb  ST_Fonts.o [3]
acGUI_FontLubalGraph16_003B
                        0x0802a874      0x8  Data  Gb  ST_Fonts.o [3]
acGUI_FontLubalGraph16_003C
                        0x0802a87c     0x20  Data  Gb  ST_Fonts.o [3]
acGUI_FontLubalGraph16_003D
                        0x0802a89c      0xc  Data  Gb  ST_Fonts.o [3]
acGUI_FontLubalGraph16_003E
                        0x0802a8a8     0x20  Data  Gb  ST_Fonts.o [3]
acGUI_FontLubalGraph16_003F
                        0x0802a8c8     0x20  Data  Gb  ST_Fonts.o [3]
acGUI_FontLubalGraph16_0040
                        0x0802a8e8     0x34  Data  Gb  ST_Fonts.o [3]
acGUI_FontLubalGraph16_0041
                        0x0802a91c     0x34  Data  Gb  ST_Fonts.o [3]
acGUI_FontLubalGraph16_0042
                        0x0802a950     0x20  Data  Gb  ST_Fonts.o [3]
acGUI_FontLubalGraph16_0043
                        0x0802a970     0x34  Data  Gb  ST_Fonts.o [3]
acGUI_FontLubalGraph16_0044
                        0x0802a9a4     0x28  Data  Gb  ST_Fonts.o [3]
acGUI_FontLubalGraph16_0045
                        0x0802a9cc     0x20  Data  Gb  ST_Fonts.o [3]
acGUI_FontLubalGraph16_0046
                        0x0802a9ec     0x20  Data  Gb  ST_Fonts.o [3]
acGUI_FontLubalGraph16_0047
                        0x0802aa0c     0x34  Data  Gb  ST_Fonts.o [3]
acGUI_FontLubalGraph16_0048
                        0x0802aa40     0x28  Data  Gb  ST_Fonts.o [3]
acGUI_FontLubalGraph16_0049
                        0x0802aa68     0x14  Data  Gb  ST_Fonts.o [3]
acGUI_FontLubalGraph16_004A
                        0x0802aa7c     0x20  Data  Gb  ST_Fonts.o [3]
acGUI_FontLubalGraph16_004B
                        0x0802aa9c     0x28  Data  Gb  ST_Fonts.o [3]
acGUI_FontLubalGraph16_004C
                        0x0802aac4     0x20  Data  Gb  ST_Fonts.o [3]
acGUI_FontLubalGraph16_004D
                        0x0802aae4     0x3c  Data  Gb  ST_Fonts.o [3]
acGUI_FontLubalGraph16_004E
                        0x0802ab20     0x34  Data  Gb  ST_Fonts.o [3]
acGUI_FontLubalGraph16_004F
                        0x0802ab54     0x34  Data  Gb  ST_Fonts.o [3]
acGUI_FontLubalGraph16_0050
                        0x0802ab88     0x20  Data  Gb  ST_Fonts.o [3]
acGUI_FontLubalGraph16_0051
                        0x0802aba8     0x3c  Data  Gb  ST_Fonts.o [3]
acGUI_FontLubalGraph16_0052
                        0x0802abe4     0x28  Data  Gb  ST_Fonts.o [3]
acGUI_FontLubalGraph16_0053
                        0x0802ac0c     0x20  Data  Gb  ST_Fonts.o [3]
acGUI_FontLubalGraph16_0054
                        0x0802ac2c     0x28  Data  Gb  ST_Fonts.o [3]
acGUI_FontLubalGraph16_0055
                        0x0802ac54     0x28  Data  Gb  ST_Fonts.o [3]
acGUI_FontLubalGraph16_0056
                        0x0802ac7c     0x34  Data  Gb  ST_Fonts.o [3]
acGUI_FontLubalGraph16_0057
                        0x0802acb0     0x48  Data  Gb  ST_Fonts.o [3]
acGUI_FontLubalGraph16_0058
                        0x0802acf8     0x34  Data  Gb  ST_Fonts.o [3]
acGUI_FontLubalGraph16_0059
                        0x0802ad2c     0x34  Data  Gb  ST_Fonts.o [3]
acGUI_FontLubalGraph16_005A
                        0x0802ad60     0x28  Data  Gb  ST_Fonts.o [3]
acGUI_FontLubalGraph16_005B
                        0x0802ad88     0x18  Data  Gb  ST_Fonts.o [3]
acGUI_FontLubalGraph16_005C
                        0x0802ada0     0x20  Data  Gb  ST_Fonts.o [3]
acGUI_FontLubalGraph16_005D
                        0x0802adc0     0x18  Data  Gb  ST_Fonts.o [3]
acGUI_FontLubalGraph16_005E
                        0x0802add8     0x1c  Data  Gb  ST_Fonts.o [3]
acGUI_FontLubalGraph16_005F
                        0x0802adf4      0x4  Data  Gb  ST_Fonts.o [3]
acGUI_FontLubalGraph16_0060
                        0x0802adf8      0x8  Data  Gb  ST_Fonts.o [3]
acGUI_FontLubalGraph16_0061
                        0x0802ae00     0x1c  Data  Gb  ST_Fonts.o [3]
acGUI_FontLubalGraph16_0062
                        0x0802ae1c     0x34  Data  Gb  ST_Fonts.o [3]
acGUI_FontLubalGraph16_0063
                        0x0802ae50     0x1c  Data  Gb  ST_Fonts.o [3]
acGUI_FontLubalGraph16_0064
                        0x0802ae6c     0x28  Data  Gb  ST_Fonts.o [3]
acGUI_FontLubalGraph16_0065
                        0x0802ae94     0x1c  Data  Gb  ST_Fonts.o [3]
acGUI_FontLubalGraph16_0066
                        0x0802aeb0     0x14  Data  Gb  ST_Fonts.o [3]
acGUI_FontLubalGraph16_0067
                        0x0802aec4     0x28  Data  Gb  ST_Fonts.o [3]
acGUI_FontLubalGraph16_0068
                        0x0802aeec     0x28  Data  Gb  ST_Fonts.o [3]
acGUI_FontLubalGraph16_0069
                        0x0802af14     0x14  Data  Gb  ST_Fonts.o [3]
acGUI_FontLubalGraph16_006A
                        0x0802af28     0x1c  Data  Gb  ST_Fonts.o [3]
acGUI_FontLubalGraph16_006B
                        0x0802af44     0x28  Data  Gb  ST_Fonts.o [3]
acGUI_FontLubalGraph16_006C
                        0x0802af6c     0x14  Data  Gb  ST_Fonts.o [3]
acGUI_FontLubalGraph16_006D
                        0x0802af80     0x34  Data  Gb  ST_Fonts.o [3]
acGUI_FontLubalGraph16_006E
                        0x0802afb4     0x1c  Data  Gb  ST_Fonts.o [3]
acGUI_FontLubalGraph16_006F
                        0x0802afd0     0x1c  Data  Gb  ST_Fonts.o [3]
acGUI_FontLubalGraph16_0070
                        0x0802afec     0x34  Data  Gb  ST_Fonts.o [3]
acGUI_FontLubalGraph16_0071
                        0x0802b020     0x28  Data  Gb  ST_Fonts.o [3]
acGUI_FontLubalGraph16_0072
                        0x0802b048     0x10  Data  Gb  ST_Fonts.o [3]
acGUI_FontLubalGraph16_0073
                        0x0802b058     0x18  Data  Gb  ST_Fonts.o [3]
acGUI_FontLubalGraph16_0074
                        0x0802b070     0x20  Data  Gb  ST_Fonts.o [3]
acGUI_FontLubalGraph16_0075
                        0x0802b090     0x1c  Data  Gb  ST_Fonts.o [3]
acGUI_FontLubalGraph16_0076
                        0x0802b0ac     0x1c  Data  Gb  ST_Fonts.o [3]
acGUI_FontLubalGraph16_0077
                        0x0802b0c8     0x2c  Data  Gb  ST_Fonts.o [3]
acGUI_FontLubalGraph16_0078
                        0x0802b0f4     0x1c  Data  Gb  ST_Fonts.o [3]
acGUI_FontLubalGraph16_0079
                        0x0802b110     0x28  Data  Gb  ST_Fonts.o [3]
acGUI_FontLubalGraph16_007A
                        0x0802b138     0x18  Data  Gb  ST_Fonts.o [3]
acGUI_FontLubalGraph16_007B
                        0x0802b150     0x18  Data  Gb  ST_Fonts.o [3]
acGUI_FontLubalGraph16_007C
                        0x0802b168     0x10  Data  Gb  ST_Fonts.o [3]
acGUI_FontLubalGraph16_007D
                        0x0802b178     0x18  Data  Gb  ST_Fonts.o [3]
acGUI_FontLubalGraph16_007E
                        0x0802b190      0x8  Data  Gb  ST_Fonts.o [3]
acGUI_FontLubalGraph16_00A0
                        0x0802b198      0x1  Data  Gb  ST_Fonts.o [3]
acGUI_FontLubalGraph16_00A1
                        0x0802b19c      0xc  Data  Gb  ST_Fonts.o [3]
acGUI_FontLubalGraph16_00A2
                        0x0802b1a8     0x1c  Data  Gb  ST_Fonts.o [3]
acGUI_FontLubalGraph16_00A3
                        0x0802b1c4     0x28  Data  Gb  ST_Fonts.o [3]
acGUI_FontLubalGraph16_00A4
                        0x0802b1ec     0x18  Data  Gb  ST_Fonts.o [3]
acGUI_FontLubalGraph16_00A5
                        0x0802b204     0x28  Data  Gb  ST_Fonts.o [3]
acGUI_FontLubalGraph16_00A6
                        0x0802b22c      0xc  Data  Gb  ST_Fonts.o [3]
acGUI_FontLubalGraph16_00A7
                        0x0802b238     0x24  Data  Gb  ST_Fonts.o [3]
acGUI_FontLubalGraph16_00A8
                        0x0802b25c      0x4  Data  Gb  ST_Fonts.o [3]
acGUI_FontLubalGraph16_00A9
                        0x0802b260     0x34  Data  Gb  ST_Fonts.o [3]
acGUI_FontLubalGraph16_00AA
                        0x0802b294     0x10  Data  Gb  ST_Fonts.o [3]
acGUI_FontLubalGraph16_00AB
                        0x0802b2a4      0xc  Data  Gb  ST_Fonts.o [3]
acGUI_FontLubalGraph16_00AC
                        0x0802b2b0     0x14  Data  Gb  ST_Fonts.o [3]
acGUI_FontLubalGraph16_00AD
                        0x0802b2c4      0x2  Data  Gb  ST_Fonts.o [3]
acGUI_FontLubalGraph16_00AE
                        0x0802b2c8     0x34  Data  Gb  ST_Fonts.o [3]
acGUI_FontLubalGraph16_00AF
                        0x0802b2fc      0x4  Data  Gb  ST_Fonts.o [3]
acGUI_FontLubalGraph16_00B0
                        0x0802b300      0xc  Data  Gb  ST_Fonts.o [3]
acGUI_FontLubalGraph16_00B1
                        0x0802b30c     0x1c  Data  Gb  ST_Fonts.o [3]
acGUI_FontLubalGraph16_00B2
                        0x0802b328     0x10  Data  Gb  ST_Fonts.o [3]
acGUI_FontLubalGraph16_00B3
                        0x0802b338     0x10  Data  Gb  ST_Fonts.o [3]
acGUI_FontLubalGraph16_00B4
                        0x0802b348      0x8  Data  Gb  ST_Fonts.o [3]
acGUI_FontLubalGraph16_00B5
                        0x0802b350     0x28  Data  Gb  ST_Fonts.o [3]
acGUI_FontLubalGraph16_00B6
                        0x0802b378     0x24  Data  Gb  ST_Fonts.o [3]
acGUI_FontLubalGraph16_00B7
                        0x0802b39c      0x2  Data  Gb  ST_Fonts.o [3]
acGUI_FontLubalGraph16_00B8
                        0x0802b3a0      0x8  Data  Gb  ST_Fonts.o [3]
acGUI_FontLubalGraph16_00B9
                        0x0802b3a8     0x10  Data  Gb  ST_Fonts.o [3]
acGUI_FontLubalGraph16_00BA
                        0x0802b3b8     0x10  Data  Gb  ST_Fonts.o [3]
acGUI_FontLubalGraph16_00BB
                        0x0802b3c8      0xc  Data  Gb  ST_Fonts.o [3]
acGUI_FontLubalGraph16_00BC
                        0x0802b3d4     0x3c  Data  Gb  ST_Fonts.o [3]
acGUI_FontLubalGraph16_00BD
                        0x0802b410     0x3c  Data  Gb  ST_Fonts.o [3]
acGUI_FontLubalGraph16_00BE
                        0x0802b44c     0x3c  Data  Gb  ST_Fonts.o [3]
acGUI_FontLubalGraph16_00BF
                        0x0802b488     0x20  Data  Gb  ST_Fonts.o [3]
acGUI_FontLubalGraph16_00C0
                        0x0802b4a8     0x44  Data  Gb  ST_Fonts.o [3]
acGUI_FontLubalGraph16_00C1
                        0x0802b4ec     0x44  Data  Gb  ST_Fonts.o [3]
acGUI_FontLubalGraph16_00C2
                        0x0802b530     0x3c  Data  Gb  ST_Fonts.o [3]
acGUI_FontLubalGraph16_00C3
                        0x0802b56c     0x44  Data  Gb  ST_Fonts.o [3]
acGUI_FontLubalGraph16_00C4
                        0x0802b5b0     0x3c  Data  Gb  ST_Fonts.o [3]
acGUI_FontLubalGraph16_00C5
                        0x0802b5ec     0x44  Data  Gb  ST_Fonts.o [3]
acGUI_FontLubalGraph16_00C6
                        0x0802b630     0x48  Data  Gb  ST_Fonts.o [3]
acGUI_FontLubalGraph16_00C7
                        0x0802b678     0x44  Data  Gb  ST_Fonts.o [3]
acGUI_FontLubalGraph16_00C8
                        0x0802b6bc     0x28  Data  Gb  ST_Fonts.o [3]
acGUI_FontLubalGraph16_00C9
                        0x0802b6e4     0x28  Data  Gb  ST_Fonts.o [3]
acGUI_FontLubalGraph16_00CA
                        0x0802b70c     0x24  Data  Gb  ST_Fonts.o [3]
acGUI_FontLubalGraph16_00CB
                        0x0802b730     0x24  Data  Gb  ST_Fonts.o [3]
acGUI_FontLubalGraph16_00CC
                        0x0802b754     0x1c  Data  Gb  ST_Fonts.o [3]
acGUI_FontLubalGraph16_00CD
                        0x0802b770     0x1c  Data  Gb  ST_Fonts.o [3]
acGUI_FontLubalGraph16_00CE
                        0x0802b78c     0x24  Data  Gb  ST_Fonts.o [3]
acGUI_FontLubalGraph16_00CF
                        0x0802b7b0     0x18  Data  Gb  ST_Fonts.o [3]
acGUI_FontLubalGraph16_00D0
                        0x0802b7c8     0x28  Data  Gb  ST_Fonts.o [3]
acGUI_FontLubalGraph16_00D1
                        0x0802b7f0     0x44  Data  Gb  ST_Fonts.o [3]
acGUI_FontLubalGraph16_00D2
                        0x0802b834     0x44  Data  Gb  ST_Fonts.o [3]
acGUI_FontLubalGraph16_00D3
                        0x0802b878     0x44  Data  Gb  ST_Fonts.o [3]
acGUI_FontLubalGraph16_00D4
                        0x0802b8bc     0x3c  Data  Gb  ST_Fonts.o [3]
acGUI_FontLubalGraph16_00D5
                        0x0802b8f8     0x44  Data  Gb  ST_Fonts.o [3]
acGUI_FontLubalGraph16_00D6
                        0x0802b93c     0x3c  Data  Gb  ST_Fonts.o [3]
acGUI_FontLubalGraph16_00D7
                        0x0802b978     0x14  Data  Gb  ST_Fonts.o [3]
acGUI_FontLubalGraph16_00D8
                        0x0802b98c     0x3c  Data  Gb  ST_Fonts.o [3]
acGUI_FontLubalGraph16_00D9
                        0x0802b9c8     0x34  Data  Gb  ST_Fonts.o [3]
acGUI_FontLubalGraph16_00DA
                        0x0802b9fc     0x34  Data  Gb  ST_Fonts.o [3]
acGUI_FontLubalGraph16_00DB
                        0x0802ba30     0x30  Data  Gb  ST_Fonts.o [3]
acGUI_FontLubalGraph16_00DC
                        0x0802ba60     0x30  Data  Gb  ST_Fonts.o [3]
acGUI_FontLubalGraph16_00DD
                        0x0802ba90     0x44  Data  Gb  ST_Fonts.o [3]
acGUI_FontLubalGraph16_00DE
                        0x0802bad4     0x20  Data  Gb  ST_Fonts.o [3]
acGUI_FontLubalGraph16_00DF
                        0x0802baf4     0x28  Data  Gb  ST_Fonts.o [3]
acGUI_FontLubalGraph16_00E0
                        0x0802bb1c     0x2c  Data  Gb  ST_Fonts.o [3]
acGUI_FontLubalGraph16_00E1
                        0x0802bb48     0x2c  Data  Gb  ST_Fonts.o [3]
acGUI_FontLubalGraph16_00E2
                        0x0802bb74     0x28  Data  Gb  ST_Fonts.o [3]
acGUI_FontLubalGraph16_00E3
                        0x0802bb9c     0x28  Data  Gb  ST_Fonts.o [3]
acGUI_FontLubalGraph16_00E4
                        0x0802bbc4     0x28  Data  Gb  ST_Fonts.o [3]
acGUI_FontLubalGraph16_00E5
                        0x0802bbec     0x28  Data  Gb  ST_Fonts.o [3]
acGUI_FontLubalGraph16_00E6
                        0x0802bc14     0x34  Data  Gb  ST_Fonts.o [3]
acGUI_FontLubalGraph16_00E7
                        0x0802bc48     0x28  Data  Gb  ST_Fonts.o [3]
acGUI_FontLubalGraph16_00E8
                        0x0802bc70     0x2c  Data  Gb  ST_Fonts.o [3]
acGUI_FontLubalGraph16_00E9
                        0x0802bc9c     0x2c  Data  Gb  ST_Fonts.o [3]
acGUI_FontLubalGraph16_00EA
                        0x0802bcc8     0x28  Data  Gb  ST_Fonts.o [3]
acGUI_FontLubalGraph16_00EB
                        0x0802bcf0     0x28  Data  Gb  ST_Fonts.o [3]
acGUI_FontLubalGraph16_00EC
                        0x0802bd18     0x18  Data  Gb  ST_Fonts.o [3]
acGUI_FontLubalGraph16_00ED
                        0x0802bd30     0x18  Data  Gb  ST_Fonts.o [3]
acGUI_FontLubalGraph16_00EE
                        0x0802bd48     0x20  Data  Gb  ST_Fonts.o [3]
acGUI_FontLubalGraph16_00EF
                        0x0802bd68     0x14  Data  Gb  ST_Fonts.o [3]
acGUI_FontLubalGraph16_00F0
                        0x0802bd7c     0x28  Data  Gb  ST_Fonts.o [3]
acGUI_FontLubalGraph16_00F1
                        0x0802bda4     0x28  Data  Gb  ST_Fonts.o [3]
acGUI_FontLubalGraph16_00F2
                        0x0802bdcc     0x2c  Data  Gb  ST_Fonts.o [3]
acGUI_FontLubalGraph16_00F3
                        0x0802bdf8     0x2c  Data  Gb  ST_Fonts.o [3]
acGUI_FontLubalGraph16_00F4
                        0x0802be24     0x28  Data  Gb  ST_Fonts.o [3]
acGUI_FontLubalGraph16_00F5
                        0x0802be4c     0x28  Data  Gb  ST_Fonts.o [3]
acGUI_FontLubalGraph16_00F6
                        0x0802be74     0x28  Data  Gb  ST_Fonts.o [3]
acGUI_FontLubalGraph16_00F7
                        0x0802be9c     0x18  Data  Gb  ST_Fonts.o [3]
acGUI_FontLubalGraph16_00F8
                        0x0802beb4     0x24  Data  Gb  ST_Fonts.o [3]
acGUI_FontLubalGraph16_00F9
                        0x0802bed8     0x2c  Data  Gb  ST_Fonts.o [3]
acGUI_FontLubalGraph16_00FA
                        0x0802bf04     0x2c  Data  Gb  ST_Fonts.o [3]
acGUI_FontLubalGraph16_00FB
                        0x0802bf30     0x28  Data  Gb  ST_Fonts.o [3]
acGUI_FontLubalGraph16_00FC
                        0x0802bf58     0x28  Data  Gb  ST_Fonts.o [3]
acGUI_FontLubalGraph16_00FD
                        0x0802bf80     0x38  Data  Gb  ST_Fonts.o [3]
acGUI_FontLubalGraph16_00FE
                        0x0802bfb8     0x44  Data  Gb  ST_Fonts.o [3]
acGUI_FontLubalGraph16_00FF
                        0x0802bffc     0x34  Data  Gb  ST_Fonts.o [3]
acGUI_FontLubalGraph16_0131
                        0x0802c030     0x10  Data  Gb  ST_Fonts.o [3]
acGUI_FontLubalGraph16_0141
                        0x0802c040     0x28  Data  Gb  ST_Fonts.o [3]
acGUI_FontLubalGraph16_0142
                        0x0802c068     0x14  Data  Gb  ST_Fonts.o [3]
acGUI_FontLubalGraph16_0152
                        0x0802c07c     0x48  Data  Gb  ST_Fonts.o [3]
acGUI_FontLubalGraph16_0153
                        0x0802c0c4     0x34  Data  Gb  ST_Fonts.o [3]
acGUI_FontLubalGraph16_0160
                        0x0802c0f8     0x24  Data  Gb  ST_Fonts.o [3]
acGUI_FontLubalGraph16_0161
                        0x0802c11c     0x20  Data  Gb  ST_Fonts.o [3]
acGUI_FontLubalGraph16_0178
                        0x0802c13c     0x3c  Data  Gb  ST_Fonts.o [3]
acGUI_FontLubalGraph16_017D
                        0x0802c178     0x30  Data  Gb  ST_Fonts.o [3]
acGUI_FontLubalGraph16_017E
                        0x0802c1a8     0x20  Data  Gb  ST_Fonts.o [3]
acGUI_FontLubalGraph16_0192
                        0x0802c1c8     0x24  Data  Gb  ST_Fonts.o [3]
acGUI_FontLubalGraph16_02C6
                        0x0802c1ec      0x8  Data  Gb  ST_Fonts.o [3]
acGUI_FontLubalGraph16_02C7
                        0x0802c1f4      0x8  Data  Gb  ST_Fonts.o [3]
acGUI_FontLubalGraph16_02C9
                        0x0802c1fc      0x4  Data  Gb  ST_Fonts.o [3]
acGUI_FontLubalGraph16_02D8
                        0x0802c200      0x8  Data  Gb  ST_Fonts.o [3]
acGUI_FontLubalGraph16_02D9
                        0x0802c208      0x2  Data  Gb  ST_Fonts.o [3]
acGUI_FontLubalGraph16_02DA
                        0x0802c20c      0x8  Data  Gb  ST_Fonts.o [3]
acGUI_FontLubalGraph16_02DB
                        0x0802c214      0x4  Data  Gb  ST_Fonts.o [3]
acGUI_FontLubalGraph16_02DC
                        0x0802c218      0x8  Data  Gb  ST_Fonts.o [3]
acGUI_FontLubalGraph16_02DD
                        0x0802c220      0x8  Data  Gb  ST_Fonts.o [3]
acGUI_FontLubalGraph16_03A9
                        0x0802c228     0x28  Data  Gb  ST_Fonts.o [3]
acGUI_FontLubalGraph16_03BC
                        0x0802c250     0x28  Data  Gb  ST_Fonts.o [3]
acGUI_FontLubalGraph16_03C0
                        0x0802c278     0x1c  Data  Gb  ST_Fonts.o [3]
acGUI_FontLubalGraph16_2010
                        0x0802c294      0x2  Data  Gb  ST_Fonts.o [3]
acGUI_FontLubalGraph16_2013
                        0x0802c298      0x4  Data  Gb  ST_Fonts.o [3]
acGUI_FontLubalGraph16_2014
                        0x0802c29c      0x8  Data  Gb  ST_Fonts.o [3]
acGUI_FontLubalGraph16_2018
                        0x0802c2a4      0x4  Data  Gb  ST_Fonts.o [3]
acGUI_FontLubalGraph16_2019
                        0x0802c2a8      0x4  Data  Gb  ST_Fonts.o [3]
acGUI_FontLubalGraph16_201A
                        0x0802c2ac      0x4  Data  Gb  ST_Fonts.o [3]
acGUI_FontLubalGraph16_201C
                        0x0802c2b0      0x8  Data  Gb  ST_Fonts.o [3]
acGUI_FontLubalGraph16_201D
                        0x0802c2b8      0x8  Data  Gb  ST_Fonts.o [3]
acGUI_FontLubalGraph16_201E
                        0x0802c2c0      0x8  Data  Gb  ST_Fonts.o [3]
acGUI_FontLubalGraph16_2020
                        0x0802c2c8     0x30  Data  Gb  ST_Fonts.o [3]
acGUI_FontLubalGraph16_2021
                        0x0802c2f8     0x30  Data  Gb  ST_Fonts.o [3]
acGUI_FontLubalGraph16_2022
                        0x0802c328      0xc  Data  Gb  ST_Fonts.o [3]
acGUI_FontLubalGraph16_2026
                        0x0802c334      0xc  Data  Gb  ST_Fonts.o [3]
acGUI_FontLubalGraph16_2030
                        0x0802c340     0x50  Data  Gb  ST_Fonts.o [3]
acGUI_FontLubalGraph16_2039
                        0x0802c390      0x8  Data  Gb  ST_Fonts.o [3]
acGUI_FontLubalGraph16_203A
                        0x0802c398      0x8  Data  Gb  ST_Fonts.o [3]
acGUI_FontLubalGraph16_2044
                        0x0802c3a0     0x20  Data  Gb  ST_Fonts.o [3]
acGUI_FontLubalGraph16_20AC
                        0x0802c3c0     0x28  Data  Gb  ST_Fonts.o [3]
acGUI_FontLubalGraph16_2113
                        0x0802c3e8     0x20  Data  Gb  ST_Fonts.o [3]
acGUI_FontLubalGraph16_2122
                        0x0802c408     0x24  Data  Gb  ST_Fonts.o [3]
acGUI_FontLubalGraph16_2126
                        0x0802c42c     0x28  Data  Gb  ST_Fonts.o [3]
acGUI_FontLubalGraph16_212E
                        0x0802c454     0x3c  Data  Gb  ST_Fonts.o [3]
acGUI_FontLubalGraph16_2202
                        0x0802c490     0x24  Data  Gb  ST_Fonts.o [3]
acGUI_FontLubalGraph16_2206
                        0x0802c4b4     0x28  Data  Gb  ST_Fonts.o [3]
acGUI_FontLubalGraph16_220F
                        0x0802c4dc     0x38  Data  Gb  ST_Fonts.o [3]
acGUI_FontLubalGraph16_2211
                        0x0802c514     0x2c  Data  Gb  ST_Fonts.o [3]
acGUI_FontLubalGraph16_2212
                        0x0802c540      0x4  Data  Gb  ST_Fonts.o [3]
acGUI_FontLubalGraph16_2215
                        0x0802c544     0x20  Data  Gb  ST_Fonts.o [3]
acGUI_FontLubalGraph16_2219
                        0x0802c564      0x2  Data  Gb  ST_Fonts.o [3]
acGUI_FontLubalGraph16_221A
                        0x0802c568     0x34  Data  Gb  ST_Fonts.o [3]
acGUI_FontLubalGraph16_221E
                        0x0802c59c     0x14  Data  Gb  ST_Fonts.o [3]
acGUI_FontLubalGraph16_222B
                        0x0802c5b0     0x2c  Data  Gb  ST_Fonts.o [3]
acGUI_FontLubalGraph16_2248
                        0x0802c5dc     0x10  Data  Gb  ST_Fonts.o [3]
acGUI_FontLubalGraph16_2260
                        0x0802c5ec     0x20  Data  Gb  ST_Fonts.o [3]
acGUI_FontLubalGraph16_2264
                        0x0802c60c     0x20  Data  Gb  ST_Fonts.o [3]
acGUI_FontLubalGraph16_2265
                        0x0802c62c     0x20  Data  Gb  ST_Fonts.o [3]
acGUI_FontLubalGraph16_25CA
                        0x0802c64c     0x2c  Data  Gb  ST_Fonts.o [3]
acGUI_FontLubalGraph16_FB01
                        0x0802c678     0x20  Data  Gb  ST_Fonts.o [3]
acGUI_FontLubalGraph16_FB02
                        0x0802c698     0x20  Data  Gb  ST_Fonts.o [3]
acGUI_FontLubalGraph16_FFFF
                        0x0802c6b8     0x24  Data  Gb  ST_Fonts.o [3]
acGUI_FontLubalGraph20B_0020
                        0x08034494      0x1  Data  Gb  ST_Fonts.o [3]
acGUI_FontLubalGraph20B_0021
                        0x08034498      0xc  Data  Gb  ST_Fonts.o [3]
acGUI_FontLubalGraph20B_0022
                        0x080344a4     0x10  Data  Gb  ST_Fonts.o [3]
acGUI_FontLubalGraph20B_0023
                        0x080344b4     0x38  Data  Gb  ST_Fonts.o [3]
acGUI_FontLubalGraph20B_0024
                        0x080344ec     0x3c  Data  Gb  ST_Fonts.o [3]
acGUI_FontLubalGraph20B_0025
                        0x08034528     0x50  Data  Gb  ST_Fonts.o [3]
acGUI_FontLubalGraph20B_0026
                        0x08034578     0x38  Data  Gb  ST_Fonts.o [3]
acGUI_FontLubalGraph20B_0027
                        0x080345b0      0x8  Data  Gb  ST_Fonts.o [3]
acGUI_FontLubalGraph20B_0028
                        0x080345b8     0x28  Data  Gb  ST_Fonts.o [3]
acGUI_FontLubalGraph20B_0029
                        0x080345e0     0x28  Data  Gb  ST_Fonts.o [3]
acGUI_FontLubalGraph20B_002A
                        0x08034608     0x10  Data  Gb  ST_Fonts.o [3]
acGUI_FontLubalGraph20B_002B
                        0x08034618     0x30  Data  Gb  ST_Fonts.o [3]
acGUI_FontLubalGraph20B_002C
                        0x08034648      0x8  Data  Gb  ST_Fonts.o [3]
acGUI_FontLubalGraph20B_002D
                        0x08034650      0x4  Data  Gb  ST_Fonts.o [3]
acGUI_FontLubalGraph20B_002E
                        0x08034654      0x4  Data  Gb  ST_Fonts.o [3]
acGUI_FontLubalGraph20B_002F
                        0x08034658     0x48  Data  Gb  ST_Fonts.o [3]
acGUI_FontLubalGraph20B_0030
                        0x080346a0     0x2c  Data  Gb  ST_Fonts.o [3]
acGUI_FontLubalGraph20B_0031
                        0x080346cc     0x24  Data  Gb  ST_Fonts.o [3]
acGUI_FontLubalGraph20B_0032
                        0x080346f0     0x2c  Data  Gb  ST_Fonts.o [3]
acGUI_FontLubalGraph20B_0033
                        0x0803471c     0x2c  Data  Gb  ST_Fonts.o [3]
acGUI_FontLubalGraph20B_0034
                        0x08034748     0x38  Data  Gb  ST_Fonts.o [3]
acGUI_FontLubalGraph20B_0035
                        0x08034780     0x38  Data  Gb  ST_Fonts.o [3]
acGUI_FontLubalGraph20B_0036
                        0x080347b8     0x38  Data  Gb  ST_Fonts.o [3]
acGUI_FontLubalGraph20B_0037
                        0x080347f0     0x2c  Data  Gb  ST_Fonts.o [3]
acGUI_FontLubalGraph20B_0038
                        0x0803481c     0x2c  Data  Gb  ST_Fonts.o [3]
acGUI_FontLubalGraph20B_0039
                        0x08034848     0x38  Data  Gb  ST_Fonts.o [3]
acGUI_FontLubalGraph20B_003A
                        0x08034880      0x8  Data  Gb  ST_Fonts.o [3]
acGUI_FontLubalGraph20B_003B
                        0x08034888      0xc  Data  Gb  ST_Fonts.o [3]
acGUI_FontLubalGraph20B_003C
                        0x08034894     0x30  Data  Gb  ST_Fonts.o [3]
acGUI_FontLubalGraph20B_003D
                        0x080348c4     0x10  Data  Gb  ST_Fonts.o [3]
acGUI_FontLubalGraph20B_003E
                        0x080348d4     0x30  Data  Gb  ST_Fonts.o [3]
acGUI_FontLubalGraph20B_003F
                        0x08034904     0x2c  Data  Gb  ST_Fonts.o [3]
acGUI_FontLubalGraph20B_0040
                        0x08034930     0x44  Data  Gb  ST_Fonts.o [3]
acGUI_FontLubalGraph20B_0041
                        0x08034974     0x44  Data  Gb  ST_Fonts.o [3]
acGUI_FontLubalGraph20B_0042
                        0x080349b8     0x2c  Data  Gb  ST_Fonts.o [3]
acGUI_FontLubalGraph20B_0043
                        0x080349e4     0x44  Data  Gb  ST_Fonts.o [3]
acGUI_FontLubalGraph20B_0044
                        0x08034a28     0x44  Data  Gb  ST_Fonts.o [3]
acGUI_FontLubalGraph20B_0045
                        0x08034a6c     0x2c  Data  Gb  ST_Fonts.o [3]
acGUI_FontLubalGraph20B_0046
                        0x08034a98     0x38  Data  Gb  ST_Fonts.o [3]
acGUI_FontLubalGraph20B_0047
                        0x08034ad0     0x44  Data  Gb  ST_Fonts.o [3]
acGUI_FontLubalGraph20B_0048
                        0x08034b14     0x44  Data  Gb  ST_Fonts.o [3]
acGUI_FontLubalGraph20B_0049
                        0x08034b58     0x24  Data  Gb  ST_Fonts.o [3]
acGUI_FontLubalGraph20B_004A
                        0x08034b7c     0x2c  Data  Gb  ST_Fonts.o [3]
acGUI_FontLubalGraph20B_004B
                        0x08034ba8     0x44  Data  Gb  ST_Fonts.o [3]
acGUI_FontLubalGraph20B_004C
                        0x08034bec     0x2c  Data  Gb  ST_Fonts.o [3]
acGUI_FontLubalGraph20B_004D
                        0x08034c18     0x58  Data  Gb  ST_Fonts.o [3]
acGUI_FontLubalGraph20B_004E
                        0x08034c70     0x44  Data  Gb  ST_Fonts.o [3]
acGUI_FontLubalGraph20B_004F
                        0x08034cb4     0x44  Data  Gb  ST_Fonts.o [3]
acGUI_FontLubalGraph20B_0050
                        0x08034cf8     0x2c  Data  Gb  ST_Fonts.o [3]
acGUI_FontLubalGraph20B_0051
                        0x08034d24     0x50  Data  Gb  ST_Fonts.o [3]
acGUI_FontLubalGraph20B_0052
                        0x08034d74     0x38  Data  Gb  ST_Fonts.o [3]
acGUI_FontLubalGraph20B_0053
                        0x08034dac     0x2c  Data  Gb  ST_Fonts.o [3]
acGUI_FontLubalGraph20B_0054
                        0x08034dd8     0x2c  Data  Gb  ST_Fonts.o [3]
acGUI_FontLubalGraph20B_0055
                        0x08034e04     0x38  Data  Gb  ST_Fonts.o [3]
acGUI_FontLubalGraph20B_0056
                        0x08034e3c     0x44  Data  Gb  ST_Fonts.o [3]
acGUI_FontLubalGraph20B_0057
                        0x08034e80     0x58  Data  Gb  ST_Fonts.o [3]
acGUI_FontLubalGraph20B_0058
                        0x08034ed8     0x44  Data  Gb  ST_Fonts.o [3]
acGUI_FontLubalGraph20B_0059
                        0x08034f1c     0x38  Data  Gb  ST_Fonts.o [3]
acGUI_FontLubalGraph20B_005A
                        0x08034f54     0x2c  Data  Gb  ST_Fonts.o [3]
acGUI_FontLubalGraph20B_005B
                        0x08034f80     0x28  Data  Gb  ST_Fonts.o [3]
acGUI_FontLubalGraph20B_005C
                        0x08034fa8     0x2c  Data  Gb  ST_Fonts.o [3]
acGUI_FontLubalGraph20B_005D
                        0x08034fd4     0x28  Data  Gb  ST_Fonts.o [3]
acGUI_FontLubalGraph20B_005E
                        0x08034ffc     0x30  Data  Gb  ST_Fonts.o [3]
acGUI_FontLubalGraph20B_005F
                        0x0803502c      0x4  Data  Gb  ST_Fonts.o [3]
acGUI_FontLubalGraph20B_0060
                        0x08035030      0xc  Data  Gb  ST_Fonts.o [3]
acGUI_FontLubalGraph20B_0061
                        0x0803503c     0x28  Data  Gb  ST_Fonts.o [3]
acGUI_FontLubalGraph20B_0062
                        0x08035064     0x38  Data  Gb  ST_Fonts.o [3]
acGUI_FontLubalGraph20B_0063
                        0x0803509c     0x28  Data  Gb  ST_Fonts.o [3]
acGUI_FontLubalGraph20B_0064
                        0x080350c4     0x38  Data  Gb  ST_Fonts.o [3]
acGUI_FontLubalGraph20B_0065
                        0x080350fc     0x28  Data  Gb  ST_Fonts.o [3]
acGUI_FontLubalGraph20B_0066
                        0x08035124     0x24  Data  Gb  ST_Fonts.o [3]
acGUI_FontLubalGraph20B_0067
                        0x08035148     0x38  Data  Gb  ST_Fonts.o [3]
acGUI_FontLubalGraph20B_0068
                        0x08035180     0x38  Data  Gb  ST_Fonts.o [3]
acGUI_FontLubalGraph20B_0069
                        0x080351b8     0x18  Data  Gb  ST_Fonts.o [3]
acGUI_FontLubalGraph20B_006A
                        0x080351d0     0x1c  Data  Gb  ST_Fonts.o [3]
acGUI_FontLubalGraph20B_006B
                        0x080351ec     0x38  Data  Gb  ST_Fonts.o [3]
acGUI_FontLubalGraph20B_006C
                        0x08035224     0x24  Data  Gb  ST_Fonts.o [3]
acGUI_FontLubalGraph20B_006D
                        0x08035248     0x38  Data  Gb  ST_Fonts.o [3]
acGUI_FontLubalGraph20B_006E
                        0x08035280     0x28  Data  Gb  ST_Fonts.o [3]
acGUI_FontLubalGraph20B_006F
                        0x080352a8     0x28  Data  Gb  ST_Fonts.o [3]
acGUI_FontLubalGraph20B_0070
                        0x080352d0     0x38  Data  Gb  ST_Fonts.o [3]
acGUI_FontLubalGraph20B_0071
                        0x08035308     0x38  Data  Gb  ST_Fonts.o [3]
acGUI_FontLubalGraph20B_0072
                        0x08035340     0x18  Data  Gb  ST_Fonts.o [3]
acGUI_FontLubalGraph20B_0073
                        0x08035358     0x20  Data  Gb  ST_Fonts.o [3]
acGUI_FontLubalGraph20B_0074
                        0x08035378     0x24  Data  Gb  ST_Fonts.o [3]
acGUI_FontLubalGraph20B_0075
                        0x0803539c     0x28  Data  Gb  ST_Fonts.o [3]
acGUI_FontLubalGraph20B_0076
                        0x080353c4     0x28  Data  Gb  ST_Fonts.o [3]
acGUI_FontLubalGraph20B_0077
                        0x080353ec     0x38  Data  Gb  ST_Fonts.o [3]
acGUI_FontLubalGraph20B_0078
                        0x08035424     0x28  Data  Gb  ST_Fonts.o [3]
acGUI_FontLubalGraph20B_0079
                        0x0803544c     0x38  Data  Gb  ST_Fonts.o [3]
acGUI_FontLubalGraph20B_007A
                        0x08035484     0x20  Data  Gb  ST_Fonts.o [3]
acGUI_FontLubalGraph20B_007B
                        0x080354a4     0x2c  Data  Gb  ST_Fonts.o [3]
acGUI_FontLubalGraph20B_007C
                        0x080354d0     0x10  Data  Gb  ST_Fonts.o [3]
acGUI_FontLubalGraph20B_007D
                        0x080354e0     0x28  Data  Gb  ST_Fonts.o [3]
acGUI_FontLubalGraph20B_007E
                        0x08035508     0x10  Data  Gb  ST_Fonts.o [3]
acGUI_FontLubalGraph20B_00A0
                        0x08035518      0x1  Data  Gb  ST_Fonts.o [3]
acGUI_FontLubalGraph20B_00A1
                        0x0803551c      0xc  Data  Gb  ST_Fonts.o [3]
acGUI_FontLubalGraph20B_00A2
                        0x08035528     0x24  Data  Gb  ST_Fonts.o [3]
acGUI_FontLubalGraph20B_00A3
                        0x0803554c     0x38  Data  Gb  ST_Fonts.o [3]
acGUI_FontLubalGraph20B_00A4
                        0x08035584     0x30  Data  Gb  ST_Fonts.o [3]
acGUI_FontLubalGraph20B_00A5
                        0x080355b4     0x38  Data  Gb  ST_Fonts.o [3]
acGUI_FontLubalGraph20B_00A6
                        0x080355ec     0x10  Data  Gb  ST_Fonts.o [3]
acGUI_FontLubalGraph20B_00A7
                        0x080355fc     0x34  Data  Gb  ST_Fonts.o [3]
acGUI_FontLubalGraph20B_00A8
                        0x08035630      0x8  Data  Gb  ST_Fonts.o [3]
acGUI_FontLubalGraph20B_00A9
                        0x08035638     0x44  Data  Gb  ST_Fonts.o [3]
acGUI_FontLubalGraph20B_00AA
                        0x0803567c     0x14  Data  Gb  ST_Fonts.o [3]
acGUI_FontLubalGraph20B_00AB
                        0x08035690      0xc  Data  Gb  ST_Fonts.o [3]
acGUI_FontLubalGraph20B_00AC
                        0x0803569c     0x1c  Data  Gb  ST_Fonts.o [3]
acGUI_FontLubalGraph20B_00AD
                        0x080356b8      0x4  Data  Gb  ST_Fonts.o [3]
acGUI_FontLubalGraph20B_00AE
                        0x080356bc     0x44  Data  Gb  ST_Fonts.o [3]
acGUI_FontLubalGraph20B_00AF
                        0x08035700      0x8  Data  Gb  ST_Fonts.o [3]
acGUI_FontLubalGraph20B_00B0
                        0x08035708      0x8  Data  Gb  ST_Fonts.o [3]
acGUI_FontLubalGraph20B_00B1
                        0x08035710     0x24  Data  Gb  ST_Fonts.o [3]
acGUI_FontLubalGraph20B_00B2
                        0x08035734     0x14  Data  Gb  ST_Fonts.o [3]
acGUI_FontLubalGraph20B_00B3
                        0x08035748     0x18  Data  Gb  ST_Fonts.o [3]
acGUI_FontLubalGraph20B_00B4
                        0x08035760      0xc  Data  Gb  ST_Fonts.o [3]
acGUI_FontLubalGraph20B_00B5
                        0x0803576c     0x38  Data  Gb  ST_Fonts.o [3]
acGUI_FontLubalGraph20B_00B6
                        0x080357a4     0x34  Data  Gb  ST_Fonts.o [3]
acGUI_FontLubalGraph20B_00B7
                        0x080357d8      0x4  Data  Gb  ST_Fonts.o [3]
acGUI_FontLubalGraph20B_00B8
                        0x080357dc      0x8  Data  Gb  ST_Fonts.o [3]
acGUI_FontLubalGraph20B_00B9
                        0x080357e4     0x10  Data  Gb  ST_Fonts.o [3]
acGUI_FontLubalGraph20B_00BA
                        0x080357f4     0x14  Data  Gb  ST_Fonts.o [3]
acGUI_FontLubalGraph20B_00BB
                        0x08035808      0xc  Data  Gb  ST_Fonts.o [3]
acGUI_FontLubalGraph20B_00BC
                        0x08035814     0x44  Data  Gb  ST_Fonts.o [3]
acGUI_FontLubalGraph20B_00BD
                        0x08035858     0x44  Data  Gb  ST_Fonts.o [3]
acGUI_FontLubalGraph20B_00BE
                        0x0803589c     0x50  Data  Gb  ST_Fonts.o [3]
acGUI_FontLubalGraph20B_00BF
                        0x080358ec     0x2c  Data  Gb  ST_Fonts.o [3]
acGUI_FontLubalGraph20B_00C0
                        0x08035918     0x5c  Data  Gb  ST_Fonts.o [3]
acGUI_FontLubalGraph20B_00C1
                        0x08035974     0x5c  Data  Gb  ST_Fonts.o [3]
acGUI_FontLubalGraph20B_00C2
                        0x080359d0     0x5c  Data  Gb  ST_Fonts.o [3]
acGUI_FontLubalGraph20B_00C3
                        0x08035a2c     0x5c  Data  Gb  ST_Fonts.o [3]
acGUI_FontLubalGraph20B_00C4
                        0x08035a88     0x54  Data  Gb  ST_Fonts.o [3]
acGUI_FontLubalGraph20B_00C5
                        0x08035adc     0x5c  Data  Gb  ST_Fonts.o [3]
acGUI_FontLubalGraph20B_00C6
                        0x08035b38     0x58  Data  Gb  ST_Fonts.o [3]
acGUI_FontLubalGraph20B_00C7
                        0x08035b90     0x5c  Data  Gb  ST_Fonts.o [3]
acGUI_FontLubalGraph20B_00C8
                        0x08035bec     0x3c  Data  Gb  ST_Fonts.o [3]
acGUI_FontLubalGraph20B_00C9
                        0x08035c28     0x3c  Data  Gb  ST_Fonts.o [3]
acGUI_FontLubalGraph20B_00CA
                        0x08035c64     0x3c  Data  Gb  ST_Fonts.o [3]
acGUI_FontLubalGraph20B_00CB
                        0x08035ca0     0x38  Data  Gb  ST_Fonts.o [3]
acGUI_FontLubalGraph20B_00CC
                        0x08035cd8     0x30  Data  Gb  ST_Fonts.o [3]
acGUI_FontLubalGraph20B_00CD
                        0x08035d08     0x30  Data  Gb  ST_Fonts.o [3]
acGUI_FontLubalGraph20B_00CE
                        0x08035d38     0x3c  Data  Gb  ST_Fonts.o [3]
acGUI_FontLubalGraph20B_00CF
                        0x08035d74     0x2c  Data  Gb  ST_Fonts.o [3]
acGUI_FontLubalGraph20B_00D0
                        0x08035da0     0x44  Data  Gb  ST_Fonts.o [3]
acGUI_FontLubalGraph20B_00D1
                        0x08035de4     0x5c  Data  Gb  ST_Fonts.o [3]
acGUI_FontLubalGraph20B_00D2
                        0x08035e40     0x5c  Data  Gb  ST_Fonts.o [3]
acGUI_FontLubalGraph20B_00D3
                        0x08035e9c     0x5c  Data  Gb  ST_Fonts.o [3]
acGUI_FontLubalGraph20B_00D4
                        0x08035ef8     0x5c  Data  Gb  ST_Fonts.o [3]
acGUI_FontLubalGraph20B_00D5
                        0x08035f54     0x5c  Data  Gb  ST_Fonts.o [3]
acGUI_FontLubalGraph20B_00D6
                        0x08035fb0     0x54  Data  Gb  ST_Fonts.o [3]
acGUI_FontLubalGraph20B_00D7
                        0x08036004     0x20  Data  Gb  ST_Fonts.o [3]
acGUI_FontLubalGraph20B_00D8
                        0x08036024     0x50  Data  Gb  ST_Fonts.o [3]
acGUI_FontLubalGraph20B_00D9
                        0x08036074     0x4c  Data  Gb  ST_Fonts.o [3]
acGUI_FontLubalGraph20B_00DA
                        0x080360c0     0x4c  Data  Gb  ST_Fonts.o [3]
acGUI_FontLubalGraph20B_00DB
                        0x0803610c     0x4c  Data  Gb  ST_Fonts.o [3]
acGUI_FontLubalGraph20B_00DC
                        0x08036158     0x48  Data  Gb  ST_Fonts.o [3]
acGUI_FontLubalGraph20B_00DD
                        0x080361a0     0x4c  Data  Gb  ST_Fonts.o [3]
acGUI_FontLubalGraph20B_00DE
                        0x080361ec     0x2c  Data  Gb  ST_Fonts.o [3]
acGUI_FontLubalGraph20B_00DF
                        0x08036218     0x38  Data  Gb  ST_Fonts.o [3]
acGUI_FontLubalGraph20B_00E0
                        0x08036250     0x44  Data  Gb  ST_Fonts.o [3]
acGUI_FontLubalGraph20B_00E1
                        0x08036294     0x44  Data  Gb  ST_Fonts.o [3]
acGUI_FontLubalGraph20B_00E2
                        0x080362d8     0x3c  Data  Gb  ST_Fonts.o [3]
acGUI_FontLubalGraph20B_00E3
                        0x08036314     0x3c  Data  Gb  ST_Fonts.o [3]
acGUI_FontLubalGraph20B_00E4
                        0x08036350     0x38  Data  Gb  ST_Fonts.o [3]
acGUI_FontLubalGraph20B_00E5
                        0x08036388     0x44  Data  Gb  ST_Fonts.o [3]
acGUI_FontLubalGraph20B_00E6
                        0x080363cc     0x40  Data  Gb  ST_Fonts.o [3]
acGUI_FontLubalGraph20B_00E7
                        0x0803640c     0x3c  Data  Gb  ST_Fonts.o [3]
acGUI_FontLubalGraph20B_00E8
                        0x08036448     0x44  Data  Gb  ST_Fonts.o [3]
acGUI_FontLubalGraph20B_00E9
                        0x0803648c     0x44  Data  Gb  ST_Fonts.o [3]
acGUI_FontLubalGraph20B_00EA
                        0x080364d0     0x3c  Data  Gb  ST_Fonts.o [3]
acGUI_FontLubalGraph20B_00EB
                        0x0803650c     0x38  Data  Gb  ST_Fonts.o [3]
acGUI_FontLubalGraph20B_00EC
                        0x08036544     0x28  Data  Gb  ST_Fonts.o [3]
acGUI_FontLubalGraph20B_00ED
                        0x0803656c     0x28  Data  Gb  ST_Fonts.o [3]
acGUI_FontLubalGraph20B_00EE
                        0x08036594     0x30  Data  Gb  ST_Fonts.o [3]
acGUI_FontLubalGraph20B_00EF
                        0x080365c4     0x24  Data  Gb  ST_Fonts.o [3]
acGUI_FontLubalGraph20B_00F0
                        0x080365e8     0x38  Data  Gb  ST_Fonts.o [3]
acGUI_FontLubalGraph20B_00F1
                        0x08036620     0x3c  Data  Gb  ST_Fonts.o [3]
acGUI_FontLubalGraph20B_00F2
                        0x0803665c     0x44  Data  Gb  ST_Fonts.o [3]
acGUI_FontLubalGraph20B_00F3
                        0x080366a0     0x44  Data  Gb  ST_Fonts.o [3]
acGUI_FontLubalGraph20B_00F4
                        0x080366e4     0x3c  Data  Gb  ST_Fonts.o [3]
acGUI_FontLubalGraph20B_00F5
                        0x08036720     0x3c  Data  Gb  ST_Fonts.o [3]
acGUI_FontLubalGraph20B_00F6
                        0x0803675c     0x38  Data  Gb  ST_Fonts.o [3]
acGUI_FontLubalGraph20B_00F7
                        0x08036794     0x24  Data  Gb  ST_Fonts.o [3]
acGUI_FontLubalGraph20B_00F8
                        0x080367b8     0x34  Data  Gb  ST_Fonts.o [3]
acGUI_FontLubalGraph20B_00F9
                        0x080367ec     0x44  Data  Gb  ST_Fonts.o [3]
acGUI_FontLubalGraph20B_00FA
                        0x08036830     0x44  Data  Gb  ST_Fonts.o [3]
acGUI_FontLubalGraph20B_00FB
                        0x08036874     0x3c  Data  Gb  ST_Fonts.o [3]
acGUI_FontLubalGraph20B_00FC
                        0x080368b0     0x38  Data  Gb  ST_Fonts.o [3]
acGUI_FontLubalGraph20B_00FD
                        0x080368e8     0x50  Data  Gb  ST_Fonts.o [3]
acGUI_FontLubalGraph20B_00FE
                        0x08036938     0x48  Data  Gb  ST_Fonts.o [3]
acGUI_FontLubalGraph20B_00FF
                        0x08036980     0x48  Data  Gb  ST_Fonts.o [3]
acGUI_FontLubalGraph20B_0131
                        0x080369c8     0x10  Data  Gb  ST_Fonts.o [3]
acGUI_FontLubalGraph20B_0141
                        0x080369d8     0x38  Data  Gb  ST_Fonts.o [3]
acGUI_FontLubalGraph20B_0142
                        0x08036a10     0x24  Data  Gb  ST_Fonts.o [3]
acGUI_FontLubalGraph20B_0152
                        0x08036a34     0x64  Data  Gb  ST_Fonts.o [3]
acGUI_FontLubalGraph20B_0153
                        0x08036a98     0x40  Data  Gb  ST_Fonts.o [3]
acGUI_FontLubalGraph20B_0160
                        0x08036ad8     0x3c  Data  Gb  ST_Fonts.o [3]
acGUI_FontLubalGraph20B_0161
                        0x08036b14     0x30  Data  Gb  ST_Fonts.o [3]
acGUI_FontLubalGraph20B_0178
                        0x08036b44     0x48  Data  Gb  ST_Fonts.o [3]
acGUI_FontLubalGraph20B_017D
                        0x08036b8c     0x3c  Data  Gb  ST_Fonts.o [3]
acGUI_FontLubalGraph20B_017E
                        0x08036bc8     0x30  Data  Gb  ST_Fonts.o [3]
acGUI_FontLubalGraph20B_0192
                        0x08036bf8     0x38  Data  Gb  ST_Fonts.o [3]
acGUI_FontLubalGraph20B_02C6
                        0x08036c30      0xc  Data  Gb  ST_Fonts.o [3]
acGUI_FontLubalGraph20B_02C7
                        0x08036c3c     0x10  Data  Gb  ST_Fonts.o [3]
acGUI_FontLubalGraph20B_02C9
                        0x08036c4c      0x8  Data  Gb  ST_Fonts.o [3]
acGUI_FontLubalGraph20B_02D8
                        0x08036c54      0xc  Data  Gb  ST_Fonts.o [3]
acGUI_FontLubalGraph20B_02D9
                        0x08036c60      0x2  Data  Gb  ST_Fonts.o [3]
acGUI_FontLubalGraph20B_02DA
                        0x08036c64      0x8  Data  Gb  ST_Fonts.o [3]
acGUI_FontLubalGraph20B_02DB
                        0x08036c6c      0x8  Data  Gb  ST_Fonts.o [3]
acGUI_FontLubalGraph20B_02DC
                        0x08036c74      0xc  Data  Gb  ST_Fonts.o [3]
acGUI_FontLubalGraph20B_02DD
                        0x08036c80      0xc  Data  Gb  ST_Fonts.o [3]
acGUI_FontLubalGraph20B_03A9
                        0x08036c8c     0x44  Data  Gb  ST_Fonts.o [3]
acGUI_FontLubalGraph20B_03BC
                        0x08036cd0     0x38  Data  Gb  ST_Fonts.o [3]
acGUI_FontLubalGraph20B_03C0
                        0x08036d08     0x28  Data  Gb  ST_Fonts.o [3]
acGUI_FontLubalGraph20B_2010
                        0x08036d30      0x4  Data  Gb  ST_Fonts.o [3]
acGUI_FontLubalGraph20B_2013
                        0x08036d34      0x8  Data  Gb  ST_Fonts.o [3]
acGUI_FontLubalGraph20B_2014
                        0x08036d3c     0x10  Data  Gb  ST_Fonts.o [3]
acGUI_FontLubalGraph20B_2018
                        0x08036d4c      0x8  Data  Gb  ST_Fonts.o [3]
acGUI_FontLubalGraph20B_2019
                        0x08036d54      0x4  Data  Gb  ST_Fonts.o [3]
acGUI_FontLubalGraph20B_201A
                        0x08036d58      0x8  Data  Gb  ST_Fonts.o [3]
acGUI_FontLubalGraph20B_201C
                        0x08036d60      0xc  Data  Gb  ST_Fonts.o [3]
acGUI_FontLubalGraph20B_201D
                        0x08036d6c      0xc  Data  Gb  ST_Fonts.o [3]
acGUI_FontLubalGraph20B_201E
                        0x08036d78     0x10  Data  Gb  ST_Fonts.o [3]
acGUI_FontLubalGraph20B_2020
                        0x08036d88     0x34  Data  Gb  ST_Fonts.o [3]
acGUI_FontLubalGraph20B_2021
                        0x08036dbc     0x34  Data  Gb  ST_Fonts.o [3]
acGUI_FontLubalGraph20B_2022
                        0x08036df0     0x14  Data  Gb  ST_Fonts.o [3]
acGUI_FontLubalGraph20B_2026
                        0x08036e04     0x18  Data  Gb  ST_Fonts.o [3]
acGUI_FontLubalGraph20B_2030
                        0x08036e1c     0x70  Data  Gb  ST_Fonts.o [3]
acGUI_FontLubalGraph20B_2039
                        0x08036e8c      0x8  Data  Gb  ST_Fonts.o [3]
acGUI_FontLubalGraph20B_203A
                        0x08036e94      0x8  Data  Gb  ST_Fonts.o [3]
acGUI_FontLubalGraph20B_2044
                        0x08036e9c     0x2c  Data  Gb  ST_Fonts.o [3]
acGUI_FontLubalGraph20B_20AC
                        0x08036ec8     0x38  Data  Gb  ST_Fonts.o [3]
acGUI_FontLubalGraph20B_2113
                        0x08036f00     0x3c  Data  Gb  ST_Fonts.o [3]
acGUI_FontLubalGraph20B_2122
                        0x08036f3c     0x34  Data  Gb  ST_Fonts.o [3]
acGUI_FontLubalGraph20B_2126
                        0x08036f70     0x44  Data  Gb  ST_Fonts.o [3]
acGUI_FontLubalGraph20B_212E
                        0x08036fb4     0x44  Data  Gb  ST_Fonts.o [3]
acGUI_FontLubalGraph20B_2202
                        0x08036ff8     0x34  Data  Gb  ST_Fonts.o [3]
acGUI_FontLubalGraph20B_2206
                        0x0803702c     0x38  Data  Gb  ST_Fonts.o [3]
acGUI_FontLubalGraph20B_220F
                        0x08037064     0x50  Data  Gb  ST_Fonts.o [3]
acGUI_FontLubalGraph20B_2211
                        0x080370b4     0x44  Data  Gb  ST_Fonts.o [3]
acGUI_FontLubalGraph20B_2212
                        0x080370f8      0x8  Data  Gb  ST_Fonts.o [3]
acGUI_FontLubalGraph20B_2215
                        0x08037100     0x2c  Data  Gb  ST_Fonts.o [3]
acGUI_FontLubalGraph20B_2219
                        0x0803712c      0x4  Data  Gb  ST_Fonts.o [3]
acGUI_FontLubalGraph20B_221A
                        0x08037130     0x50  Data  Gb  ST_Fonts.o [3]
acGUI_FontLubalGraph20B_221E
                        0x08037180     0x20  Data  Gb  ST_Fonts.o [3]
acGUI_FontLubalGraph20B_222B
                        0x080371a0     0x34  Data  Gb  ST_Fonts.o [3]
acGUI_FontLubalGraph20B_2248
                        0x080371d4     0x18  Data  Gb  ST_Fonts.o [3]
acGUI_FontLubalGraph20B_2260
                        0x080371ec     0x20  Data  Gb  ST_Fonts.o [3]
acGUI_FontLubalGraph20B_2264
                        0x0803720c     0x28  Data  Gb  ST_Fonts.o [3]
acGUI_FontLubalGraph20B_2265
                        0x08037234     0x28  Data  Gb  ST_Fonts.o [3]
acGUI_FontLubalGraph20B_25CA
                        0x0803725c     0x34  Data  Gb  ST_Fonts.o [3]
acGUI_FontLubalGraph20B_FB01
                        0x08037290     0x2c  Data  Gb  ST_Fonts.o [3]
acGUI_FontLubalGraph20B_FB02
                        0x080372bc     0x2c  Data  Gb  ST_Fonts.o [3]
acGUI_FontLubalGraph20B_FFFF
                        0x080372e8     0x2c  Data  Gb  ST_Fonts.o [3]
acGUI_FontLubalGraph20_0020
                        0x0803037c      0x1  Data  Gb  ST_Fonts.o [3]
acGUI_FontLubalGraph20_0021
                        0x08030380      0xc  Data  Gb  ST_Fonts.o [3]
acGUI_FontLubalGraph20_0022
                        0x0803038c      0x8  Data  Gb  ST_Fonts.o [3]
acGUI_FontLubalGraph20_0023
                        0x08030394     0x3c  Data  Gb  ST_Fonts.o [3]
acGUI_FontLubalGraph20_0024
                        0x080303d0     0x40  Data  Gb  ST_Fonts.o [3]
acGUI_FontLubalGraph20_0025
                        0x08030410     0x48  Data  Gb  ST_Fonts.o [3]
acGUI_FontLubalGraph20_0026
                        0x08030458     0x3c  Data  Gb  ST_Fonts.o [3]
acGUI_FontLubalGraph20_0027
                        0x08030494      0x4  Data  Gb  ST_Fonts.o [3]
acGUI_FontLubalGraph20_0028
                        0x08030498     0x1c  Data  Gb  ST_Fonts.o [3]
acGUI_FontLubalGraph20_0029
                        0x080304b4     0x1c  Data  Gb  ST_Fonts.o [3]
acGUI_FontLubalGraph20_002A
                        0x080304d0     0x10  Data  Gb  ST_Fonts.o [3]
acGUI_FontLubalGraph20_002B
                        0x080304e0     0x30  Data  Gb  ST_Fonts.o [3]
acGUI_FontLubalGraph20_002C
                        0x08030510      0x8  Data  Gb  ST_Fonts.o [3]
acGUI_FontLubalGraph20_002D
                        0x08030518      0x2  Data  Gb  ST_Fonts.o [3]
acGUI_FontLubalGraph20_002E
                        0x0803051a      0x2  Data  Gb  ST_Fonts.o [3]
acGUI_FontLubalGraph20_002F
                        0x0803051c     0x3c  Data  Gb  ST_Fonts.o [3]
acGUI_FontLubalGraph20_0030
                        0x08030558     0x30  Data  Gb  ST_Fonts.o [3]
acGUI_FontLubalGraph20_0031
                        0x08030588     0x24  Data  Gb  ST_Fonts.o [3]
acGUI_FontLubalGraph20_0032
                        0x080305ac     0x30  Data  Gb  ST_Fonts.o [3]
acGUI_FontLubalGraph20_0033
                        0x080305dc     0x30  Data  Gb  ST_Fonts.o [3]
acGUI_FontLubalGraph20_0034
                        0x0803060c     0x3c  Data  Gb  ST_Fonts.o [3]
acGUI_FontLubalGraph20_0035
                        0x08030648     0x30  Data  Gb  ST_Fonts.o [3]
acGUI_FontLubalGraph20_0036
                        0x08030678     0x30  Data  Gb  ST_Fonts.o [3]
acGUI_FontLubalGraph20_0037
                        0x080306a8     0x30  Data  Gb  ST_Fonts.o [3]
acGUI_FontLubalGraph20_0038
                        0x080306d8     0x30  Data  Gb  ST_Fonts.o [3]
acGUI_FontLubalGraph20_0039
                        0x08030708     0x30  Data  Gb  ST_Fonts.o [3]
acGUI_FontLubalGraph20_003A
                        0x08030738      0x8  Data  Gb  ST_Fonts.o [3]
acGUI_FontLubalGraph20_003B
                        0x08030740      0xc  Data  Gb  ST_Fonts.o [3]
acGUI_FontLubalGraph20_003C
                        0x0803074c     0x30  Data  Gb  ST_Fonts.o [3]
acGUI_FontLubalGraph20_003D
                        0x0803077c     0x14  Data  Gb  ST_Fonts.o [3]
acGUI_FontLubalGraph20_003E
                        0x08030790     0x30  Data  Gb  ST_Fonts.o [3]
acGUI_FontLubalGraph20_003F
                        0x080307c0     0x30  Data  Gb  ST_Fonts.o [3]
acGUI_FontLubalGraph20_0040
                        0x080307f0     0x48  Data  Gb  ST_Fonts.o [3]
acGUI_FontLubalGraph20_0041
                        0x08030838     0x54  Data  Gb  ST_Fonts.o [3]
acGUI_FontLubalGraph20_0042
                        0x0803088c     0x3c  Data  Gb  ST_Fonts.o [3]
acGUI_FontLubalGraph20_0043
                        0x080308c8     0x48  Data  Gb  ST_Fonts.o [3]
acGUI_FontLubalGraph20_0044
                        0x08030910     0x48  Data  Gb  ST_Fonts.o [3]
acGUI_FontLubalGraph20_0045
                        0x08030958     0x30  Data  Gb  ST_Fonts.o [3]
acGUI_FontLubalGraph20_0046
                        0x08030988     0x30  Data  Gb  ST_Fonts.o [3]
acGUI_FontLubalGraph20_0047
                        0x080309b8     0x48  Data  Gb  ST_Fonts.o [3]
acGUI_FontLubalGraph20_0048
                        0x08030a00     0x48  Data  Gb  ST_Fonts.o [3]
acGUI_FontLubalGraph20_0049
                        0x08030a48     0x24  Data  Gb  ST_Fonts.o [3]
acGUI_FontLubalGraph20_004A
                        0x08030a6c     0x30  Data  Gb  ST_Fonts.o [3]
acGUI_FontLubalGraph20_004B
                        0x08030a9c     0x48  Data  Gb  ST_Fonts.o [3]
acGUI_FontLubalGraph20_004C
                        0x08030ae4     0x30  Data  Gb  ST_Fonts.o [3]
acGUI_FontLubalGraph20_004D
                        0x08030b14     0x60  Data  Gb  ST_Fonts.o [3]
acGUI_FontLubalGraph20_004E
                        0x08030b74     0x54  Data  Gb  ST_Fonts.o [3]
acGUI_FontLubalGraph20_004F
                        0x08030bc8     0x48  Data  Gb  ST_Fonts.o [3]
acGUI_FontLubalGraph20_0050
                        0x08030c10     0x3c  Data  Gb  ST_Fonts.o [3]
acGUI_FontLubalGraph20_0051
                        0x08030c4c     0x54  Data  Gb  ST_Fonts.o [3]
acGUI_FontLubalGraph20_0052
                        0x08030ca0     0x48  Data  Gb  ST_Fonts.o [3]
acGUI_FontLubalGraph20_0053
                        0x08030ce8     0x30  Data  Gb  ST_Fonts.o [3]
acGUI_FontLubalGraph20_0054
                        0x08030d18     0x3c  Data  Gb  ST_Fonts.o [3]
acGUI_FontLubalGraph20_0055
                        0x08030d54     0x48  Data  Gb  ST_Fonts.o [3]
acGUI_FontLubalGraph20_0056
                        0x08030d9c     0x54  Data  Gb  ST_Fonts.o [3]
acGUI_FontLubalGraph20_0057
                        0x08030df0     0x6c  Data  Gb  ST_Fonts.o [3]
acGUI_FontLubalGraph20_0058
                        0x08030e5c     0x48  Data  Gb  ST_Fonts.o [3]
acGUI_FontLubalGraph20_0059
                        0x08030ea4     0x48  Data  Gb  ST_Fonts.o [3]
acGUI_FontLubalGraph20_005A
                        0x08030eec     0x30  Data  Gb  ST_Fonts.o [3]
acGUI_FontLubalGraph20_005B
                        0x08030f1c     0x1c  Data  Gb  ST_Fonts.o [3]
acGUI_FontLubalGraph20_005C
                        0x08030f38     0x24  Data  Gb  ST_Fonts.o [3]
acGUI_FontLubalGraph20_005D
                        0x08030f5c     0x1c  Data  Gb  ST_Fonts.o [3]
acGUI_FontLubalGraph20_005E
                        0x08030f78     0x30  Data  Gb  ST_Fonts.o [3]
acGUI_FontLubalGraph20_005F
                        0x08030fa8      0x4  Data  Gb  ST_Fonts.o [3]
acGUI_FontLubalGraph20_0060
                        0x08030fac      0xc  Data  Gb  ST_Fonts.o [3]
acGUI_FontLubalGraph20_0061
                        0x08030fb8     0x38  Data  Gb  ST_Fonts.o [3]
acGUI_FontLubalGraph20_0062
                        0x08030ff0     0x48  Data  Gb  ST_Fonts.o [3]
acGUI_FontLubalGraph20_0063
                        0x08031038     0x30  Data  Gb  ST_Fonts.o [3]
acGUI_FontLubalGraph20_0064
                        0x08031068     0x48  Data  Gb  ST_Fonts.o [3]
acGUI_FontLubalGraph20_0065
                        0x080310b0     0x30  Data  Gb  ST_Fonts.o [3]
acGUI_FontLubalGraph20_0066
                        0x080310e0     0x24  Data  Gb  ST_Fonts.o [3]
acGUI_FontLubalGraph20_0067
                        0x08031104     0x48  Data  Gb  ST_Fonts.o [3]
acGUI_FontLubalGraph20_0068
                        0x0803114c     0x48  Data  Gb  ST_Fonts.o [3]
acGUI_FontLubalGraph20_0069
                        0x08031194     0x24  Data  Gb  ST_Fonts.o [3]
acGUI_FontLubalGraph20_006A
                        0x080311b8     0x20  Data  Gb  ST_Fonts.o [3]
acGUI_FontLubalGraph20_006B
                        0x080311d8     0x3c  Data  Gb  ST_Fonts.o [3]
acGUI_FontLubalGraph20_006C
                        0x08031214     0x24  Data  Gb  ST_Fonts.o [3]
acGUI_FontLubalGraph20_006D
                        0x08031238     0x54  Data  Gb  ST_Fonts.o [3]
acGUI_FontLubalGraph20_006E
                        0x0803128c     0x38  Data  Gb  ST_Fonts.o [3]
acGUI_FontLubalGraph20_006F
                        0x080312c4     0x30  Data  Gb  ST_Fonts.o [3]
acGUI_FontLubalGraph20_0070
                        0x080312f4     0x48  Data  Gb  ST_Fonts.o [3]
acGUI_FontLubalGraph20_0071
                        0x0803133c     0x48  Data  Gb  ST_Fonts.o [3]
acGUI_FontLubalGraph20_0072
                        0x08031384     0x1c  Data  Gb  ST_Fonts.o [3]
acGUI_FontLubalGraph20_0073
                        0x080313a0     0x1c  Data  Gb  ST_Fonts.o [3]
acGUI_FontLubalGraph20_0074
                        0x080313bc     0x24  Data  Gb  ST_Fonts.o [3]
acGUI_FontLubalGraph20_0075
                        0x080313e0     0x38  Data  Gb  ST_Fonts.o [3]
acGUI_FontLubalGraph20_0076
                        0x08031418     0x30  Data  Gb  ST_Fonts.o [3]
acGUI_FontLubalGraph20_0077
                        0x08031448     0x48  Data  Gb  ST_Fonts.o [3]
acGUI_FontLubalGraph20_0078
                        0x08031490     0x30  Data  Gb  ST_Fonts.o [3]
acGUI_FontLubalGraph20_0079
                        0x080314c0     0x3c  Data  Gb  ST_Fonts.o [3]
acGUI_FontLubalGraph20_007A
                        0x080314fc     0x24  Data  Gb  ST_Fonts.o [3]
acGUI_FontLubalGraph20_007B
                        0x08031520     0x2c  Data  Gb  ST_Fonts.o [3]
acGUI_FontLubalGraph20_007C
                        0x0803154c     0x14  Data  Gb  ST_Fonts.o [3]
acGUI_FontLubalGraph20_007D
                        0x08031560     0x2c  Data  Gb  ST_Fonts.o [3]
acGUI_FontLubalGraph20_007E
                        0x0803158c     0x10  Data  Gb  ST_Fonts.o [3]
acGUI_FontLubalGraph20_00A0
                        0x0803159c      0x1  Data  Gb  ST_Fonts.o [3]
acGUI_FontLubalGraph20_00A1
                        0x080315a0      0xc  Data  Gb  ST_Fonts.o [3]
acGUI_FontLubalGraph20_00A2
                        0x080315ac     0x2c  Data  Gb  ST_Fonts.o [3]
acGUI_FontLubalGraph20_00A3
                        0x080315d8     0x3c  Data  Gb  ST_Fonts.o [3]
acGUI_FontLubalGraph20_00A4
                        0x08031614     0x1c  Data  Gb  ST_Fonts.o [3]
acGUI_FontLubalGraph20_00A5
                        0x08031630     0x3c  Data  Gb  ST_Fonts.o [3]
acGUI_FontLubalGraph20_00A6
                        0x0803166c     0x10  Data  Gb  ST_Fonts.o [3]
acGUI_FontLubalGraph20_00A7
                        0x0803167c     0x2c  Data  Gb  ST_Fonts.o [3]
acGUI_FontLubalGraph20_00A8
                        0x080316a8      0x4  Data  Gb  ST_Fonts.o [3]
acGUI_FontLubalGraph20_00A9
                        0x080316ac     0x48  Data  Gb  ST_Fonts.o [3]
acGUI_FontLubalGraph20_00AA
                        0x080316f4     0x18  Data  Gb  ST_Fonts.o [3]
acGUI_FontLubalGraph20_00AB
                        0x0803170c     0x10  Data  Gb  ST_Fonts.o [3]
acGUI_FontLubalGraph20_00AC
                        0x0803171c     0x20  Data  Gb  ST_Fonts.o [3]
acGUI_FontLubalGraph20_00AD
                        0x0803173c      0x2  Data  Gb  ST_Fonts.o [3]
acGUI_FontLubalGraph20_00AE
                        0x08031740     0x48  Data  Gb  ST_Fonts.o [3]
acGUI_FontLubalGraph20_00AF
                        0x08031788      0x4  Data  Gb  ST_Fonts.o [3]
acGUI_FontLubalGraph20_00B0
                        0x0803178c     0x10  Data  Gb  ST_Fonts.o [3]
acGUI_FontLubalGraph20_00B1
                        0x0803179c     0x28  Data  Gb  ST_Fonts.o [3]
acGUI_FontLubalGraph20_00B2
                        0x080317c4     0x18  Data  Gb  ST_Fonts.o [3]
acGUI_FontLubalGraph20_00B3
                        0x080317dc     0x18  Data  Gb  ST_Fonts.o [3]
acGUI_FontLubalGraph20_00B4
                        0x080317f4      0xc  Data  Gb  ST_Fonts.o [3]
acGUI_FontLubalGraph20_00B5
                        0x08031800     0x48  Data  Gb  ST_Fonts.o [3]
acGUI_FontLubalGraph20_00B6
                        0x08031848     0x48  Data  Gb  ST_Fonts.o [3]
acGUI_FontLubalGraph20_00B7
                        0x08031890      0x2  Data  Gb  ST_Fonts.o [3]
acGUI_FontLubalGraph20_00B8
                        0x08031894      0x8  Data  Gb  ST_Fonts.o [3]
acGUI_FontLubalGraph20_00B9
                        0x0803189c     0x10  Data  Gb  ST_Fonts.o [3]
acGUI_FontLubalGraph20_00BA
                        0x080318ac     0x14  Data  Gb  ST_Fonts.o [3]
acGUI_FontLubalGraph20_00BB
                        0x080318c0     0x18  Data  Gb  ST_Fonts.o [3]
acGUI_FontLubalGraph20_00BC
                        0x080318d8     0x48  Data  Gb  ST_Fonts.o [3]
acGUI_FontLubalGraph20_00BD
                        0x08031920     0x54  Data  Gb  ST_Fonts.o [3]
acGUI_FontLubalGraph20_00BE
                        0x08031974     0x54  Data  Gb  ST_Fonts.o [3]
acGUI_FontLubalGraph20_00BF
                        0x080319c8     0x30  Data  Gb  ST_Fonts.o [3]
acGUI_FontLubalGraph20_00C0
                        0x080319f8     0x70  Data  Gb  ST_Fonts.o [3]
acGUI_FontLubalGraph20_00C1
                        0x08031a68     0x70  Data  Gb  ST_Fonts.o [3]
acGUI_FontLubalGraph20_00C2
                        0x08031ad8     0x6c  Data  Gb  ST_Fonts.o [3]
acGUI_FontLubalGraph20_00C3
                        0x08031b44     0x6c  Data  Gb  ST_Fonts.o [3]
acGUI_FontLubalGraph20_00C4
                        0x08031bb0     0x6c  Data  Gb  ST_Fonts.o [3]
acGUI_FontLubalGraph20_00C5
                        0x08031c1c     0x70  Data  Gb  ST_Fonts.o [3]
acGUI_FontLubalGraph20_00C6
                        0x08031c8c     0x60  Data  Gb  ST_Fonts.o [3]
acGUI_FontLubalGraph20_00C7
                        0x08031cec     0x60  Data  Gb  ST_Fonts.o [3]
acGUI_FontLubalGraph20_00C8
                        0x08031d4c     0x40  Data  Gb  ST_Fonts.o [3]
acGUI_FontLubalGraph20_00C9
                        0x08031d8c     0x40  Data  Gb  ST_Fonts.o [3]
acGUI_FontLubalGraph20_00CA
                        0x08031dcc     0x3c  Data  Gb  ST_Fonts.o [3]
acGUI_FontLubalGraph20_00CB
                        0x08031e08     0x3c  Data  Gb  ST_Fonts.o [3]
acGUI_FontLubalGraph20_00CC
                        0x08031e44     0x30  Data  Gb  ST_Fonts.o [3]
acGUI_FontLubalGraph20_00CD
                        0x08031e74     0x30  Data  Gb  ST_Fonts.o [3]
acGUI_FontLubalGraph20_00CE
                        0x08031ea4     0x3c  Data  Gb  ST_Fonts.o [3]
acGUI_FontLubalGraph20_00CF
                        0x08031ee0     0x30  Data  Gb  ST_Fonts.o [3]
acGUI_FontLubalGraph20_00D0
                        0x08031f10     0x48  Data  Gb  ST_Fonts.o [3]
acGUI_FontLubalGraph20_00D1
                        0x08031f58     0x6c  Data  Gb  ST_Fonts.o [3]
acGUI_FontLubalGraph20_00D2
                        0x08031fc4     0x60  Data  Gb  ST_Fonts.o [3]
acGUI_FontLubalGraph20_00D3
                        0x08032024     0x60  Data  Gb  ST_Fonts.o [3]
acGUI_FontLubalGraph20_00D4
                        0x08032084     0x5c  Data  Gb  ST_Fonts.o [3]
acGUI_FontLubalGraph20_00D5
                        0x080320e0     0x5c  Data  Gb  ST_Fonts.o [3]
acGUI_FontLubalGraph20_00D6
                        0x0803213c     0x5c  Data  Gb  ST_Fonts.o [3]
acGUI_FontLubalGraph20_00D7
                        0x08032198     0x20  Data  Gb  ST_Fonts.o [3]
acGUI_FontLubalGraph20_00D8
                        0x080321b8     0x54  Data  Gb  ST_Fonts.o [3]
acGUI_FontLubalGraph20_00D9
                        0x0803220c     0x60  Data  Gb  ST_Fonts.o [3]
acGUI_FontLubalGraph20_00DA
                        0x0803226c     0x60  Data  Gb  ST_Fonts.o [3]
acGUI_FontLubalGraph20_00DB
                        0x080322cc     0x5c  Data  Gb  ST_Fonts.o [3]
acGUI_FontLubalGraph20_00DC
                        0x08032328     0x5c  Data  Gb  ST_Fonts.o [3]
acGUI_FontLubalGraph20_00DD
                        0x08032384     0x60  Data  Gb  ST_Fonts.o [3]
acGUI_FontLubalGraph20_00DE
                        0x080323e4     0x3c  Data  Gb  ST_Fonts.o [3]
acGUI_FontLubalGraph20_00DF
                        0x08032420     0x3c  Data  Gb  ST_Fonts.o [3]
acGUI_FontLubalGraph20_00E0
                        0x0803245c     0x50  Data  Gb  ST_Fonts.o [3]
acGUI_FontLubalGraph20_00E1
                        0x080324ac     0x50  Data  Gb  ST_Fonts.o [3]
acGUI_FontLubalGraph20_00E2
                        0x080324fc     0x48  Data  Gb  ST_Fonts.o [3]
acGUI_FontLubalGraph20_00E3
                        0x08032544     0x48  Data  Gb  ST_Fonts.o [3]
acGUI_FontLubalGraph20_00E4
                        0x0803258c     0x48  Data  Gb  ST_Fonts.o [3]
acGUI_FontLubalGraph20_00E5
                        0x080325d4     0x50  Data  Gb  ST_Fonts.o [3]
acGUI_FontLubalGraph20_00E6
                        0x08032624     0x54  Data  Gb  ST_Fonts.o [3]
acGUI_FontLubalGraph20_00E7
                        0x08032678     0x44  Data  Gb  ST_Fonts.o [3]
acGUI_FontLubalGraph20_00E8
                        0x080326bc     0x44  Data  Gb  ST_Fonts.o [3]
acGUI_FontLubalGraph20_00E9
                        0x08032700     0x44  Data  Gb  ST_Fonts.o [3]
acGUI_FontLubalGraph20_00EA
                        0x08032744     0x3c  Data  Gb  ST_Fonts.o [3]
acGUI_FontLubalGraph20_00EB
                        0x08032780     0x3c  Data  Gb  ST_Fonts.o [3]
acGUI_FontLubalGraph20_00EC
                        0x080327bc     0x28  Data  Gb  ST_Fonts.o [3]
acGUI_FontLubalGraph20_00ED
                        0x080327e4     0x2c  Data  Gb  ST_Fonts.o [3]
acGUI_FontLubalGraph20_00EE
                        0x08032810     0x30  Data  Gb  ST_Fonts.o [3]
acGUI_FontLubalGraph20_00EF
                        0x08032840     0x24  Data  Gb  ST_Fonts.o [3]
acGUI_FontLubalGraph20_00F0
                        0x08032864     0x3c  Data  Gb  ST_Fonts.o [3]
acGUI_FontLubalGraph20_00F1
                        0x080328a0     0x48  Data  Gb  ST_Fonts.o [3]
acGUI_FontLubalGraph20_00F2
                        0x080328e8     0x44  Data  Gb  ST_Fonts.o [3]
acGUI_FontLubalGraph20_00F3
                        0x0803292c     0x44  Data  Gb  ST_Fonts.o [3]
acGUI_FontLubalGraph20_00F4
                        0x08032970     0x3c  Data  Gb  ST_Fonts.o [3]
acGUI_FontLubalGraph20_00F5
                        0x080329ac     0x3c  Data  Gb  ST_Fonts.o [3]
acGUI_FontLubalGraph20_00F6
                        0x080329e8     0x3c  Data  Gb  ST_Fonts.o [3]
acGUI_FontLubalGraph20_00F7
                        0x08032a24     0x24  Data  Gb  ST_Fonts.o [3]
acGUI_FontLubalGraph20_00F8
                        0x08032a48     0x38  Data  Gb  ST_Fonts.o [3]
acGUI_FontLubalGraph20_00F9
                        0x08032a80     0x50  Data  Gb  ST_Fonts.o [3]
acGUI_FontLubalGraph20_00FA
                        0x08032ad0     0x54  Data  Gb  ST_Fonts.o [3]
acGUI_FontLubalGraph20_00FB
                        0x08032b24     0x48  Data  Gb  ST_Fonts.o [3]
acGUI_FontLubalGraph20_00FC
                        0x08032b6c     0x48  Data  Gb  ST_Fonts.o [3]
acGUI_FontLubalGraph20_00FD
                        0x08032bb4     0x58  Data  Gb  ST_Fonts.o [3]
acGUI_FontLubalGraph20_00FE
                        0x08032c0c     0x5c  Data  Gb  ST_Fonts.o [3]
acGUI_FontLubalGraph20_00FF
                        0x08032c68     0x4c  Data  Gb  ST_Fonts.o [3]
acGUI_FontLubalGraph20_0131
                        0x08032cb4     0x1c  Data  Gb  ST_Fonts.o [3]
acGUI_FontLubalGraph20_0141
                        0x08032cd0     0x30  Data  Gb  ST_Fonts.o [3]
acGUI_FontLubalGraph20_0142
                        0x08032d00     0x24  Data  Gb  ST_Fonts.o [3]
acGUI_FontLubalGraph20_0152
                        0x08032d24     0x6c  Data  Gb  ST_Fonts.o [3]
acGUI_FontLubalGraph20_0153
                        0x08032d90     0x54  Data  Gb  ST_Fonts.o [3]
acGUI_FontLubalGraph20_0160
                        0x08032de4     0x3c  Data  Gb  ST_Fonts.o [3]
acGUI_FontLubalGraph20_0161
                        0x08032e20     0x30  Data  Gb  ST_Fonts.o [3]
acGUI_FontLubalGraph20_0178
                        0x08032e50     0x5c  Data  Gb  ST_Fonts.o [3]
acGUI_FontLubalGraph20_017D
                        0x08032eac     0x3c  Data  Gb  ST_Fonts.o [3]
acGUI_FontLubalGraph20_017E
                        0x08032ee8     0x30  Data  Gb  ST_Fonts.o [3]
acGUI_FontLubalGraph20_0192
                        0x08032f18     0x38  Data  Gb  ST_Fonts.o [3]
acGUI_FontLubalGraph20_02C6
                        0x08032f50      0xc  Data  Gb  ST_Fonts.o [3]
acGUI_FontLubalGraph20_02C7
                        0x08032f5c      0xc  Data  Gb  ST_Fonts.o [3]
acGUI_FontLubalGraph20_02C9
                        0x08032f68      0x4  Data  Gb  ST_Fonts.o [3]
acGUI_FontLubalGraph20_02D8
                        0x08032f6c      0xc  Data  Gb  ST_Fonts.o [3]
acGUI_FontLubalGraph20_02D9
                        0x08032f78      0x2  Data  Gb  ST_Fonts.o [3]
acGUI_FontLubalGraph20_02DA
                        0x08032f7c      0x8  Data  Gb  ST_Fonts.o [3]
acGUI_FontLubalGraph20_02DB
                        0x08032f84      0x8  Data  Gb  ST_Fonts.o [3]
acGUI_FontLubalGraph20_02DC
                        0x08032f8c      0x8  Data  Gb  ST_Fonts.o [3]
acGUI_FontLubalGraph20_02DD
                        0x08032f94      0xc  Data  Gb  ST_Fonts.o [3]
acGUI_FontLubalGraph20_03A9
                        0x08032fa0     0x48  Data  Gb  ST_Fonts.o [3]
acGUI_FontLubalGraph20_03BC
                        0x08032fe8     0x48  Data  Gb  ST_Fonts.o [3]
acGUI_FontLubalGraph20_03C0
                        0x08033030     0x30  Data  Gb  ST_Fonts.o [3]
acGUI_FontLubalGraph20_2010
                        0x08033060      0x2  Data  Gb  ST_Fonts.o [3]
acGUI_FontLubalGraph20_2013
                        0x08033064      0x8  Data  Gb  ST_Fonts.o [3]
acGUI_FontLubalGraph20_2014
                        0x0803306c      0xc  Data  Gb  ST_Fonts.o [3]
acGUI_FontLubalGraph20_2018
                        0x08033078      0x8  Data  Gb  ST_Fonts.o [3]
acGUI_FontLubalGraph20_2019
                        0x08033080      0x8  Data  Gb  ST_Fonts.o [3]
acGUI_FontLubalGraph20_201A
                        0x08033088      0x8  Data  Gb  ST_Fonts.o [3]
acGUI_FontLubalGraph20_201C
                        0x08033090      0xc  Data  Gb  ST_Fonts.o [3]
acGUI_FontLubalGraph20_201D
                        0x0803309c      0xc  Data  Gb  ST_Fonts.o [3]
acGUI_FontLubalGraph20_201E
                        0x080330a8      0xc  Data  Gb  ST_Fonts.o [3]
acGUI_FontLubalGraph20_2020
                        0x080330b4     0x4c  Data  Gb  ST_Fonts.o [3]
acGUI_FontLubalGraph20_2021
                        0x08033100     0x4c  Data  Gb  ST_Fonts.o [3]
acGUI_FontLubalGraph20_2022
                        0x0803314c     0x14  Data  Gb  ST_Fonts.o [3]
acGUI_FontLubalGraph20_2026
                        0x08033160      0xc  Data  Gb  ST_Fonts.o [3]
acGUI_FontLubalGraph20_2030
                        0x0803316c     0x6c  Data  Gb  ST_Fonts.o [3]
acGUI_FontLubalGraph20_2039
                        0x080331d8      0x8  Data  Gb  ST_Fonts.o [3]
acGUI_FontLubalGraph20_203A
                        0x080331e0     0x10  Data  Gb  ST_Fonts.o [3]
acGUI_FontLubalGraph20_2044
                        0x080331f0     0x24  Data  Gb  ST_Fonts.o [3]
acGUI_FontLubalGraph20_20AC
                        0x08033214     0x3c  Data  Gb  ST_Fonts.o [3]
acGUI_FontLubalGraph20_2113
                        0x08033250     0x34  Data  Gb  ST_Fonts.o [3]
acGUI_FontLubalGraph20_2122
                        0x08033284     0x34  Data  Gb  ST_Fonts.o [3]
acGUI_FontLubalGraph20_2126
                        0x080332b8     0x48  Data  Gb  ST_Fonts.o [3]
acGUI_FontLubalGraph20_212E
                        0x08033300     0x54  Data  Gb  ST_Fonts.o [3]
acGUI_FontLubalGraph20_2202
                        0x08033354     0x34  Data  Gb  ST_Fonts.o [3]
acGUI_FontLubalGraph20_2206
                        0x08033388     0x3c  Data  Gb  ST_Fonts.o [3]
acGUI_FontLubalGraph20_220F
                        0x080333c4     0x54  Data  Gb  ST_Fonts.o [3]
acGUI_FontLubalGraph20_2211
                        0x08033418     0x48  Data  Gb  ST_Fonts.o [3]
acGUI_FontLubalGraph20_2212
                        0x08033460      0x8  Data  Gb  ST_Fonts.o [3]
acGUI_FontLubalGraph20_2215
                        0x08033468     0x24  Data  Gb  ST_Fonts.o [3]
acGUI_FontLubalGraph20_2219
                        0x0803348c      0x2  Data  Gb  ST_Fonts.o [3]
acGUI_FontLubalGraph20_221A
                        0x08033490     0x58  Data  Gb  ST_Fonts.o [3]
acGUI_FontLubalGraph20_221E
                        0x080334e8     0x24  Data  Gb  ST_Fonts.o [3]
acGUI_FontLubalGraph20_222B
                        0x0803350c     0x34  Data  Gb  ST_Fonts.o [3]
acGUI_FontLubalGraph20_2248
                        0x08033540     0x14  Data  Gb  ST_Fonts.o [3]
acGUI_FontLubalGraph20_2260
                        0x08033554     0x20  Data  Gb  ST_Fonts.o [3]
acGUI_FontLubalGraph20_2264
                        0x08033574     0x28  Data  Gb  ST_Fonts.o [3]
acGUI_FontLubalGraph20_2265
                        0x0803359c     0x28  Data  Gb  ST_Fonts.o [3]
acGUI_FontLubalGraph20_25CA
                        0x080335c4     0x34  Data  Gb  ST_Fonts.o [3]
acGUI_FontLubalGraph20_FB01
                        0x080335f8     0x30  Data  Gb  ST_Fonts.o [3]
acGUI_FontLubalGraph20_FB02
                        0x08033628     0x30  Data  Gb  ST_Fonts.o [3]
acGUI_FontLubalGraph20_FFFF
                        0x08033658     0x2c  Data  Gb  ST_Fonts.o [3]
acMask_audio            0x0804e0b8      0x8  Data  Lc  audio_player_win.o [1]
acMask_dir              0x0804e0c0      0x8  Data  Lc  audio_player_win.o [1]
acMask_video            0x080723ec      0x8  Data  Lc  video_player_win.o [1]
accept_function         0x080795bd     0x86  Code  Lc  api_msg.o [1]
ackno                   0x2003fd98      0x4  Data  Lc  tcp_in.o [1]
add_video               0x20012454     0x14  Data  Gb  video_player_win.o [1]
alloc_socket            0x08074cd5     0x38  Code  Lc  sockets.o [1]
apColorConvAPI          0x2001387c      0x8  Data  Lc  LCDConf.o [1]
apDrives                0x20013154      0x8  Data  Lc  audio_player_win.o [1]
apDrives                0x2001247c      0x8  Data  Lc  video_player_win.o [1]
arp_table               0x2003f294     0xc8  Data  Lc  etharp.o [1]
arp_timer               0x08077ad1      0xc  Code  Lc  lwip_timers.o [1]
audio_acequal           0x0800027c    0xa8c  Data  Lc  audio_player_win.o [1]
audio_acequal_pressed   0x08000d08    0xa8c  Data  Lc  audio_player_win.o [1]
audio_acrepeat_all      0x08002a54   0x12c0  Data  Lc  audio_player_win.o [1]
audio_acrepeat_all_des  0x08003d14   0x12c0  Data  Lc  audio_player_win.o [1]
audio_acrepeat_all_pressed
                        0x08004fd4   0x12c0  Data  Lc  audio_player_win.o [1]
audio_acrepeat_off      0x08006294   0x12c0  Data  Lc  audio_player_win.o [1]
audio_acrepeat_off_des  0x08007554   0x12c0  Data  Lc  audio_player_win.o [1]
audio_acrepeat_off_pressed
                        0x08008814   0x12c0  Data  Lc  audio_player_win.o [1]
audio_acrepeat_one      0x08009ad4   0x12c0  Data  Lc  audio_player_win.o [1]
audio_acrepeat_one_des  0x0800ad94   0x12c0  Data  Lc  audio_player_win.o [1]
audio_acrepeat_one_pressed
                        0x08001794   0x12c0  Data  Lc  audio_player_win.o [1]
audio_acspeaker         0x0800cae0    0xa8c  Data  Lc  audio_player_win.o [1]
audio_acspeaker_des     0x0800dff8    0xa8c  Data  Lc  audio_player_win.o [1]
audio_acspeaker_des1    0x0800c054    0xa8c  Data  Lc  audio_player_win.o [1]
audio_bmbackward        0x0804c480     0x14  Data  Gb  audio_player_win.o [1]
audio_bmbackward_des    0x0804d368     0x14  Data  Gb  audio_player_win.o [1]
audio_bmbackward_pressed
                        0x0804c46c     0x14  Data  Gb  audio_player_win.o [1]
audio_bmequal           0x0804c86c     0x14  Data  Gb  audio_player_win.o [1]
audio_bmequal_pressed   0x0804d408     0x14  Data  Gb  audio_player_win.o [1]
audio_bmforeward        0x0804c414     0x14  Data  Gb  audio_player_win.o [1]
audio_bmforeward_des    0x0804d3b8     0x14  Data  Gb  audio_player_win.o [1]
audio_bmforeward_pressed
                        0x0804c400     0x14  Data  Gb  audio_player_win.o [1]
audio_bmpause           0x0804c7e4     0x14  Data  Gb  audio_player_win.o [1]
audio_bmpause_des       0x0804d37c     0x14  Data  Gb  audio_player_win.o [1]
audio_bmpause_pressed   0x0804c7f8     0x14  Data  Gb  audio_player_win.o [1]
audio_bmplay            0x0804c348     0x14  Data  Gb  audio_player_win.o [1]
audio_bmplay_des        0x0804d390     0x14  Data  Gb  audio_player_win.o [1]
audio_bmplay_pressed    0x0804c35c     0x14  Data  Gb  audio_player_win.o [1]
audio_bmrepeat_all      0x0804c6a4     0x14  Data  Gb  audio_player_win.o [1]
audio_bmrepeat_all_des  0x0804d3cc     0x14  Data  Gb  audio_player_win.o [1]
audio_bmrepeat_all_pressed
                        0x0804c6b8     0x14  Data  Gb  audio_player_win.o [1]
audio_bmrepeat_off      0x0804c734     0x14  Data  Gb  audio_player_win.o [1]
audio_bmrepeat_off_des  0x0804d3f4     0x14  Data  Gb  audio_player_win.o [1]
audio_bmrepeat_off_pressed
                        0x0804c720     0x14  Data  Gb  audio_player_win.o [1]
audio_bmrepeat_one      0x0804c644     0x14  Data  Gb  audio_player_win.o [1]
audio_bmrepeat_one_des  0x0804d3e0     0x14  Data  Gb  audio_player_win.o [1]
audio_bmrepeat_one_pressed
                        0x0804c658     0x14  Data  Gb  audio_player_win.o [1]
audio_bmspeaker         0x0804c78c     0x14  Data  Gb  audio_player_win.o [1]
audio_bmspeaker1        0x0804c7a0     0x14  Data  Gb  audio_player_win.o [1]
audio_bmspeaker_des     0x0804d41c     0x14  Data  Gb  audio_player_win.o [1]
audio_bmspeaker_des1    0x0804d430     0x14  Data  Gb  audio_player_win.o [1]
audio_bmstop            0x0804c3b8     0x14  Data  Gb  audio_player_win.o [1]
audio_bmstop_des        0x0804d3a4     0x14  Data  Gb  audio_player_win.o [1]
audio_bmstop_pressed    0x0804c3a4     0x14  Data  Gb  audio_player_win.o [1]
audio_drv               0x20013e74      0x4  Data  Gb  stm32746g_discovery_audio.o [1]
audio_player_board      0x20012978     0x18  Data  Gb  audio_player_win.o [1]
audio_recorder_board    0x20013c8c     0x18  Data  Gb  audio_recorder_win.o [1]
bmB1_DES                0x080818c4     0x14  Data  Gb  home_alarm_win.o [1]
bmB1_OFF                0x080818d8     0x14  Data  Gb  home_alarm_win.o [1]
bmB1_ON                 0x080818ec     0x14  Data  Gb  home_alarm_win.o [1]
bmB2_DES                0x08081900     0x14  Data  Gb  home_alarm_win.o [1]
bmB2_OFF                0x08081914     0x14  Data  Gb  home_alarm_win.o [1]
bmB2_ON                 0x08081928     0x14  Data  Gb  home_alarm_win.o [1]
bmB3_DES                0x0808193c     0x14  Data  Gb  home_alarm_win.o [1]
bmB3_OFF                0x08081950     0x14  Data  Gb  home_alarm_win.o [1]
bmB3_ON                 0x08081964     0x14  Data  Gb  home_alarm_win.o [1]
bmB4_DES                0x08081978     0x14  Data  Gb  home_alarm_win.o [1]
bmB4_OFF                0x0808198c     0x14  Data  Gb  home_alarm_win.o [1]
bmB4_ON                 0x080819a0     0x14  Data  Gb  home_alarm_win.o [1]
bmB5_DES                0x080819b4     0x14  Data  Gb  home_alarm_win.o [1]
bmB5_OFF                0x080819c8     0x14  Data  Gb  home_alarm_win.o [1]
bmB5_ON                 0x080819dc     0x14  Data  Gb  home_alarm_win.o [1]
bmB6_DES                0x080819f0     0x14  Data  Gb  home_alarm_win.o [1]
bmB6_OFF                0x08081a04     0x14  Data  Gb  home_alarm_win.o [1]
bmB6_ON                 0x08081a18     0x14  Data  Gb  home_alarm_win.o [1]
bmF7Logo                0x0808e6d8     0x14  Data  Gb  settings_win.o [1]
bmFversion_1            0x0808e7b4     0x14  Data  Gb  settings_win.o [1]
bmFversion_10           0x0808e9f8     0x14  Data  Gb  settings_win.o [1]
bmFversion_2            0x0808e7c8     0x14  Data  Gb  settings_win.o [1]
bmFversion_3            0x0808e7dc     0x14  Data  Gb  settings_win.o [1]
bmFversion_4            0x0808e7f0     0x14  Data  Gb  settings_win.o [1]
bmFversion_5            0x0808e804     0x14  Data  Gb  settings_win.o [1]
bmFversion_6            0x0808e9a8     0x14  Data  Gb  settings_win.o [1]
bmFversion_7            0x0808e9bc     0x14  Data  Gb  settings_win.o [1]
bmFversion_8            0x0808e9d0     0x14  Data  Gb  settings_win.o [1]
bmFversion_9            0x0808e9e4     0x14  Data  Gb  settings_win.o [1]
bmSTLogo                0x080655cc     0x14  Data  Gb  k_startup.o [1]
bmVideo1                0x08047cd8     0x14  Data  Gb  video_player_win.o [1]
bmVideo2                0x08047cec     0x14  Data  Gb  video_player_win.o [1]
bmVideo3                0x08047d00     0x14  Data  Gb  video_player_win.o [1]
bmVideo4                0x08047d14     0x14  Data  Gb  video_player_win.o [1]
bmVideo5                0x08047d28     0x14  Data  Gb  video_player_win.o [1]
bmadd                   0x0804c544     0x14  Data  Gb  audio_player_win.o [1]
bmadd1                  0x08047d3c     0x14  Data  Gb  video_player_win.o [1]
bmadd2                  0x08047d50     0x14  Data  Gb  video_player_win.o [1]
bmadd3                  0x08047d64     0x14  Data  Gb  video_player_win.o [1]
bmadd4                  0x08047d78     0x14  Data  Gb  video_player_win.o [1]
bmadd5                  0x08047d8c     0x14  Data  Gb  video_player_win.o [1]
bmalarm                 0x08081874     0x14  Data  Gb  home_alarm_win.o [1]
bmaudio1                0x08000218     0x14  Data  Gb  audio_player_win.o [1]
bmaudio2                0x0800022c     0x14  Data  Gb  audio_player_win.o [1]
bmaudio3                0x08000240     0x14  Data  Gb  audio_player_win.o [1]
bmaudio4                0x08000254     0x14  Data  Gb  audio_player_win.o [1]
bmaudio5                0x08000268     0x14  Data  Gb  audio_player_win.o [1]
bmaudio_pochette        0x0804e0a4     0x14  Data  Gb  audio_player_win.o [1]
bmback                  0x08071688     0x14  Data  Gb  video_player_win.o [1]
bmbackground            0x0804c508     0x14  Data  Gb  audio_player_win.o [1]
bmbg                    0x08073de8     0x14  Data  Gb  vnc_server_win.o [1]
bmboard_1               0x0808e6ec     0x14  Data  Gb  settings_win.o [1]
bmboard_10              0x0808e994     0x14  Data  Gb  settings_win.o [1]
bmboard_2               0x0808e700     0x14  Data  Gb  settings_win.o [1]
bmboard_3               0x0808e714     0x14  Data  Gb  settings_win.o [1]
bmboard_4               0x0808e728     0x14  Data  Gb  settings_win.o [1]
bmboard_5               0x0808e73c     0x14  Data  Gb  settings_win.o [1]
bmboard_6               0x0808e944     0x14  Data  Gb  settings_win.o [1]
bmboard_7               0x0808e958     0x14  Data  Gb  settings_win.o [1]
bmboard_8               0x0808e96c     0x14  Data  Gb  settings_win.o [1]
bmboard_9               0x0808e980     0x14  Data  Gb  settings_win.o [1]
bmcam1                  0x08081a2c     0x14  Data  Gb  home_alarm_win.o [1]
bmcam2                  0x08081a40     0x14  Data  Gb  home_alarm_win.o [1]
bmcam3                  0x08081a54     0x14  Data  Gb  home_alarm_win.o [1]
bmcam4                  0x08081a68     0x14  Data  Gb  home_alarm_win.o [1]
bmcam5                  0x08081a7c     0x14  Data  Gb  home_alarm_win.o [1]
bmcamera                0x08081888     0x14  Data  Gb  home_alarm_win.o [1]
bmcamera1               0x08092dd4     0x14  Data  Gb  home_alarm_win.o [1]
bmcamera2               0x08092de8     0x14  Data  Gb  home_alarm_win.o [1]
bmcamera3               0x08092dfc     0x14  Data  Gb  home_alarm_win.o [1]
bmcamera4               0x08092e10     0x14  Data  Gb  home_alarm_win.o [1]
bmcamera5               0x08092e24     0x14  Data  Gb  home_alarm_win.o [1]
bmcancel                0x08065810     0x14  Data  Gb  audio_recorder_win.o [1]
bmcancel_unpressed      0x08065824     0x14  Data  Gb  audio_recorder_win.o [1]
bmconnect               0x08073e24     0x14  Data  Gb  vnc_server_win.o [1]
bmconnection_ko         0x08073dfc     0x14  Data  Gb  vnc_server_win.o [1]
bmconnection_ok         0x08073e10     0x14  Data  Gb  vnc_server_win.o [1]
bmcontrol1              0x08092ce4     0x14  Data  Gb  gardening_control_win.o [1]
bmcontrol2              0x08092cf8     0x14  Data  Gb  gardening_control_win.o [1]
bmcontrol3              0x08092d0c     0x14  Data  Gb  gardening_control_win.o [1]
bmcontrol4              0x08092d20     0x14  Data  Gb  gardening_control_win.o [1]
bmcontrol5              0x08092d34     0x14  Data  Gb  gardening_control_win.o [1]
bmcontrol_sub           0x0808f918     0x14  Data  Gb  gardening_control_win.o [1]
bmcpu_1                 0x0808e750     0x14  Data  Gb  settings_win.o [1]
bmcpu_10                0x0808e930     0x14  Data  Gb  settings_win.o [1]
bmcpu_2                 0x0808e764     0x14  Data  Gb  settings_win.o [1]
bmcpu_3                 0x0808e778     0x14  Data  Gb  settings_win.o [1]
bmcpu_4                 0x0808e78c     0x14  Data  Gb  settings_win.o [1]
bmcpu_5                 0x0808e7a0     0x14  Data  Gb  settings_win.o [1]
bmcpu_6                 0x0808e8e0     0x14  Data  Gb  settings_win.o [1]
bmcpu_7                 0x0808e8f4     0x14  Data  Gb  settings_win.o [1]
bmcpu_8                 0x0808e908     0x14  Data  Gb  settings_win.o [1]
bmcpu_9                 0x0808e91c     0x14  Data  Gb  settings_win.o [1]
bmdes_alarm             0x0808189c     0x14  Data  Gb  home_alarm_win.o [1]
bmdes_camera            0x080818b0     0x14  Data  Gb  home_alarm_win.o [1]
bmdes_control_sub       0x0808f8f0     0x14  Data  Gb  gardening_control_win.o [1]
bmdes_garden_sub        0x0808f8dc     0x14  Data  Gb  gardening_control_win.o [1]
bmdes_water_sub         0x0808f904     0x14  Data  Gb  gardening_control_win.o [1]
bmfore                  0x080716b4     0x14  Data  Gb  video_player_win.o [1]
bmframe0                0x08066034     0x14  Data  Gb  audio_recorder_win.o [1]
bmgame1                 0x08092e40     0x14  Data  Gb  games_win.o [1]
bmgame2                 0x08092e54     0x14  Data  Gb  games_win.o [1]
bmgame3                 0x08092e68     0x14  Data  Gb  games_win.o [1]
bmgame4                 0x08092e7c     0x14  Data  Gb  games_win.o [1]
bmgame5                 0x08092e90     0x14  Data  Gb  games_win.o [1]
bmgarden_sub            0x0808f8c8     0x14  Data  Gb  gardening_control_win.o [1]
bminfo1                 0x0808e674     0x14  Data  Gb  settings_win.o [1]
bminfo2                 0x0808e688     0x14  Data  Gb  settings_win.o [1]
bminfo3                 0x0808e69c     0x14  Data  Gb  settings_win.o [1]
bminfo4                 0x0808e6b0     0x14  Data  Gb  settings_win.o [1]
bminfo5                 0x0808e6c4     0x14  Data  Gb  settings_win.o [1]
bmlock                  0x08073e9c     0x14  Data  Gb  vnc_server_win.o [1]
bmmcu_1                 0x0808e818     0x14  Data  Gb  settings_win.o [1]
bmmcu_10                0x0808e8cc     0x14  Data  Gb  settings_win.o [1]
bmmcu_2                 0x0808e82c     0x14  Data  Gb  settings_win.o [1]
bmmcu_3                 0x0808e840     0x14  Data  Gb  settings_win.o [1]
bmmcu_4                 0x0808e854     0x14  Data  Gb  settings_win.o [1]
bmmcu_5                 0x0808e868     0x14  Data  Gb  settings_win.o [1]
bmmcu_6                 0x0808e87c     0x14  Data  Gb  settings_win.o [1]
bmmcu_7                 0x0808e890     0x14  Data  Gb  settings_win.o [1]
bmmcu_8                 0x0808e8a4     0x14  Data  Gb  settings_win.o [1]
bmmcu_9                 0x0808e8b8     0x14  Data  Gb  settings_win.o [1]
bmno_connection         0x08073eb0     0x14  Data  Gb  vnc_server_win.o [1]
bmopen                  0x0804c4c8     0x14  Data  Gb  audio_player_win.o [1]
bmopen1                 0x08047da0     0x14  Data  Gb  video_player_win.o [1]
bmopen2                 0x08047db4     0x14  Data  Gb  video_player_win.o [1]
bmopen3                 0x08047dc8     0x14  Data  Gb  video_player_win.o [1]
bmopen4                 0x08047ddc     0x14  Data  Gb  video_player_win.o [1]
bmopen5                 0x08047df0     0x14  Data  Gb  video_player_win.o [1]
bmpause                 0x0807165c     0x14  Data  Gb  video_player_win.o [1]
bmplay                  0x08071648     0x14  Data  Gb  video_player_win.o [1]
bmrecord                0x080657fc     0x14  Data  Gb  audio_recorder_win.o [1]
bmrecord_disabled       0x080657d4     0x14  Data  Gb  audio_recorder_win.o [1]
bmrecord_pressed        0x080657e8     0x14  Data  Gb  audio_recorder_win.o [1]
bmrecorder              0x08065fbc     0x14  Data  Gb  audio_recorder_win.o [1]
bmrecorder1             0x0808a4b0     0x14  Data  Gb  audio_recorder_win.o [1]
bmrecorder2             0x0808a4c4     0x14  Data  Gb  audio_recorder_win.o [1]
bmrecorder3             0x0808a4d8     0x14  Data  Gb  audio_recorder_win.o [1]
bmrecorder4             0x0808a4ec     0x14  Data  Gb  audio_recorder_win.o [1]
bmrecorder5             0x0808a500     0x14  Data  Gb  audio_recorder_win.o [1]
bmstop                  0x080716e0     0x14  Data  Gb  video_player_win.o [1]
bmstop_pressed          0x08073e60     0x14  Data  Gb  vnc_server_win.o [1]
bmstop_unpressed        0x08073e74     0x14  Data  Gb  vnc_server_win.o [1]
bmunlock                0x08073e88     0x14  Data  Gb  vnc_server_win.o [1]
bmvnc1                  0x0808fa08     0x14  Data  Gb  vnc_server_win.o [1]
bmvnc2                  0x0808fa1c     0x14  Data  Gb  vnc_server_win.o [1]
bmvnc3                  0x0808fa30     0x14  Data  Gb  vnc_server_win.o [1]
bmvnc4                  0x0808fa44     0x14  Data  Gb  vnc_server_win.o [1]
bmvnc5                  0x0808fa58     0x14  Data  Gb  vnc_server_win.o [1]
bmvnc_play_pressed      0x08073e4c     0x14  Data  Gb  vnc_server_win.o [1]
bmwarning               0x0807217c     0x14  Data  Gb  video_player_win.o [1]
bmwater_sub             0x0808f92c     0x14  Data  Gb  gardening_control_win.o [1]
cbBackWin               0x08040843     0x58  Code  Lc  WM.o [4]
check_fs                0x08050cdb     0x62  Code  Lc  ff.o [1]
chk_chr                 0x0804fcff     0x12  Code  Lc  ff.o [1]
chk_lock                0x0804fd37     0x5e  Code  Lc  ff.o [1]
clear_lock              0x0804fe3f     0x1c  Code  Lc  ff.o [1]
clmt_clust              0x08050253     0x2c  Code  Lc  ff.o [1]
clust2sect              0x0804ff8b     0x1c  Code  Gb  ff.o [1]
coefs                   0x08092d48     0x7c  Data  Lc  flt.o [6]
create_chain            0x080501a5     0xa0  Code  Lc  ff.o [1]
create_name             0x080509c5    0x1dc  Code  Lc  ff.o [1]
current_header          0x2003ff58      0x4  Data  Gb  ip.o [1]
current_iphdr_dest      0x2003ff60      0x4  Data  Gb  ip.o [1]
current_iphdr_src       0x2003ff5c      0x4  Data  Gb  ip.o [1]
current_netif           0x2003ff54      0x4  Data  Gb  ip.o [1]
dec_lock                0x0804fe0b     0x34  Code  Lc  ff.o [1]
delay_copy              0x080582e5     0x2a  Code  Lc  filter.o [7]
dhcp_arp_reply          0x08075811     0x5c  Code  Gb  dhcp.o [1]
dhcp_bind               0x08075917     0xbe  Code  Lc  dhcp.o [1]
dhcp_check              0x080755e1     0x22  Code  Lc  dhcp.o [1]
dhcp_coarse_tmr         0x08075679     0x4c  Code  Gb  dhcp.o [1]
dhcp_create_msg         0x08075fab     0xfc  Code  Lc  dhcp.o [1]
dhcp_delete_msg         0x080760c1     0x16  Code  Lc  dhcp.o [1]
dhcp_discover           0x08075873     0x56  Code  Lc  dhcp.o [1]
dhcp_fine_tmr           0x080756c5     0x30  Code  Gb  dhcp.o [1]
dhcp_option             0x08075bd9     0x1e  Code  Lc  dhcp.o [1]
dhcp_option_byte        0x08075bf7     0x10  Code  Lc  dhcp.o [1]
dhcp_option_long        0x08075c17     0x2a  Code  Lc  dhcp.o [1]
dhcp_option_short       0x08075c07     0x10  Code  Lc  dhcp.o [1]
dhcp_option_trailer     0x080760d7     0x34  Code  Lc  dhcp.o [1]
dhcp_parse_reply        0x08075c53    0x202  Code  Lc  dhcp.o [1]
dhcp_rebind             0x08075a43     0x32  Code  Lc  dhcp.o [1]
dhcp_reboot             0x08075a7d     0x48  Code  Lc  dhcp.o [1]
dhcp_recv               0x08075e61    0x14a  Code  Lc  dhcp.o [1]
dhcp_release            0x08075af5     0x94  Code  Gb  dhcp.o [1]
dhcp_renew              0x080759d5     0x52  Code  Gb  dhcp.o [1]
dhcp_rx_options_given   0x2003fcd8      0xc  Data  Gb  dhcp.o [1]
dhcp_rx_options_val     0x2003fce4     0x28  Data  Gb  dhcp.o [1]
dhcp_select             0x08075609     0x70  Code  Lc  dhcp.o [1]
dhcp_set_state          0x08075bc9     0x10  Code  Lc  dhcp.o [1]
dhcp_start              0x08075777     0x9a  Code  Gb  dhcp.o [1]
dhcp_stop               0x08075b9d     0x2c  Code  Gb  dhcp.o [1]
dhcp_timeout            0x080756f5     0x82  Code  Lc  dhcp.o [1]
dhcp_timer_coarse       0x08077add      0xc  Code  Lc  lwip_timers.o [1]
dhcp_timer_fine         0x08077ae9      0x8  Code  Lc  lwip_timers.o [1]
dir                     0x20012cf0    0x228  Data  Gb  k_storage.o [1]
dir_find                0x080504c3    0x13a  Code  Lc  ff.o [1]
dir_next                0x08050303     0xf2  Code  Lc  ff.o [1]
dir_read                0x080505fd     0xfc  Code  Lc  ff.o [1]
dir_register            0x080506f9    0x198  Code  Lc  ff.o [1]
dir_remove              0x080508a1     0x50  Code  Lc  ff.o [1]
dir_sdi                 0x0805027f     0x84  Code  Lc  ff.o [1]
disk                    0x2003ff44     0x10  Data  Gb  ff_gen_drv.o [1]
disk_initialize         0x08059bbf     0x1e  Code  Gb  diskio.o [1]
disk_ioctl              0x08059c05     0x18  Code  Gb  diskio.o [1]
disk_read               0x08059bdd      0xc  Code  Gb  diskio.o [1]
disk_status             0x08059bad     0x12  Code  Gb  diskio.o [1]
disk_write              0x08059be9      0xc  Code  Gb  diskio.o [1]
div                     0x08062539      0xe  Code  Gb  div.o [5]
do_bind                 0x0807997f     0x42  Code  Gb  api_msg.o [1]
do_close_internal       0x08079811     0xde  Code  Lc  api_msg.o [1]
do_delconn              0x080798f7     0x80  Code  Gb  api_msg.o [1]
do_getaddr              0x08079c71     0x6a  Code  Gb  api_msg.o [1]
do_listen               0x080799c1     0xa2  Code  Gb  api_msg.o [1]
do_newconn              0x08079657     0x7e  Code  Gb  api_msg.o [1]
do_recv                 0x08079afb     0x34  Code  Gb  api_msg.o [1]
do_send                 0x08079a93     0x68  Code  Gb  api_msg.o [1]
do_write                0x08079c33     0x3e  Code  Gb  api_msg.o [1]
do_writemore            0x08079b3b     0xf8  Code  Lc  api_msg.o [1]
elapsed_time            0x20012438      0x4  Data  Lc  video_player_win.o [1]
emWin_LCD_Init          0x080413b5     0xfa  Code  Gb  LCD.o [4]
equal                   0x902e8330   0xe498  Data  Lc  audio_recorder_win.o [1]
err_tcp                 0x080794fb     0x7e  Code  Lc  api_msg.o [1]
err_to_errno_table      0x080752ec     0x40  Data  Lc  sockets.o [1]
etharp_arp_input        0x0807760b     0xf4  Code  Lc  etharp.o [1]
etharp_cached_entry     0x200400cc      0x1  Data  Lc  etharp.o [1]
etharp_cleanup_netif    0x080775e3     0x28  Code  Gb  etharp.o [1]
etharp_find_entry       0x08077475     0xcc  Code  Lc  etharp.o [1]
etharp_free_entry       0x08077401     0x30  Code  Lc  etharp.o [1]
etharp_output           0x08077739     0xea  Code  Gb  etharp.o [1]
etharp_output_to_arp_index
                        0x080776ff     0x3a  Code  Lc  etharp.o [1]
etharp_query            0x08077831     0xea  Code  Gb  etharp.o [1]
etharp_raw              0x08077925     0xa0  Code  Lc  etharp.o [1]
etharp_request          0x080779c5     0x28  Code  Gb  etharp.o [1]
etharp_send_ip          0x08077541     0x2e  Code  Lc  etharp.o [1]
etharp_tmr              0x08077431     0x44  Code  Gb  etharp.o [1]
etharp_update_arp_entry
                        0x0807756f     0x74  Code  Lc  etharp.o [1]
ethbroadcast            0x08077a78      0x8  Data  Gb  etharp.o [1]
ethernet_input          0x080779ed     0x8c  Code  Gb  etharp.o [1]
ethernetif_init         0x0808bd0f     0x1e  Code  Gb  ethernetif.o [1]
ethernetif_input        0x0808bce1     0x2e  Code  Lc  ethernetif.o [1]
ethzero                 0x08077a80      0x8  Data  Gb  etharp.o [1]
event_callback          0x0807520d     0xcc  Code  Lc  sockets.o [1]
exit                    0x080933a3      0x4  Code  Gb  exit.o [5]
f_close                 0x08051653     0x36  Code  Gb  ff.o [1]
f_closedir              0x08051945     0x2e  Code  Gb  ff.o [1]
f_lseek                 0x08051689    0x210  Code  Gb  ff.o [1]
f_mount                 0x08051035     0x7e  Code  Gb  ff.o [1]
f_open                  0x080510b3    0x1b2  Code  Gb  ff.o [1]
f_opendir               0x080518a1     0xa4  Code  Gb  ff.o [1]
f_read                  0x08051287    0x14e  Code  Gb  ff.o [1]
f_readdir               0x08051973     0x82  Code  Gb  ff.o [1]
f_sync                  0x0805159f     0xaa  Code  Gb  ff.o [1]
f_unlink                0x08051a03     0xdc  Code  Gb  ff.o [1]
f_write                 0x080513d5    0x17a  Code  Gb  ff.o [1]
ff_convert              0x08059c25     0x34  Code  Gb  unicode.o [1]
ff_cre_syncobj          0x08059b61     0x1e  Code  Gb  syscall.o [1]
ff_del_syncobj          0x08059b7f      0xa  Code  Gb  syscall.o [1]
ff_memalloc             0x08059ba1      0x4  Code  Gb  syscall.o [1]
ff_memfree              0x08059ba5      0x4  Code  Gb  syscall.o [1]
ff_rel_grant            0x08059b9d      0x4  Code  Gb  syscall.o [1]
ff_req_grant            0x08059b89     0x14  Code  Gb  syscall.o [1]
ff_wtoupper             0x08059c59     0x1e  Code  Gb  unicode.o [1]
filter_approx           0x0805841f     0xd2  Code  Lc  filter.o [7]
find_volume             0x08050d3d    0x2ae  Code  Lc  ff.o [1]
flags                   0x2003fd74      0x1  Data  Lc  tcp_in.o [1]
follow_path             0x08050c35     0x68  Code  Lc  ff.o [1]
frame                   0x20040014      0x4  Data  Gb  settings_win.o [1]
ft5336_I2C_InitializeIfRequired
                        0x0806b447     0x12  Code  Lc  ft5336.o [1]
ft5336_Init             0x0806b1e5      0xe  Code  Gb  ft5336.o [1]
ft5336_ReadID           0x0806b1f5     0x2a  Code  Gb  ft5336.o [1]
ft5336_Reset            0x0806b1f3      0x2  Code  Gb  ft5336.o [1]
ft5336_TS_ClearIT       0x0806b365      0x2  Code  Gb  ft5336.o [1]
ft5336_TS_DetectTouch   0x0806b221     0x38  Code  Gb  ft5336.o [1]
ft5336_TS_DisableIT     0x0806b357      0x2  Code  Gb  ft5336.o [1]
ft5336_TS_EnableIT      0x0806b353      0x4  Code  Gb  ft5336.o [1]
ft5336_TS_GetGestureID  0x0806b367     0x1c  Code  Gb  ft5336.o [1]
ft5336_TS_GetTouchInfo  0x0806b385     0xb6  Code  Gb  ft5336.o [1]
ft5336_TS_GetXY         0x0806b259     0xd2  Code  Gb  ft5336.o [1]
ft5336_TS_ITStatus      0x0806b361      0x4  Code  Gb  ft5336.o [1]
ft5336_TS_Start         0x0806b21f      0x2  Code  Gb  ft5336.o [1]
ft5336_handle           0x20040050      0x4  Data  Lc  ft5336.o [1]
ft5336_ts_drv           0x20013b18     0x28  Data  Gb  ft5336.o [1]
games_board             0x20013ca4     0x18  Data  Gb  games_win.o [1]
gardening_control_board
                        0x20013cbc     0x18  Data  Gb  gardening_control_win.o [1]
gen_numname             0x08050427     0x80  Code  Lc  ff.o [1]
get_fat                 0x0804ffa7     0xb2  Code  Gb  ff.o [1]
get_fattime             0x08059c21      0x4  Code  Wk  diskio.o [1]
get_fileinfo            0x08050903     0xc2  Code  Lc  ff.o [1]
get_ldnumber            0x08050c9d     0x3e  Code  Lc  ff.o [1]
get_socket              0x08074cbf     0x16  Code  Lc  sockets.o [1]
gnetif                  0x2003fc6c     0x38  Data  Gb  vnc_app.o [1]
hCPULoad                0x2003ffc8      0x4  Data  Gb  k_menu.o [1]
hCameraFrame            0x2003ffac      0x4  Data  Lc  home_alarm_win.o [1]
hEquWin                 0x2001296c      0x4  Data  Lc  audio_player_win.o [1]
hFrame                  0x20012428      0x4  Data  Lc  video_player_win.o [1]
hI2cAudioHandler        0x2003fbbc     0x3c  Data  Lc  stm32746g_discovery.o [1]
hIcon                   0x2003ffc4      0x4  Data  Gb  k_menu.o [1]
hMainWin                0x20012960      0x4  Data  Lc  audio_player_win.o [1]
hMainWin                0x2003eeb8      0x4  Data  Lc  audio_recorder_win.o [1]
hPlaylistTimer          0x20012968      0x4  Data  Lc  audio_player_win.o [1]
hPlaylistWin            0x2001242c      0x4  Data  Lc  video_player_win.o [1]
hProcessTimer           0x20012964      0x4  Data  Lc  audio_player_win.o [1]
hRNG                    0x2003eebc      0xc  Data  Gb  audio_recorder_win.o [1]
hRefreshTimer           0x2003ffcc      0x4  Data  Gb  k_menu.o [1]
hTimer                  0x20040010      0x4  Data  Lc  settings_win.o [1]
hTimer                  0x20012434      0x4  Data  Lc  video_player_win.o [1]
hTimerWin               0x20013150      0x4  Data  Lc  audio_player_win.o [1]
hUSB_Host               0x2003dd5c    0x2d0  Data  Gb  k_storage.o [1]
hVncWin                 0x20013c00      0x4  Data  Lc  vnc_server_win.o [1]
haudio                  0x20000000   0x4818  Data  Gb  audio_if.o [1]
haudio_in_sai           0x2003f590     0x84  Data  Gb  stm32746g_discovery_audio.o [1]
haudio_out_sai          0x2003f50c     0x84  Data  Gb  stm32746g_discovery_audio.o [1]
hhcd                    0x2003e02c    0x294  Data  Gb  usbh_conf.o [1]
hltdc                   0x2003f35c     0xa8  Data  Gb  LCDConf.o [1]
home_alarm_board        0x20013cd4     0x18  Data  Gb  home_alarm_win.o [1]
hvideo                  0x2001241c      0x4  Data  Lc  video_player_win.o [1]
icmp_dest_unreach       0x0807b4ef      0x4  Code  Gb  icmp.o [1]
icmp_input              0x0807b3ed     0xf2  Code  Gb  icmp.o [1]
icmp_send_response      0x0807b4f3     0x66  Code  Lc  icmp.o [1]
inHandlerMode           0x08044ef9      0xc  Code  Lc  cmsis_os.o [1]
inc_lock                0x0804fd95     0x76  Code  Lc  ff.o [1]
inet_chksum             0x0807b5b5      0xc  Code  Gb  inet_chksum.o [1]
inet_chksum_pbuf        0x0807b5c1     0x3a  Code  Gb  inet_chksum.o [1]
init_mparams            0x08060733     0x32  Code  Lc  dlmalloc.o [5]
init_top                0x08060765     0x34  Code  Lc  dlmalloc.o [5]
inputEnabled            0x20040024      0x4  Data  Lc  wm8994.o [1]
inseg                   0x2003fd78     0x14  Data  Lc  tcp_in.o [1]
ip4_addr_isbroadcast    0x0807a6c5     0x34  Code  Gb  ip_addr.o [1]
ip_addr_any             0x08093548      0x4  Data  Gb  ip_addr.o [1]
ip_addr_broadcast       0x0809354c      0x4  Data  Gb  ip_addr.o [1]
ip_id                   0x20040056      0x2  Data  Lc  ip.o [1]
ip_input                0x08077c69    0x132  Code  Gb  ip.o [1]
ip_output               0x08077e29     0x30  Code  Gb  ip.o [1]
ip_output_if            0x08077d9b     0x7e  Code  Gb  ip.o [1]
ip_route                0x08077c35     0x34  Code  Gb  ip.o [1]
iptxt                   0x2003f614     0x80  Data  Lc  vnc_app.o [1]
is_initialized          0x20040070      0x4  Data  Lc  vnc_app.o [1]
k_BkupRestoreParameter  0x08053d59      0x8  Code  Gb  k_rtc.o [1]
k_BkupSaveParameter     0x08053d4f      0xa  Code  Gb  k_rtc.o [1]
k_BspInit               0x08064fb1     0x42  Code  Gb  k_bsp.o [1]
k_CalendarBkupInit      0x08053cf5     0x1e  Code  Gb  k_rtc.o [1]
k_GetData               0x08053543    0x1da  Code  Gb  k_storage.o [1]
k_InitMenu              0x08065293    0x1bc  Code  Gb  k_menu.o [1]
k_ModuleAdd             0x08056963     0x1c  Code  Gb  k_module.o [1]
k_ModuleGetIndex        0x0805697f     0x2a  Code  Gb  k_module.o [1]
k_ModuleGetNumber       0x0805695b      0x8  Code  Gb  k_module.o [1]
k_ModuleInit            0x0805693d     0x1e  Code  Gb  k_module.o [1]
k_SetGuiProfile         0x080651cd     0xc6  Code  Gb  k_menu.o [1]
k_StartUp               0x0806551d     0x92  Code  Gb  k_startup.o [1]
k_StorageGetStatus      0x0805351d      0xc  Code  Gb  k_storage.o [1]
k_StorageInit           0x08053479     0x5e  Code  Gb  k_storage.o [1]
k_TouchUpdate           0x08064ff3     0xa2  Code  Gb  k_bsp.o [1]
layer_prop              0x20013844     0x38  Data  Lc  LCDConf.o [1]
lcd_timer               0x20040060      0x4  Data  Gb  main.o [1]
ld_clust                0x080503f5     0x20  Code  Lc  ff.o [1]
lfn                     0x20012f18    0x100  Data  Lc  k_storage.o [1]
lfree                   0x2003c008      0x4  Data  Lc  mem.o [1]
localeconv              0x08062507     0x16  Code  Gb  localeconv.o [5]
lock_fs                 0x0804fd11      0x8  Code  Lc  ff.o [1]
low_level_init          0x0808bacf     0xba  Code  Lc  ethernetif.o [1]
low_level_input         0x0808bc29     0xb8  Code  Lc  ethernetif.o [1]
low_level_output        0x0808bb89     0xa0  Code  Lc  ethernetif.o [1]
lwip_accept             0x08074d13     0xee  Code  Gb  sockets.o [1]
lwip_bind               0x08074e01     0x4a  Code  Gb  sockets.o [1]
lwip_close              0x08074e4b     0x3e  Code  Gb  sockets.o [1]
lwip_htonl              0x0807534d     0x18  Code  Gb  def.o [1]
lwip_htons              0x08075341      0xa  Code  Gb  def.o [1]
lwip_init               0x08077ef9     0x26  Code  Gb  init.o [1]
lwip_listen             0x08074e99     0x40  Code  Gb  sockets.o [1]
lwip_ntohl              0x08075365      0x2  Code  Gb  def.o [1]
lwip_ntohs              0x0807534b      0x2  Code  Gb  def.o [1]
lwip_recv               0x0807507f      0xe  Code  Gb  sockets.o [1]
lwip_recvfrom           0x08074ed9    0x192  Code  Gb  sockets.o [1]
lwip_send               0x0807508d     0x76  Code  Gb  sockets.o [1]
lwip_sendto             0x08075103     0xa4  Code  Gb  sockets.o [1]
lwip_socket             0x080751ad     0x5e  Code  Gb  sockets.o [1]
lwip_socket_init        0x08074cbd      0x2  Code  Gb  sockets.o [1]
lwip_standard_chksum    0x0807b559     0x5c  Code  Lc  inet_chksum.o [1]
main                    0x0805ef85    0x1be  Code  Gb  main.o [1]
makeFreeRtosPriority    0x08044eed      0xc  Code  Lc  cmsis_os.o [1]
mbox                    0x2003ffe4      0x4  Data  Lc  tcpip.o [1]
mem_cpy                 0x0804fcdd     0x14  Code  Lc  ff.o [1]
mem_free                0x08077f57     0x84  Code  Gb  mem.o [1]
mem_init                0x08077f21     0x36  Code  Gb  mem.o [1]
mem_malloc              0x080780a3     0xca  Code  Gb  mem.o [1]
mem_mutex               0x2003d420      0x4  Data  Lc  mem.o [1]
mem_set                 0x0804fcf1      0xe  Code  Lc  ff.o [1]
mem_trim                0x08077fdb     0xc8  Code  Gb  mem.o [1]
memchr                  0x080606b5           Code  Gb  memchr.o [9]
memp_free               0x08077eb5     0x10  Code  Gb  memp.o [1]
memp_init               0x08077e59     0x42  Code  Gb  memp.o [1]
memp_malloc             0x08077e9b     0x1a  Code  Gb  memp.o [1]
memp_memory             0x20033f0c   0x4d90  Data  Lc  memp.o [1]
memp_num                0x08077ee0     0x18  Data  Lc  memp.o [1]
memp_sizes              0x08077ec8     0x18  Data  Lc  memp.o [1]
memp_tab                0x20033edc     0x30  Data  Lc  memp.o [1]
mid_point_prms          0x0805838f     0x90  Code  Lc  filter.o [7]
mix                     0x080584f1     0xc2  Code  Lc  filter.o [7]
module_num              0x2003f714      0x2  Data  Gb  k_module.o [1]
module_prop             0x2003f808     0x78  Data  Gb  k_module.o [1]
move_window             0x0804feb9     0x38  Code  Lc  ff.o [1]
mparams                 0x2003ff04     0x18  Data  Lc  dlmalloc.o [5]
netbuf_delete           0x080768a1     0x22  Code  Gb  netbuf.o [1]
netbuf_free             0x080768c3     0x16  Code  Gb  netbuf.o [1]
netbuf_ref              0x080768d9     0x3a  Code  Gb  netbuf.o [1]
netconn_accept          0x080762dd     0x54  Code  Gb  api_lib.o [1]
netconn_alloc           0x080796d5     0x7c  Code  Gb  api_msg.o [1]
netconn_bind            0x08076279     0x20  Code  Gb  api_lib.o [1]
netconn_delete          0x0807622b     0x1c  Code  Gb  api_lib.o [1]
netconn_drain           0x0807977f     0x92  Code  Lc  api_msg.o [1]
netconn_free            0x08079751     0x26  Code  Gb  api_msg.o [1]
netconn_getaddr         0x08076247     0x32  Code  Gb  api_lib.o [1]
netconn_listen_with_backlog
                        0x080762b3     0x20  Code  Gb  api_lib.o [1]
netconn_new_with_proto_and_callback
                        0x080761cd     0x5e  Code  Gb  api_lib.o [1]
netconn_recv            0x080763f3     0x82  Code  Gb  api_lib.o [1]
netconn_recv_data       0x08076339     0x9e  Code  Lc  api_lib.o [1]
netconn_recv_tcp_pbuf   0x080763e3     0x10  Code  Gb  api_lib.o [1]
netconn_recved          0x0807647b     0x26  Code  Gb  api_lib.o [1]
netconn_send            0x080764a1     0x24  Code  Gb  api_lib.o [1]
netconn_write_partly    0x080764cf     0x64  Code  Gb  api_lib.o [1]
netif_add               0x0807536b     0x46  Code  Gb  netif.o [1]
netif_default           0x2003ffd8      0x4  Data  Gb  netif.o [1]
netif_init              0x08075369      0x2  Code  Gb  netif.o [1]
netif_list              0x2003ffd4      0x4  Data  Gb  netif.o [1]
netif_num               0x2003ffd0      0x1  Data  Lc  netif.o [1]
netif_set_addr          0x080753b1     0x1e  Code  Gb  netif.o [1]
netif_set_default       0x0807542b      0x6  Code  Gb  netif.o [1]
netif_set_down          0x08075461     0x1a  Code  Gb  netif.o [1]
netif_set_gw            0x0807541b      0x8  Code  Gb  netif.o [1]
netif_set_ipaddr        0x080753cf     0x4c  Code  Gb  netif.o [1]
netif_set_netmask       0x08075423      0x8  Code  Gb  netif.o [1]
netif_set_up            0x08075441     0x20  Code  Gb  netif.o [1]
next_timeout            0x20040058      0x4  Data  Lc  lwip_timers.o [1]
open_alarm              0x20013d84     0x14  Data  Gb  home_alarm_win.o [1]
open_audio              0x20013d34     0x14  Data  Gb  audio_player_win.o [1]
open_board              0x20013184     0x48  Data  Gb  settings_win.o [1]
open_cpu                0x20013214     0x48  Data  Gb  settings_win.o [1]
open_file               0x20012468     0x14  Data  Gb  video_player_win.o [1]
open_fversion           0x2001325c     0x48  Data  Gb  settings_win.o [1]
open_games              0x20013d5c     0x14  Data  Gb  games_win.o [1]
open_gardening          0x20013d70     0x14  Data  Gb  gardening_control_win.o [1]
open_link               0x2003f718     0x78  Data  Gb  k_module.o [1]
open_mcu                0x200131cc     0x48  Data  Gb  settings_win.o [1]
open_recorder           0x20013d48     0x14  Data  Gb  audio_recorder_win.o [1]
open_video              0x20013dac     0x14  Data  Gb  video_player_win.o [1]
open_vnc                0x20013dc0     0x14  Data  Gb  vnc_server_win.o [1]
openlink_num            0x2003f716      0x2  Data  Gb  k_module.o [1]
osCPU_IdleSpentTime     0x2003fec8      0x4  Data  Gb  cpu_utils.o [1]
osCPU_IdleStartTime     0x2003fec4      0x4  Data  Gb  cpu_utils.o [1]
osCPU_TotalIdleTime     0x2003fecc      0x4  Data  Gb  cpu_utils.o [1]
osCPU_Usage             0x2003fec0      0x4  Data  Gb  cpu_utils.o [1]
osDelay                 0x08044f53      0xe  Code  Gb  cmsis_os.o [1]
osGetCPUUsage           0x08046ce5      0x8  Code  Gb  cpu_utils.o [1]
osKernelStart           0x08044f05      0xa  Code  Gb  cmsis_os.o [1]
osMessageCreate         0x080451ab      0xa  Code  Gb  cmsis_os.o [1]
osMessageGet            0x080451f7     0x62  Code  Gb  cmsis_os.o [1]
osMessagePut            0x080451b5     0x42  Code  Gb  cmsis_os.o [1]
osMutex                 0x20040008      0x4  Data  Lc  GUI_X_OS.o [1]
osMutexCreate           0x08045021      0x6  Code  Gb  cmsis_os.o [1]
osMutexRelease          0x08045063     0x30  Code  Gb  cmsis_os.o [1]
osMutexWait             0x08045027     0x3c  Code  Gb  cmsis_os.o [1]
osSemaphore             0x2004000c      0x4  Data  Lc  GUI_X_OS.o [1]
osSemaphoreCreate       0x08045093     0x2c  Code  Gb  cmsis_os.o [1]
osSemaphoreDelete       0x08045191      0xc  Code  Gb  cmsis_os.o [1]
osSemaphoreRelease      0x0804512f     0x30  Code  Gb  cmsis_os.o [1]
osSemaphoreWait         0x080450bf     0x3c  Code  Gb  cmsis_os.o [1]
osThreadCreate          0x08044f0f     0x36  Code  Gb  cmsis_os.o [1]
osThreadGetId           0x08044f45      0x4  Code  Gb  cmsis_os.o [1]
osThreadResume          0x08045277     0x22  Code  Gb  cmsis_os.o [1]
osThreadSuspend         0x0804526d      0xa  Code  Gb  cmsis_os.o [1]
osThreadTerminate       0x08044f49      0xa  Code  Gb  cmsis_os.o [1]
osTimerCreate           0x08044f61     0x1a  Code  Gb  cmsis_os.o [1]
osTimerStart            0x08044f7b     0xa6  Code  Gb  cmsis_os.o [1]
outputEnabled           0x20040020      0x4  Data  Lc  wm8994.o [1]
pHeaderBuff             0x2003fca4     0x2c  Data  Lc  audio_recorder_app.o [1]
pbuf_alloc              0x08076555    0x110  Code  Gb  pbuf.o [1]
pbuf_cat                0x08076779     0x26  Code  Gb  pbuf.o [1]
pbuf_chain              0x0807679f     0x10  Code  Gb  pbuf.o [1]
pbuf_clen               0x0807675f     0x10  Code  Gb  pbuf.o [1]
pbuf_copy               0x080767af     0x92  Code  Gb  pbuf.o [1]
pbuf_copy_partial       0x08076841     0x60  Code  Gb  pbuf.o [1]
pbuf_free               0x0807671f     0x40  Code  Gb  pbuf.o [1]
pbuf_header             0x080766bf     0x60  Code  Gb  pbuf.o [1]
pbuf_realloc            0x08076671     0x4e  Code  Gb  pbuf.o [1]
pbuf_ref                0x0807676f      0xa  Code  Gb  pbuf.o [1]
playbackwin             0x20012420      0x4  Data  Lc  video_player_win.o [1]
playlist_select         0x20012930      0x1  Data  Lc  audio_player_win.o [1]
poll_tcp                0x0807945b     0x4c  Code  Lc  api_msg.o [1]
prepend_alloc           0x08060799    0x36c  Code  Lc  dlmalloc.o [5]
previous_total          0x2001244c      0x4  Data  Lc  video_player_win.o [1]
prvAddCurrentTaskToDelayedList
                        0x08044ce3     0x30  Code  Lc  tasks.o [1]
prvAllocateTCBAndStack  0x08044d13     0x38  Code  Lc  tasks.o [1]
prvCheckForValidListAndQueue
                        0x08046be9     0x4c  Code  Lc  timers.o [1]
prvCopyDataFromQueue    0x08047505     0x26  Code  Lc  queue.o [1]
prvCopyDataToQueue      0x08047497     0x6e  Code  Lc  queue.o [1]
prvIdleTask             0x08044c35     0x5a  Code  Lc  tasks.o [1]
prvInitialiseTCBVariables
                        0x08044c8f     0x54  Code  Lc  tasks.o [1]
prvInsertBlockIntoFreeList
                        0x08046e53     0x46  Code  Lc  heap_4.o [1]
prvInsertTimerInActiveList
                        0x08046af9     0x34  Code  Lc  timers.o [1]
prvProcessReceivedCommands
                        0x08046b2d     0xa8  Code  Lc  timers.o [1]
prvProcessTimerOrBlockTask
                        0x080469ef     0x90  Code  Lc  timers.o [1]
prvResetNextTaskUnblockTime
                        0x08044d4b     0x1a  Code  Lc  tasks.o [1]
prvSampleTimeNow        0x08046a7f     0x7a  Code  Lc  timers.o [1]
prvTaskExitError        0x080466cd     0x2e  Code  Lc  port.o [1]
prvTaskIsTaskSuspended  0x08044779     0x28  Code  Lc  tasks.o [1]
prvTimerTask            0x080469cd     0x22  Code  Lc  timers.o [1]
prvUnlockQueue          0x0804752b     0x5c  Code  Lc  queue.o [1]
put_fat                 0x08050059     0xde  Code  Gb  ff.o [1]
pvPortMalloc            0x08046cf1     0xf6  Code  Gb  heap_4.o [1]
pvTaskIncrementMutexHeldCount
                        0x08044e8b     0x12  Code  Gb  tasks.o [1]
pxCurrentTCB            0x200132cc      0x4  Data  Gb  tasks.o [1]
pxCurrentTimerList      0x2003fc34      0x4  Data  Lc  timers.o [1]
pxDelayedTaskList       0x200132d0      0x4  Data  Lc  tasks.o [1]
pxEnd                   0x2003fedc      0x4  Data  Lc  heap_4.o [1]
pxOverflowDelayedTaskList
                        0x200132d4      0x4  Data  Lc  tasks.o [1]
pxOverflowTimerList     0x2003fc38      0x4  Data  Lc  timers.o [1]
pxPortInitialiseStack   0x080466a9     0x22  Code  Gb  port.o [1]
pxReadyTasksLists       0x2003f0d0     0xf0  Data  Lc  tasks.o [1]
ram                     0x2003c000      0x4  Data  Lc  mem.o [1]
ram_end                 0x2003c004      0x4  Data  Lc  mem.o [1]
ram_heap                0x2003c00c   0x1414  Data  Gb  mem.o [1]
rand                    0x08078511     0xe0  Code  Gb  rand.o [5]
raw_bind                0x0807a767      0xa  Code  Gb  raw.o [1]
raw_input               0x0807a6f9     0x6e  Code  Gb  raw.o [1]
raw_new                 0x0807a82d     0x26  Code  Gb  raw.o [1]
raw_pcbs                0x20040064      0x4  Data  Lc  raw.o [1]
raw_recv                0x0807a771      0x6  Code  Gb  raw.o [1]
raw_remove              0x0807a805     0x28  Code  Gb  raw.o [1]
raw_send                0x0807a801      0x4  Code  Gb  raw.o [1]
raw_sendto              0x0807a777     0x8a  Code  Gb  raw.o [1]
record_bmpause          0x08066020     0x14  Data  Gb  audio_recorder_win.o [1]
record_bmpause_des      0x0806570c     0x14  Data  Gb  audio_recorder_win.o [1]
record_bmpause_pressed  0x08065fe4     0x14  Data  Gb  audio_recorder_win.o [1]
record_bmplay           0x0806600c     0x14  Data  Gb  audio_recorder_win.o [1]
record_bmplay_pressed   0x08065fd0     0x14  Data  Gb  audio_recorder_win.o [1]
record_bmstop           0x08065684     0x14  Data  Gb  audio_recorder_win.o [1]
record_bmstop_des       0x08065698     0x14  Data  Gb  audio_recorder_win.o [1]
record_bmstop_pressed   0x08065ff8     0x14  Data  Gb  audio_recorder_win.o [1]
recv_data               0x2003fd9c      0x4  Data  Lc  tcp_in.o [1]
recv_flags              0x2003fd75      0x1  Data  Lc  tcp_in.o [1]
recv_raw                0x0807932d     0x6c  Code  Lc  api_msg.o [1]
recv_tcp                0x08079401     0x5a  Code  Lc  api_msg.o [1]
recv_udp                0x08079399     0x60  Code  Lc  api_msg.o [1]
remove_chain            0x08050141     0x5e  Code  Lc  ff.o [1]
s_nextthread            0x200400c4      0x2  Data  Lc  sys_arch.o [1]
s_xSemaphore            0x2003fb34      0x4  Data  Gb  ethernetif.o [1]
scratch                 0x2003e94c    0x200  Data  Lc  usbh_diskio.o [1]
sdramHandle             0x20013634     0x34  Data  Lc  stm32746g_discovery_sdram.o [1]
segment_holding         0x08060719     0x1a  Code  Lc  dlmalloc.o [5]
select_cb_ctr           0x2004001c      0x4  Data  Lc  sockets.o [1]
select_cb_list          0x20040018      0x4  Data  Lc  sockets.o [1]
sent_tcp                0x080794a7     0x54  Code  Lc  api_msg.o [1]
seqno                   0x2003fd94      0x4  Data  Lc  tcp_in.o [1]
settings                0x20013d98     0x14  Data  Gb  settings_win.o [1]
settings_board          0x20013cec     0x18  Data  Gb  settings_win.o [1]
setup_tcp               0x08079583     0x3a  Code  Lc  api_msg.o [1]
sf                      0x0808d874     0x24  Data  Lc  filter.o [7]
sockets                 0x2003f8f8     0x60  Data  Lc  sockets.o [1]
sprintf                 0x0804f839     0x34  Code  Gb  sprintf.o [5]
srand                   0x080784f1     0x20  Code  Gb  srand.o [5]
st_clust                0x08050415     0x12  Code  Lc  ff.o [1]
step                    0x2001243c      0x4  Data  Gb  video_player_win.o [1]
strcat                  0x08051b91     0x1c  Code  Gb  strcat.o [5]
strchr                  0x0805a139           Code  Gb  strchr.o [9]
strlen                  0x0805b7d9           Code  Gb  strlen.o [9]
sum_sfn                 0x080504a7     0x1c  Code  Lc  ff.o [1]
sync_fs                 0x0804fef1     0x9a  Code  Lc  ff.o [1]
sync_window             0x0804fe61     0x58  Code  Lc  ff.o [1]
sys_alloc               0x08060b05    0x386  Code  Lc  dlmalloc.o [5]
sys_arch_mbox_fetch     0x08076973     0x44  Code  Gb  sys_arch.o [1]
sys_arch_mbox_tryfetch  0x080769c1     0x1c  Code  Gb  sys_arch.o [1]
sys_arch_sem_wait       0x08076a19     0x3a  Code  Gb  sys_arch.o [1]
sys_init                0x08076a77      0x8  Code  Gb  sys_arch.o [1]
sys_mbox_free           0x08076931     0x14  Code  Gb  sys_arch.o [1]
sys_mbox_new            0x08076915     0x1c  Code  Gb  sys_arch.o [1]
sys_mbox_post           0x08076945     0x14  Code  Gb  sys_arch.o [1]
sys_mbox_set_invalid    0x080769df      0x2  Code  Gb  sys_arch.o [1]
sys_mbox_trypost        0x08076959     0x1a  Code  Gb  sys_arch.o [1]
sys_mbox_valid          0x080769dd      0x2  Code  Gb  sys_arch.o [1]
sys_sem_free            0x08076a5f      0x6  Code  Gb  sys_arch.o [1]
sys_sem_new             0x080769e1     0x38  Code  Gb  sys_arch.o [1]
sys_sem_set_invalid     0x08076a6f      0x2  Code  Gb  sys_arch.o [1]
sys_sem_signal          0x08076a53      0xc  Code  Gb  sys_arch.o [1]
sys_sem_valid           0x08076a65      0x2  Code  Gb  sys_arch.o [1]
sys_thread_new          0x08076a7f     0x38  Code  Gb  sys_arch.o [1]
sys_timeout             0x08077b0f     0x52  Code  Gb  lwip_timers.o [1]
sys_timeouts_init       0x08077af1     0x12  Code  Gb  lwip_timers.o [1]
sys_timeouts_mbox_fetch
                        0x08077bb9     0x5c  Code  Gb  lwip_timers.o [1]
sys_untimeout           0x08077b75     0x44  Code  Gb  lwip_timers.o [1]
tcp_abandon             0x08076c3f     0x86  Code  Gb  tcp.o [1]
tcp_abort               0x08076ccd      0x4  Code  Gb  tcp.o [1]
tcp_accept              0x080772e9      0x4  Code  Gb  tcp.o [1]
tcp_accept_null         0x08076d43      0x6  Code  Lc  tcp.o [1]
tcp_active_pcbs         0x20013b50      0x4  Data  Gb  tcp.o [1]
tcp_active_pcbs_changed
                        0x20013b40      0x1  Data  Gb  tcp.o [1]
tcp_alloc               0x080771e7     0xec  Code  Gb  tcp.o [1]
tcp_arg                 0x080772d7      0x4  Code  Gb  tcp.o [1]
tcp_backoff             0x080773d8     0x10  Data  Gb  tcp.o [1]
tcp_bind                0x08076cd1     0x72  Code  Gb  tcp.o [1]
tcp_bound_pcbs          0x20013b48      0x4  Data  Gb  tcp.o [1]
tcp_close               0x08076be9     0x12  Code  Gb  tcp.o [1]
tcp_close_shutdown      0x08076add     0xfa  Code  Lc  tcp.o [1]
tcp_create_segment      0x08079d95     0xa0  Code  Lc  tcp_out.o [1]
tcp_eff_send_mss        0x080773b5     0x22  Code  Gb  tcp.o [1]
tcp_enqueue_flags       0x0807a1c5     0x98  Code  Gb  tcp_out.o [1]
tcp_err                 0x080772e3      0x6  Code  Gb  tcp.o [1]
tcp_fasttmr             0x080770dd     0x54  Code  Gb  tcp.o [1]
tcp_init                0x08076abd      0x2  Code  Gb  tcp.o [1]
tcp_input               0x0807a861    0x344  Code  Gb  tcp_in.o [1]
tcp_input_pcb           0x2003fda0      0x4  Data  Gb  tcp_in.o [1]
tcp_keepalive           0x0807a5f1     0x2c  Code  Gb  tcp_out.o [1]
tcp_listen_input        0x0807abb1     0xe0  Code  Lc  tcp_in.o [1]
tcp_listen_pcbs         0x20013b4c      0x4  Data  Gb  tcp.o [1]
tcp_listen_with_backlog
                        0x08076d49     0x7a  Code  Gb  tcp.o [1]
tcp_new                 0x080772d3      0x4  Code  Gb  tcp.o [1]
tcp_new_port            0x08076e33     0x4c  Code  Lc  tcp.o [1]
tcp_next_iss            0x08077385      0xc  Code  Gb  tcp.o [1]
tcp_output              0x0807a29d    0x154  Code  Gb  tcp_out.o [1]
tcp_output_alloc_header
                        0x08079ce9     0x70  Code  Lc  tcp_out.o [1]
tcp_output_segment      0x0807a40b     0xa6  Code  Lc  tcp_out.o [1]
tcp_parseopt            0x0807b353     0x76  Code  Lc  tcp_in.o [1]
tcp_pbuf_prealloc       0x08079e35     0x5a  Code  Lc  tcp_out.o [1]
tcp_pcb_lists           0x080773f0     0x10  Data  Gb  tcp.o [1]
tcp_pcb_purge           0x080772f5     0x42  Code  Gb  tcp.o [1]
tcp_pcb_remove          0x08077337     0x4e  Code  Gb  tcp.o [1]
tcp_persist_backoff     0x080773e8      0x8  Data  Gb  tcp.o [1]
tcp_poll                0x080772ed      0x8  Code  Gb  tcp.o [1]
tcp_port                0x20013ed4      0x2  Data  Lc  tcp.o [1]
tcp_process             0x0807ac91    0x2ce  Code  Lc  tcp_in.o [1]
tcp_process_refused_data
                        0x08077131     0x66  Code  Gb  tcp.o [1]
tcp_receive             0x0807af7b    0x3aa  Code  Lc  tcp_in.o [1]
tcp_recv                0x080772db      0x4  Code  Gb  tcp.o [1]
tcp_recv_null           0x080771c5     0x22  Code  Gb  tcp.o [1]
tcp_recved              0x08076df9     0x3a  Code  Gb  tcp.o [1]
tcp_rexmit              0x0807a561     0x42  Code  Gb  tcp_out.o [1]
tcp_rexmit_fast         0x0807a5ab     0x46  Code  Gb  tcp_out.o [1]
tcp_rexmit_rto          0x0807a537     0x2a  Code  Gb  tcp_out.o [1]
tcp_rst                 0x0807a4c1     0x76  Code  Gb  tcp_out.o [1]
tcp_seg_free            0x080771a9     0x1c  Code  Gb  tcp.o [1]
tcp_segs_free           0x08077197     0x12  Code  Gb  tcp.o [1]
tcp_send_empty_ack      0x0807a25d     0x40  Code  Gb  tcp_out.o [1]
tcp_send_fin            0x08079d59     0x3c  Code  Gb  tcp_out.o [1]
tcp_sent                0x080772df      0x4  Code  Gb  tcp.o [1]
tcp_shutdown            0x08076bfb     0x44  Code  Gb  tcp.o [1]
tcp_slowtmr             0x08076e7f    0x252  Code  Gb  tcp.o [1]
tcp_ticks               0x20013b44      0x4  Data  Gb  tcp.o [1]
tcp_timer               0x200400ce      0x1  Data  Lc  tcp.o [1]
tcp_timer_ctr           0x20013b41      0x1  Data  Lc  tcp.o [1]
tcp_timer_needed        0x08077aad     0x24  Code  Gb  lwip_timers.o [1]
tcp_tmp_pcb             0x20013b58      0x4  Data  Gb  tcp.o [1]
tcp_tmr                 0x08076abf     0x1e  Code  Gb  tcp.o [1]
tcp_tw_pcbs             0x20013b54      0x4  Data  Gb  tcp.o [1]
tcp_update_rcv_ann_wnd  0x08076dc3     0x36  Code  Gb  tcp.o [1]
tcp_write               0x08079e8f    0x32a  Code  Gb  tcp_out.o [1]
tcp_zero_window_probe   0x0807a629     0x82  Code  Gb  tcp_out.o [1]
tcphdr                  0x2003fd90      0x4  Data  Lc  tcp_in.o [1]
tcpip_apimsg            0x08075563     0x40  Code  Gb  tcpip.o [1]
tcpip_init              0x080755a3     0x2e  Code  Gb  tcpip.o [1]
tcpip_init_done         0x2003ffdc      0x4  Data  Lc  tcpip.o [1]
tcpip_init_done_arg     0x2003ffe0      0x4  Data  Lc  tcpip.o [1]
tcpip_input             0x08075519     0x36  Code  Gb  tcpip.o [1]
tcpip_tcp_timer         0x08077a89     0x24  Code  Lc  lwip_timers.o [1]
tcpip_tcp_timer_active  0x2004005c      0x4  Data  Lc  lwip_timers.o [1]
tcpip_thread            0x0807547d     0x92  Code  Lc  tcpip.o [1]
tcplen                  0x2003fd8c      0x2  Data  Lc  tcp_in.o [1]
tmalloc_large           0x08060e99    0x390  Code  Lc  dlmalloc.o [5]
tmalloc_small           0x08061229    0x210  Code  Lc  dlmalloc.o [5]
tmpEqBand               0x2003d9a8      0x4  Data  Gb  audio_player_app.o [1]
transition_len          0x0805889d     0xa0  Code  Lc  filter.o [7]
tsDriver                0x2003fd14      0x4  Data  Lc  stm32746g_discovery_ts.o [1]
tsOrientation           0x2003fd0c      0x1  Data  Lc  stm32746g_discovery_ts.o [1]
tsXBoundary             0x2003fd0e      0x2  Data  Lc  stm32746g_discovery_ts.o [1]
tsYBoundary             0x2003fd10      0x2  Data  Lc  stm32746g_discovery_ts.o [1]
ucHeap                  0x20006024   0x7800  Data  Gb  main.o [1]
ucMaxSysCallPriority    0x20013e28      0x1  Data  Lc  port.o [1]
udp_bind                0x080783d3     0x80  Code  Gb  udp.o [1]
udp_connect             0x08078453     0x46  Code  Gb  udp.o [1]
udp_init                0x08078171      0x2  Code  Gb  udp.o [1]
udp_input               0x08078173    0x174  Code  Gb  udp.o [1]
udp_new                 0x080784d5     0x1a  Code  Gb  udp.o [1]
udp_pcbs                0x20013e7c      0x4  Data  Gb  udp.o [1]
udp_port                0x20013e78      0x2  Data  Lc  udp.o [1]
udp_recv                0x08078499      0x6  Code  Gb  udp.o [1]
udp_remove              0x0807849f     0x28  Code  Gb  udp.o [1]
udp_send                0x080782e7      0x4  Code  Gb  udp.o [1]
udp_sendto              0x080782eb     0x28  Code  Gb  udp.o [1]
udp_sendto_if           0x08078313     0xc0  Code  Gb  udp.o [1]
ulMaxPRIGROUPValue      0x20013e30      0x4  Data  Lc  port.o [1]
unlock_fs               0x0804fd19     0x1e  Code  Lc  ff.o [1]
uwTick                  0x20040068      0x4  Data  Lc  stm32f7xx_hal.o [1]
uxCriticalNesting       0x20013e2c      0x4  Data  Lc  port.o [1]
uxCurrentNumberOfTasks  0x200132f0      0x4  Data  Lc  tasks.o [1]
uxListRemove            0x080468eb     0x24  Code  Gb  list.o [1]
uxPendedTicks           0x20013300      0x4  Data  Lc  tasks.o [1]
uxQueueMessagesWaiting  0x08047461     0x14  Code  Gb  queue.o [1]
uxSchedulerSuspended    0x20013314      0x4  Data  Lc  tasks.o [1]
uxTaskNumber            0x2001330c      0x4  Data  Lc  tasks.o [1]
uxTasksDeleted          0x200132d8      0x4  Data  Lc  tasks.o [1]
uxTopReadyPriority      0x200132f8      0x4  Data  Lc  tasks.o [1]
vApplicationIdleHook    0x08046c69     0x10  Code  Gb  cpu_utils.o [1]
vApplicationTickHook    0x08046c79     0x36  Code  Gb  cpu_utils.o [1]
vListInitialise         0x08046881     0x1a  Code  Gb  list.o [1]
vListInitialiseItem     0x0804689b      0x6  Code  Gb  list.o [1]
vListInsert             0x080468b9     0x32  Code  Gb  list.o [1]
vListInsertEnd          0x080468a1     0x18  Code  Gb  list.o [1]
vPortEnableVFP          0x080476f1           Code  Gb  portasm.o [1]
vPortEnterCritical      0x0804676d     0x3a  Code  Gb  port.o [1]
vPortExitCritical       0x080467a7     0x28  Code  Gb  port.o [1]
vPortFree               0x08046dfd     0x44  Code  Gb  heap_4.o [1]
vPortSetupTimerInterrupt
                        0x080467f9     0x18  Code  Wk  port.o [1]
vPortStartFirstTask     0x080476d9           Code  Gb  portasm.o [1]
vPortValidateInterruptPriority
                        0x08046811     0x4a  Code  Gb  port.o [1]
vQueueAddToRegistry     0x08047587     0x20  Code  Gb  queue.o [1]
vQueueDelete            0x0804747d     0x1a  Code  Gb  queue.o [1]
vQueueUnregisterQueue   0x080475a7     0x1e  Code  Gb  queue.o [1]
vQueueWaitForMessageRestricted
                        0x080475cd     0x38  Code  Gb  queue.o [1]
vTaskDelay              0x0804468b     0x36  Code  Gb  tasks.o [1]
vTaskDelete             0x0804463f     0x42  Code  Gb  tasks.o [1]
vTaskMissedYield        0x08044c2d      0x8  Code  Gb  tasks.o [1]
vTaskPlaceOnEventList   0x08044aad     0x26  Code  Gb  tasks.o [1]
vTaskPlaceOnEventListRestricted
                        0x08044b0f     0x2a  Code  Gb  tasks.o [1]
vTaskPriorityInherit    0x08044d81     0x6a  Code  Gb  tasks.o [1]
vTaskResume             0x080447a1     0x44  Code  Gb  tasks.o [1]
vTaskSetTimeOutState    0x08044b9f     0x24  Code  Gb  tasks.o [1]
vTaskStartScheduler     0x08044877     0x54  Code  Gb  tasks.o [1]
vTaskSuspend            0x080446c9     0x4e  Code  Gb  tasks.o [1]
vTaskSuspendAll         0x080448cb      0xc  Code  Gb  tasks.o [1]
vTaskSwitchContext      0x08044a59     0x54  Code  Gb  tasks.o [1]
validate                0x08050ff7     0x3e  Code  Lc  ff.o [1]
video_player_board      0x20013d04     0x18  Data  Gb  video_player_win.o [1]
vnc_bmplay_unpressed    0x08073e38     0x14  Data  Gb  vnc_server_win.o [1]
vnc_connection          0x903634b8   0xa56c  Data  Lc  vnc_server_win.o [1]
vnc_server              0x20013c04     0x18  Data  Gb  vnc_server_win.o [1]
wav_file                0x2003e4f4    0x22c  Data  Lc  audio_player_app.o [1]
wav_file                0x2003e720    0x22c  Data  Lc  audio_recorder_app.o [1]
wm8994_DeInit           0x0808a169      0x4  Code  Gb  wm8994.o [1]
wm8994_Init             0x08089d25    0x428  Code  Gb  wm8994.o [1]
wm8994_Pause            0x0808a183     0x1a  Code  Gb  wm8994.o [1]
wm8994_Play             0x0808a181      0x2  Code  Gb  wm8994.o [1]
wm8994_ReadID           0x0808a16d     0x14  Code  Gb  wm8994.o [1]
wm8994_Reset            0x0808a467     0x14  Code  Gb  wm8994.o [1]
wm8994_Resume           0x0808a19d      0x2  Code  Gb  wm8994.o [1]
wm8994_SetFrequency     0x0808a411     0x56  Code  Gb  wm8994.o [1]
wm8994_SetMute          0x0808a329     0x36  Code  Gb  wm8994.o [1]
wm8994_SetOutputMode    0x0808a35f     0xac  Code  Gb  wm8994.o [1]
wm8994_SetVolume        0x0808a211    0x10c  Code  Gb  wm8994.o [1]
wm8994_Stop             0x0808a1a3     0x60  Code  Gb  wm8994.o [1]
wm8994_drv              0x200139dc     0x30  Data  Gb  wm8994.o [1]
xActiveTimerList1       0x2003fc44     0x14  Data  Lc  timers.o [1]
xActiveTimerList2       0x2003fc58     0x14  Data  Lc  timers.o [1]
xBlockAllocatedBit      0x2003fee8      0x4  Data  Lc  heap_4.o [1]
xDelayedTaskList1       0x20013318     0x14  Data  Lc  tasks.o [1]
xDelayedTaskList2       0x2001332c     0x14  Data  Lc  tasks.o [1]
xFreeBytesRemaining     0x2003fee0      0x4  Data  Lc  heap_4.o [1]
xIdleHandle             0x2003febc      0x4  Data  Gb  cpu_utils.o [1]
xMinimumEverFreeBytesRemaining
                        0x2003fee4      0x4  Data  Lc  heap_4.o [1]
xNextTaskUnblockTime    0x20013310      0x4  Data  Lc  tasks.o [1]
xNumOfOverflows         0x20013308      0x4  Data  Lc  tasks.o [1]
xPendingReadyList       0x200132a4     0x14  Data  Lc  tasks.o [1]
xPortStartScheduler     0x080466fb     0x72  Code  Gb  port.o [1]
xPortSysTickHandler     0x080467cf     0x2a  Code  Gb  port.o [1]
xQueueCreateCountingSemaphore
                        0x08047011     0x2c  Code  Gb  queue.o [1]
xQueueCreateMutex       0x08046fa7     0x56  Code  Gb  queue.o [1]
xQueueGenericCreate     0x08046f53     0x54  Code  Gb  queue.o [1]
xQueueGenericReceive    0x08047297    0x11c  Code  Gb  queue.o [1]
xQueueGenericReset      0x08046ee1     0x72  Code  Gb  queue.o [1]
xQueueGenericSend       0x0804703d    0x110  Code  Gb  queue.o [1]
xQueueGenericSendFromISR
                        0x0804716d     0x86  Code  Gb  queue.o [1]
xQueueGiveFromISR       0x08047205     0x70  Code  Gb  queue.o [1]
xQueueReceiveFromISR    0x080473c3     0x68  Code  Gb  queue.o [1]
xQueueRegistry          0x2003fb7c     0x40  Data  Gb  queue.o [1]
xSchedulerRunning       0x200132fc      0x4  Data  Lc  tasks.o [1]
xStart                  0x2003fed4      0x8  Data  Lc  heap_4.o [1]
xSuspendedTaskList      0x200132dc     0x14  Data  Lc  tasks.o [1]
xTaskCheckForTimeOut    0x08044bc3     0x50  Code  Gb  tasks.o [1]
xTaskGenericCreate      0x0804452d    0x112  Code  Gb  tasks.o [1]
xTaskGetCurrentTaskHandle
                        0x08044d65      0x6  Code  Gb  tasks.o [1]
xTaskGetSchedulerState  0x08044d6b     0x16  Code  Gb  tasks.o [1]
xTaskGetTickCount       0x08044981      0x8  Code  Gb  tasks.o [1]
xTaskGetTickCountFromISR
                        0x08044989      0xe  Code  Gb  tasks.o [1]
xTaskIncrementTick      0x08044997     0xc2  Code  Gb  tasks.o [1]
xTaskPriorityDisinherit
                        0x08044deb     0x6e  Code  Gb  tasks.o [1]
xTaskRemoveFromEventList
                        0x08044b39     0x54  Code  Gb  tasks.o [1]
xTaskResumeAll          0x080448d7     0x96  Code  Gb  tasks.o [1]
xTaskResumeFromISR      0x08044801     0x64  Code  Gb  tasks.o [1]
xTasksWaitingTermination
                        0x200132b8     0x14  Data  Lc  tasks.o [1]
xTickCount              0x200132f4      0x4  Data  Lc  tasks.o [1]
xTimerCreate            0x08046947     0x3c  Code  Gb  timers.o [1]
xTimerCreateTimerTask   0x08046911     0x36  Code  Gb  timers.o [1]
xTimerGenericCommand    0x08046983     0x48  Code  Gb  timers.o [1]
xTimerIsTimerActive     0x08046c3d     0x14  Code  Gb  timers.o [1]
xTimerQueue             0x2003fc3c      0x4  Data  Lc  timers.o [1]
xYieldPending           0x20013304      0x4  Data  Lc  tasks.o [1]


[1] = F:\PATH_EN\Code\STM32F746G-RadioYuN\Projects\STM32F746G-DISCO\RadioYuN\IAR\STM32F7-DISCO\Obj
[2] = command line
[3] = STM32746G_Discovery_STemWin_Addons_IAR.a
[4] = STemWin528_CM7_OS_IAR_ot.a
[5] = dl7M_tlf.a
[6] = lib_equalizer_cortex_m4.a
[7] = lib_loudness_cortex_m4.a
[8] = m7M_tls.a
[9] = rt7M_tl.a

    298 734 bytes of readonly  code memory
  6 509 006 bytes of readonly  data memory
    197 965 bytes of readwrite data memory (+ 64 736 absolute)

Errors: none
Warnings: none
